; Listing generated by Microsoft (R) Optimizing Compiler Version 17.00.50727.1 

include listing.inc

INCLUDELIB LIBCMT
INCLUDELIB OLDNAMES

PUBLIC	?kern_acpi@@3U_aurora_acpi_@@A			; kern_acpi
_BSS	SEGMENT
?kern_acpi@@3U_aurora_acpi_@@A DB 02eH DUP (?)		; kern_acpi
_BSS	ENDS
CONST	SEGMENT
$SG3401	DB	'[ACPI]: data structures are incomplete', 0aH, 00H
$SG3404	DB	'[ACPI]: Already enabled', 0aH, 00H
	ORG $+7
$SG3406	DB	'PM1aCTRLBlock -> %x', 0aH, 00H
	ORG $+3
$SG3408	DB	'[ACPI]: Enabled successfully', 0aH, 00H
	ORG $+2
$SG3410	DB	'[ACPI]: Verifying pm1bCtrlBlock ', 0aH, 00H
	ORG $+6
$SG3413	DB	'[ACPI]: Enabled successfully', 0aH, 00H
	ORG $+2
$SG3418	DB	'[ACPI]: Fadt interrupt fired', 0aH, 00H
	ORG $+2
$SG3438	DB	'FACP', 00H
	ORG $+3
$SG3439	DB	'FACP', 00H
	ORG $+3
$SG3441	DB	'[ACPI]: Fadt table found', 0aH, 00H
	ORG $+2
$SG3444	DB	'CIPA', 00H
	ORG $+3
$SG3445	DB	'APIC', 00H
	ORG $+7
$SG3447	DB	'[ACPI]: Madt table found', 0aH, 00H
	ORG $+2
$SG3450	DB	'SRAT', 00H
	ORG $+3
$SG3451	DB	'SRAT', 00H
	ORG $+7
$SG3452	DB	'[ACPI]: Srat table found', 0aH, 00H
	ORG $+6
$SG3455	DB	'[ACPI]: Srat -> %d length -> %d', 0aH, 00H
	ORG $+7
$SG3472	DB	'[ACPI]: Srat memory affinity found ', 0aH, 00H
	ORG $+3
$SG3475	DB	'Mem start -> %x ', 0aH, 00H
	ORG $+6
$SG3476	DB	'Mem end -> %x ', 0aH, 00H
$SG3477	DB	'Mem Length -> %d MB ', 0aH, 00H
	ORG $+2
$SG3478	DB	'Numa Domain -> %d ', 0aH, 00H
	ORG $+4
$SG3479	DB	'Mem LLength -> %d', 0aH, 00H
	ORG $+5
$SG3481	DB	'[ACPI]: Srat cpu affinity found ', 0aH, 00H
	ORG $+6
$SG3483	DB	'[ACPI]: Generic affinity found ', 0aH, 00H
	ORG $+7
$SG3485	DB	'[ACPI]: GICC affinity found ', 0aH, 00H
	ORG $+2
$SG3487	DB	'[ACPI]: GIC ITS Affinity found ', 0aH, 00H
	ORG $+7
$SG3489	DB	'[ACPI]: X2APIC CPU Affinity found ', 0aH, 00H
	ORG $+4
$SG3491	DB	'[ACPI]: Srat type reserved ', 0aH, 00H
	ORG $+3
$SG3501	DB	'SLIT', 00H
	ORG $+3
$SG3502	DB	'SLIT', 00H
	ORG $+3
$SG3503	DB	'[ACPI]: Slit table found ', 0aH, 00H
	ORG $+1
$SG3506	DB	'MCFG', 00H
	ORG $+3
$SG3507	DB	'MCFG', 00H
	ORG $+3
$SG3528	DB	'HPET', 00H
	ORG $+7
$SG3525	DB	'PCIe Start bus num -> %d, End bus num -> %d, base addres'
	DB	's-> %x', 0aH, 00H
$SG3529	DB	'HPET', 00H
	ORG $+3
$SG3530	DB	'[ACPI]: HPET table found', 0aH, 00H
	ORG $+2
$SG3533	DB	'MCHI', 00H
	ORG $+3
$SG3534	DB	'MCHI', 00H
	ORG $+7
$SG3535	DB	'[ACPI]: Management Controller Host Interface Table', 0aH
	DB	00H
	ORG $+4
$SG3540	DB	'[ACPI]: Dsdt found -> %x', 0aH, 00H
	ORG $+6
$SG3541	DB	'[ACPI]: Sci Interrupt -> %d', 0aH, 00H
	ORG $+3
$SG3544	DB	'S5Block found', 0aH, 00H
	ORG $+1
$SG3547	DB	'[ACPI]: SLP_typA -> %x, SLP_typB -> %x', 0aH, 00H
$SG3568	DB	'[ACPI]: Madt entry -> LAPIC id -> %d, address -> %x', 0aH
	DB	00H
	ORG $+3
$SG3573	DB	'[ACPI]: Madt entry -> I/O APIC address -> %x, GSI -> %d', 0aH
	DB	00H
	ORG $+7
$SG3577	DB	'[ACPI]: Interrupt Source Override, GSI -> %d, SRC -> %d', 0aH
	DB	00H
	ORG $+7
$SG3588	DB	'[ACPI]: Reset Address -> %x, Reset value -> %x', 0aH, 00H
$SG3592	DB	'Shutdown step1 complete', 0aH, 00H
	ORG $+7
$SG3594	DB	'[ACPI] pm1bCtrlBlock -> %x', 0aH, 00H
	ORG $+4
$SG3595	DB	0aH, 'Shutdown step2 complete', 0aH, 00H
	ORG $+6
$SG3596	DB	'[ACPI]: Shutdown failed', 0aH, 00H
CONST	ENDS
PUBLIC	?AuInitializeBasicAcpi@@YAXPEAX@Z		; AuInitializeBasicAcpi
PUBLIC	?acpi_parse_madt@@YAXXZ				; acpi_parse_madt
PUBLIC	?acpi_system_reboot@@YAXXZ			; acpi_system_reboot
PUBLIC	?search_s5@@YAPEAEPEAUacpiDsdt@@@Z		; search_s5
PUBLIC	?acpi_shutdown@@YAXXZ				; acpi_shutdown
PUBLIC	?acpi_pcie_supported@@YA_NXZ			; acpi_pcie_supported
PUBLIC	?acpi_get_mcfg@@YAPEAUacpiMcfg@@XZ		; acpi_get_mcfg
PUBLIC	?AuGetNumCPU@@YAEXZ				; AuGetNumCPU
PUBLIC	?acpi_power_button_enable@@YAXXZ		; acpi_power_button_enable
PUBLIC	?acpi_enable@@YAXXZ				; acpi_enable
PUBLIC	?fadt_handler@@YAX_KPEAX@Z			; fadt_handler
PUBLIC	??$raw_diff@U_acpi_sub_tab_@@U_acpi_table_srat_x_@@@@YAHPEAU_acpi_sub_tab_@@PEAU_acpi_table_srat_x_@@@Z ; raw_diff<_acpi_sub_tab_,_acpi_table_srat_x_>
PUBLIC	??$raw_offset@PEAU_acpi_sub_tab_@@PEAU1@@@YAPEAU_acpi_sub_tab_@@PEAU0@H@Z ; raw_offset<_acpi_sub_tab_ * __ptr64,_acpi_sub_tab_ * __ptr64>
PUBLIC	??$mem_after@PEAUacpiMcfgAlloc@@UacpiMcfg@@@@YAPEAUacpiMcfgAlloc@@PEAUacpiMcfg@@@Z ; mem_after<acpiMcfgAlloc * __ptr64,acpiMcfg>
PUBLIC	??$raw_diff@UacpiMcfgAlloc@@UacpiMcfg@@@@YAHPEAUacpiMcfgAlloc@@PEAUacpiMcfg@@@Z ; raw_diff<acpiMcfgAlloc,acpiMcfg>
PUBLIC	??$raw_diff@U_acpi_apic_header_@@UacpiMadt@@@@YAHPEAU_acpi_apic_header_@@PEAUacpiMadt@@@Z ; raw_diff<_acpi_apic_header_,acpiMadt>
PUBLIC	??$raw_offset@PEAU_acpi_apic_header_@@PEAU1@@@YAPEAU_acpi_apic_header_@@PEAU0@H@Z ; raw_offset<_acpi_apic_header_ * __ptr64,_acpi_apic_header_ * __ptr64>
EXTRN	x64_cli:PROC
EXTRN	x64_inportw:PROC
EXTRN	x64_outportb:PROC
EXTRN	x64_outportw:PROC
EXTRN	x64_outportd:PROC
EXTRN	strlen:PROC
EXTRN	strncmp:PROC
EXTRN	strncpy:PROC
EXTRN	memset:PROC
EXTRN	printf:PROC
EXTRN	AuInterruptEnd:PROC
EXTRN	AuInterruptSet:PROC
EXTRN	__ImageBase:BYTE
pdata	SEGMENT
$pdata$?AuInitializeBasicAcpi@@YAXPEAX@Z DD imagerel $LN39
	DD	imagerel $LN39+1564
	DD	imagerel $unwind$?AuInitializeBasicAcpi@@YAXPEAX@Z
$pdata$?acpi_parse_madt@@YAXXZ DD imagerel $LN12
	DD	imagerel $LN12+285
	DD	imagerel $unwind$?acpi_parse_madt@@YAXXZ
$pdata$?acpi_system_reboot@@YAXXZ DD imagerel $LN3
	DD	imagerel $LN3+76
	DD	imagerel $unwind$?acpi_system_reboot@@YAXXZ
$pdata$?search_s5@@YAPEAEPEAUacpiDsdt@@@Z DD imagerel $LN6
	DD	imagerel $LN6+104
	DD	imagerel $unwind$?search_s5@@YAPEAEPEAUacpiDsdt@@@Z
$pdata$?acpi_shutdown@@YAXXZ DD imagerel $LN7
	DD	imagerel $LN7+176
	DD	imagerel $unwind$?acpi_shutdown@@YAXXZ
$pdata$?acpi_power_button_enable@@YAXXZ DD imagerel $LN3
	DD	imagerel $LN3+109
	DD	imagerel $unwind$?acpi_power_button_enable@@YAXXZ
$pdata$?acpi_enable@@YAXXZ DD imagerel $LN9
	DD	imagerel $LN9+271
	DD	imagerel $unwind$?acpi_enable@@YAXXZ
$pdata$?fadt_handler@@YAX_KPEAX@Z DD imagerel $LN3
	DD	imagerel $LN3+41
	DD	imagerel $unwind$?fadt_handler@@YAX_KPEAX@Z
pdata	ENDS
xdata	SEGMENT
$unwind$?AuInitializeBasicAcpi@@YAXPEAX@Z DD 020c01H
	DD	013010cH
$unwind$?acpi_parse_madt@@YAXXZ DD 010401H
	DD	0a204H
$unwind$?acpi_system_reboot@@YAXXZ DD 010401H
	DD	04204H
$unwind$?search_s5@@YAPEAEPEAUacpiDsdt@@@Z DD 010901H
	DD	02209H
$unwind$?acpi_shutdown@@YAXXZ DD 010401H
	DD	04204H
$unwind$?acpi_power_button_enable@@YAXXZ DD 010401H
	DD	04204H
$unwind$?acpi_enable@@YAXXZ DD 010401H
	DD	06204H
$unwind$?fadt_handler@@YAX_KPEAX@Z DD 010e01H
	DD	0420eH
xdata	ENDS
; Function compile flags: /Odtpy
; File e:\xeneva project\xeneva\aurora\include\stdint.h
;	COMDAT ??$raw_offset@PEAU_acpi_apic_header_@@PEAU1@@@YAPEAU_acpi_apic_header_@@PEAU0@H@Z
_TEXT	SEGMENT
p1$ = 8
offset$ = 16
??$raw_offset@PEAU_acpi_apic_header_@@PEAU1@@@YAPEAU_acpi_apic_header_@@PEAU0@H@Z PROC ; raw_offset<_acpi_apic_header_ * __ptr64,_acpi_apic_header_ * __ptr64>, COMDAT

; 183  : 	{

	mov	DWORD PTR [rsp+16], edx
	mov	QWORD PTR [rsp+8], rcx

; 184  : 		return (T) ((size_t)p1 + offset);

	movsxd	rax, DWORD PTR offset$[rsp]
	mov	rcx, QWORD PTR p1$[rsp]
	add	rcx, rax
	mov	rax, rcx

; 185  : 	};

	ret	0
??$raw_offset@PEAU_acpi_apic_header_@@PEAU1@@@YAPEAU_acpi_apic_header_@@PEAU0@H@Z ENDP ; raw_offset<_acpi_apic_header_ * __ptr64,_acpi_apic_header_ * __ptr64>
_TEXT	ENDS
; Function compile flags: /Odtpy
; File e:\xeneva project\xeneva\aurora\include\stdint.h
;	COMDAT ??$raw_diff@U_acpi_apic_header_@@UacpiMadt@@@@YAHPEAU_acpi_apic_header_@@PEAUacpiMadt@@@Z
_TEXT	SEGMENT
p1$ = 8
p2$ = 16
??$raw_diff@U_acpi_apic_header_@@UacpiMadt@@@@YAHPEAU_acpi_apic_header_@@PEAUacpiMadt@@@Z PROC ; raw_diff<_acpi_apic_header_,acpiMadt>, COMDAT

; 179  : 	{

	mov	QWORD PTR [rsp+16], rdx
	mov	QWORD PTR [rsp+8], rcx

; 180  : 		return (intptr_t)p1 - (intptr_t)p2;

	mov	eax, DWORD PTR p2$[rsp]
	mov	ecx, DWORD PTR p1$[rsp]
	sub	ecx, eax
	mov	eax, ecx

; 181  : 	};

	ret	0
??$raw_diff@U_acpi_apic_header_@@UacpiMadt@@@@YAHPEAU_acpi_apic_header_@@PEAUacpiMadt@@@Z ENDP ; raw_diff<_acpi_apic_header_,acpiMadt>
_TEXT	ENDS
; Function compile flags: /Odtpy
; File e:\xeneva project\xeneva\aurora\include\stdint.h
;	COMDAT ??$raw_diff@UacpiMcfgAlloc@@UacpiMcfg@@@@YAHPEAUacpiMcfgAlloc@@PEAUacpiMcfg@@@Z
_TEXT	SEGMENT
p1$ = 8
p2$ = 16
??$raw_diff@UacpiMcfgAlloc@@UacpiMcfg@@@@YAHPEAUacpiMcfgAlloc@@PEAUacpiMcfg@@@Z PROC ; raw_diff<acpiMcfgAlloc,acpiMcfg>, COMDAT

; 179  : 	{

	mov	QWORD PTR [rsp+16], rdx
	mov	QWORD PTR [rsp+8], rcx

; 180  : 		return (intptr_t)p1 - (intptr_t)p2;

	mov	eax, DWORD PTR p2$[rsp]
	mov	ecx, DWORD PTR p1$[rsp]
	sub	ecx, eax
	mov	eax, ecx

; 181  : 	};

	ret	0
??$raw_diff@UacpiMcfgAlloc@@UacpiMcfg@@@@YAHPEAUacpiMcfgAlloc@@PEAUacpiMcfg@@@Z ENDP ; raw_diff<acpiMcfgAlloc,acpiMcfg>
_TEXT	ENDS
; Function compile flags: /Odtpy
; File e:\xeneva project\xeneva\aurora\include\stdint.h
;	COMDAT ??$mem_after@PEAUacpiMcfgAlloc@@UacpiMcfg@@@@YAPEAUacpiMcfgAlloc@@PEAUacpiMcfg@@@Z
_TEXT	SEGMENT
p1$ = 8
??$mem_after@PEAUacpiMcfgAlloc@@UacpiMcfg@@@@YAPEAUacpiMcfgAlloc@@PEAUacpiMcfg@@@Z PROC ; mem_after<acpiMcfgAlloc * __ptr64,acpiMcfg>, COMDAT

; 187  : 	{

	mov	QWORD PTR [rsp+8], rcx

; 188  : 		return (T) (&p1[1]);

	mov	eax, 44					; 0000002cH
	imul	rax, 1
	mov	rcx, QWORD PTR p1$[rsp]
	add	rcx, rax
	mov	rax, rcx

; 189  : 	};

	ret	0
??$mem_after@PEAUacpiMcfgAlloc@@UacpiMcfg@@@@YAPEAUacpiMcfgAlloc@@PEAUacpiMcfg@@@Z ENDP ; mem_after<acpiMcfgAlloc * __ptr64,acpiMcfg>
_TEXT	ENDS
; Function compile flags: /Odtpy
; File e:\xeneva project\xeneva\aurora\include\stdint.h
;	COMDAT ??$raw_offset@PEAU_acpi_sub_tab_@@PEAU1@@@YAPEAU_acpi_sub_tab_@@PEAU0@H@Z
_TEXT	SEGMENT
p1$ = 8
offset$ = 16
??$raw_offset@PEAU_acpi_sub_tab_@@PEAU1@@@YAPEAU_acpi_sub_tab_@@PEAU0@H@Z PROC ; raw_offset<_acpi_sub_tab_ * __ptr64,_acpi_sub_tab_ * __ptr64>, COMDAT

; 183  : 	{

	mov	DWORD PTR [rsp+16], edx
	mov	QWORD PTR [rsp+8], rcx

; 184  : 		return (T) ((size_t)p1 + offset);

	movsxd	rax, DWORD PTR offset$[rsp]
	mov	rcx, QWORD PTR p1$[rsp]
	add	rcx, rax
	mov	rax, rcx

; 185  : 	};

	ret	0
??$raw_offset@PEAU_acpi_sub_tab_@@PEAU1@@@YAPEAU_acpi_sub_tab_@@PEAU0@H@Z ENDP ; raw_offset<_acpi_sub_tab_ * __ptr64,_acpi_sub_tab_ * __ptr64>
_TEXT	ENDS
; Function compile flags: /Odtpy
; File e:\xeneva project\xeneva\aurora\include\stdint.h
;	COMDAT ??$raw_diff@U_acpi_sub_tab_@@U_acpi_table_srat_x_@@@@YAHPEAU_acpi_sub_tab_@@PEAU_acpi_table_srat_x_@@@Z
_TEXT	SEGMENT
p1$ = 8
p2$ = 16
??$raw_diff@U_acpi_sub_tab_@@U_acpi_table_srat_x_@@@@YAHPEAU_acpi_sub_tab_@@PEAU_acpi_table_srat_x_@@@Z PROC ; raw_diff<_acpi_sub_tab_,_acpi_table_srat_x_>, COMDAT

; 179  : 	{

	mov	QWORD PTR [rsp+16], rdx
	mov	QWORD PTR [rsp+8], rcx

; 180  : 		return (intptr_t)p1 - (intptr_t)p2;

	mov	eax, DWORD PTR p2$[rsp]
	mov	ecx, DWORD PTR p1$[rsp]
	sub	ecx, eax
	mov	eax, ecx

; 181  : 	};

	ret	0
??$raw_diff@U_acpi_sub_tab_@@U_acpi_table_srat_x_@@@@YAHPEAU_acpi_sub_tab_@@PEAU_acpi_table_srat_x_@@@Z ENDP ; raw_diff<_acpi_sub_tab_,_acpi_table_srat_x_>
_TEXT	ENDS
; Function compile flags: /Odtpy
; File e:\xeneva project\xeneva\aurora\aurora\drivers\acpi\acpi.cpp
_TEXT	SEGMENT
v$ = 48
p$ = 56
?fadt_handler@@YAX_KPEAX@Z PROC				; fadt_handler

; 69   : void fadt_handler (size_t v, void* p) {

$LN3:
	mov	QWORD PTR [rsp+16], rdx
	mov	QWORD PTR [rsp+8], rcx
	sub	rsp, 40					; 00000028H

; 70   : 	printf ("[ACPI]: Fadt interrupt fired\n");

	lea	rcx, OFFSET FLAT:$SG3418
	call	printf

; 71   : 	AuInterruptEnd(9);

	mov	ecx, 9
	call	AuInterruptEnd

; 72   : }

	add	rsp, 40					; 00000028H
	ret	0
?fadt_handler@@YAX_KPEAX@Z ENDP				; fadt_handler
_TEXT	ENDS
; Function compile flags: /Odtpy
; File e:\xeneva project\xeneva\aurora\aurora\drivers\acpi\acpi.cpp
_TEXT	SEGMENT
word$ = 32
word_1$ = 36
word_3$1 = 40
?acpi_enable@@YAXXZ PROC				; acpi_enable

; 37   : void acpi_enable () {

$LN9:
	sub	rsp, 56					; 00000038H

; 38   : 	if (!kern_acpi.fadt || !kern_acpi.fadt->pm1aCtrlBlock) {

	cmp	QWORD PTR ?kern_acpi@@3U_aurora_acpi_@@A+9, 0
	je	SHORT $LN5@acpi_enabl
	mov	rax, QWORD PTR ?kern_acpi@@3U_aurora_acpi_@@A+9
	cmp	DWORD PTR [rax+64], 0
	jne	SHORT $LN6@acpi_enabl
$LN5@acpi_enabl:

; 39   : 		printf ("[ACPI]: data structures are incomplete\n");

	lea	rcx, OFFSET FLAT:$SG3401
	call	printf

; 40   : 		return;

	jmp	$LN7@acpi_enabl
$LN6@acpi_enabl:

; 41   : 	}
; 42   : 	uint16_t word = x64_inportw(kern_acpi.fadt->pm1aCtrlBlock);

	mov	rax, QWORD PTR ?kern_acpi@@3U_aurora_acpi_@@A+9
	movzx	ecx, WORD PTR [rax+64]
	call	x64_inportw
	mov	WORD PTR word$[rsp], ax

; 43   : 	if ((word & ACPI_PMCTRL_SCI_EN) == 1) {

	movzx	eax, WORD PTR word$[rsp]
	and	eax, 1
	cmp	eax, 1
	jne	SHORT $LN4@acpi_enabl

; 44   : 		printf ("[ACPI]: Already enabled\n");

	lea	rcx, OFFSET FLAT:$SG3404
	call	printf

; 45   : 		return;

	jmp	$LN7@acpi_enabl
$LN4@acpi_enabl:

; 46   : 	}
; 47   : 	x64_outportb (kern_acpi.fadt->sciCmdPort, kern_acpi.fadt->acpiEnable);

	mov	rax, QWORD PTR ?kern_acpi@@3U_aurora_acpi_@@A+9
	movzx	edx, BYTE PTR [rax+52]
	mov	rax, QWORD PTR ?kern_acpi@@3U_aurora_acpi_@@A+9
	movzx	ecx, WORD PTR [rax+48]
	call	x64_outportb

; 48   : 	uint16_t word_1 = x64_inportw(kern_acpi.fadt->pm1aCtrlBlock);	

	mov	rax, QWORD PTR ?kern_acpi@@3U_aurora_acpi_@@A+9
	movzx	ecx, WORD PTR [rax+64]
	call	x64_inportw
	mov	WORD PTR word_1$[rsp], ax

; 49   : 	printf ("PM1aCTRLBlock -> %x\n", kern_acpi.fadt->pm1aCtrlBlock);

	mov	rax, QWORD PTR ?kern_acpi@@3U_aurora_acpi_@@A+9
	mov	edx, DWORD PTR [rax+64]
	lea	rcx, OFFSET FLAT:$SG3406
	call	printf

; 50   : 	if ((word_1 & ACPI_PMCTRL_SCI_EN) == 1){

	movzx	eax, WORD PTR word_1$[rsp]
	and	eax, 1
	cmp	eax, 1
	jne	SHORT $LN3@acpi_enabl

; 51   : 
; 52   : 		printf ("[ACPI]: Enabled successfully\n");

	lea	rcx, OFFSET FLAT:$SG3408
	call	printf
$LN3@acpi_enabl:

; 53   : 
; 54   : 	}
; 55   : 
; 56   : 	if (kern_acpi.fadt->pm1bCtrlBlock){

	mov	rax, QWORD PTR ?kern_acpi@@3U_aurora_acpi_@@A+9
	cmp	DWORD PTR [rax+68], 0
	je	SHORT $LN2@acpi_enabl

; 57   : 		printf ("[ACPI]: Verifying pm1bCtrlBlock \n");

	lea	rcx, OFFSET FLAT:$SG3410
	call	printf

; 58   : 		uint16_t word_3 = x64_inportw(kern_acpi.fadt->pm1bCtrlBlock);

	mov	rax, QWORD PTR ?kern_acpi@@3U_aurora_acpi_@@A+9
	movzx	ecx, WORD PTR [rax+68]
	call	x64_inportw
	mov	WORD PTR word_3$1[rsp], ax

; 59   : 		if ((word_3 & ACPI_PMCTRL_SCI_EN) == 1){

	movzx	eax, WORD PTR word_3$1[rsp]
	and	eax, 1
	cmp	eax, 1
	jne	SHORT $LN1@acpi_enabl

; 60   : 			printf ("[ACPI]: Enabled successfully\n");

	lea	rcx, OFFSET FLAT:$SG3413
	call	printf
$LN1@acpi_enabl:
$LN2@acpi_enabl:

; 61   : 		}
; 62   : 	}
; 63   : 
; 64   : 	acpi_power_button_enable();

	call	?acpi_power_button_enable@@YAXXZ	; acpi_power_button_enable
$LN7@acpi_enabl:

; 65   : 	return;
; 66   : }

	add	rsp, 56					; 00000038H
	ret	0
?acpi_enable@@YAXXZ ENDP				; acpi_enable
_TEXT	ENDS
; Function compile flags: /Odtpy
; File e:\xeneva project\xeneva\aurora\aurora\drivers\acpi\acpi.cpp
_TEXT	SEGMENT
?acpi_power_button_enable@@YAXXZ PROC			; acpi_power_button_enable

; 28   : void acpi_power_button_enable () {

$LN3:
	sub	rsp, 40					; 00000028H

; 29   : 	x64_outportw (kern_acpi.fadt->pm1aEventBlock, (1<<5));

	mov	dx, 32					; 00000020H
	mov	rax, QWORD PTR ?kern_acpi@@3U_aurora_acpi_@@A+9
	movzx	ecx, WORD PTR [rax+56]
	call	x64_outportw

; 30   : 	x64_outportw (kern_acpi.fadt->pm1aEventBlock, (1<<8));

	mov	dx, 256					; 00000100H
	mov	rax, QWORD PTR ?kern_acpi@@3U_aurora_acpi_@@A+9
	movzx	ecx, WORD PTR [rax+56]
	call	x64_outportw

; 31   : 	x64_outportw (kern_acpi.fadt->pm1aEventBlock, (1<<5));

	mov	dx, 32					; 00000020H
	mov	rax, QWORD PTR ?kern_acpi@@3U_aurora_acpi_@@A+9
	movzx	ecx, WORD PTR [rax+56]
	call	x64_outportw

; 32   : 	x64_outportw (kern_acpi.fadt->pm1aEventBlock, POWER_BUTTON_ENABLE);

	mov	dx, 256					; 00000100H
	mov	rax, QWORD PTR ?kern_acpi@@3U_aurora_acpi_@@A+9
	movzx	ecx, WORD PTR [rax+56]
	call	x64_outportw

; 33   : 	x64_outportw (kern_acpi.fadt->pm1aEventBlock, (1<<9));

	mov	dx, 512					; 00000200H
	mov	rax, QWORD PTR ?kern_acpi@@3U_aurora_acpi_@@A+9
	movzx	ecx, WORD PTR [rax+56]
	call	x64_outportw

; 34   : }

	add	rsp, 40					; 00000028H
	ret	0
?acpi_power_button_enable@@YAXXZ ENDP			; acpi_power_button_enable
_TEXT	ENDS
; Function compile flags: /Odtpy
; File e:\xeneva project\xeneva\aurora\aurora\drivers\acpi\acpi.cpp
_TEXT	SEGMENT
?AuGetNumCPU@@YAEXZ PROC				; AuGetNumCPU

; 287  : 	return kern_acpi.num_cpu;

	movzx	eax, BYTE PTR ?kern_acpi@@3U_aurora_acpi_@@A+45

; 288  : }

	ret	0
?AuGetNumCPU@@YAEXZ ENDP				; AuGetNumCPU
_TEXT	ENDS
; Function compile flags: /Odtpy
; File e:\xeneva project\xeneva\aurora\aurora\drivers\acpi\acpi.cpp
_TEXT	SEGMENT
?acpi_get_mcfg@@YAPEAUacpiMcfg@@XZ PROC			; acpi_get_mcfg

; 279  : 	return kern_acpi.mcfg;

	mov	rax, QWORD PTR ?kern_acpi@@3U_aurora_acpi_@@A+33

; 280  : }

	ret	0
?acpi_get_mcfg@@YAPEAUacpiMcfg@@XZ ENDP			; acpi_get_mcfg
_TEXT	ENDS
; Function compile flags: /Odtpy
; File e:\xeneva project\xeneva\aurora\aurora\drivers\acpi\acpi.cpp
_TEXT	SEGMENT
?acpi_pcie_supported@@YA_NXZ PROC			; acpi_pcie_supported

; 269  : 	//if (!kern_acpi->mcfg) {
; 270  : 	//	return false;
; 271  : 	//} 
; 272  : 	////! for now let's use pci legacy mode
; 273  : 	//return true;
; 274  : 	return false;

	xor	al, al

; 275  : }

	ret	0
?acpi_pcie_supported@@YA_NXZ ENDP			; acpi_pcie_supported
_TEXT	ENDS
; Function compile flags: /Odtpy
; File e:\xeneva project\xeneva\aurora\aurora\drivers\acpi\acpi.cpp
_TEXT	SEGMENT
?acpi_shutdown@@YAXXZ PROC				; acpi_shutdown

; 232  : void acpi_shutdown () {

$LN7:
	sub	rsp, 40					; 00000028H

; 233  : 	x64_cli();

	call	x64_cli

; 234  : 	x64_outportd (kern_acpi.fadt->sciCmdPort, 0);

	xor	edx, edx
	mov	rax, QWORD PTR ?kern_acpi@@3U_aurora_acpi_@@A+9
	movzx	ecx, WORD PTR [rax+48]
	call	x64_outportd

; 235  : 	if (kern_acpi.fadt->pm1aCtrlBlock != NULL) {

	mov	rax, QWORD PTR ?kern_acpi@@3U_aurora_acpi_@@A+9
	cmp	DWORD PTR [rax+64], 0
	je	SHORT $LN4@acpi_shutd

; 236  : 		x64_outportd (kern_acpi.fadt->pm1aCtrlBlock, kern_acpi.slp_typa | SLP_EN);

	movzx	eax, WORD PTR ?kern_acpi@@3U_aurora_acpi_@@A+41
	bts	eax, 13
	mov	edx, eax
	mov	rax, QWORD PTR ?kern_acpi@@3U_aurora_acpi_@@A+9
	movzx	ecx, WORD PTR [rax+64]
	call	x64_outportd

; 237  : 		printf ("Shutdown step1 complete\n");

	lea	rcx, OFFSET FLAT:$SG3592
	call	printf
$LN4@acpi_shutd:

; 238  : 	}
; 239  : 
; 240  : 	if (kern_acpi.fadt->pm1bCtrlBlock){

	mov	rax, QWORD PTR ?kern_acpi@@3U_aurora_acpi_@@A+9
	cmp	DWORD PTR [rax+68], 0
	je	SHORT $LN3@acpi_shutd

; 241  : 		printf ("[ACPI] pm1bCtrlBlock -> %x\n", kern_acpi.fadt->pm1bCtrlBlock);

	mov	rax, QWORD PTR ?kern_acpi@@3U_aurora_acpi_@@A+9
	mov	edx, DWORD PTR [rax+68]
	lea	rcx, OFFSET FLAT:$SG3594
	call	printf

; 242  : 		x64_outportd (kern_acpi.fadt->pm1bCtrlBlock,  (kern_acpi.slp_typb << 0) | SLP_EN);

	movzx	eax, WORD PTR ?kern_acpi@@3U_aurora_acpi_@@A+43
	bts	eax, 13
	mov	edx, eax
	mov	rax, QWORD PTR ?kern_acpi@@3U_aurora_acpi_@@A+9
	movzx	ecx, WORD PTR [rax+68]
	call	x64_outportd
$LN3@acpi_shutd:

; 243  : 	} 
; 244  : 
; 245  : 	printf ("\nShutdown step2 complete\n");

	lea	rcx, OFFSET FLAT:$SG3595
	call	printf

; 246  : 	printf ("[ACPI]: Shutdown failed\n");

	lea	rcx, OFFSET FLAT:$SG3596
	call	printf
$LN2@acpi_shutd:

; 247  : 	for(;;);

	jmp	SHORT $LN2@acpi_shutd

; 248  : }

	add	rsp, 40					; 00000028H
	ret	0
?acpi_shutdown@@YAXXZ ENDP				; acpi_shutdown
_TEXT	ENDS
; Function compile flags: /Odtpy
; File e:\xeneva project\xeneva\aurora\aurora\drivers\acpi\acpi.cpp
_TEXT	SEGMENT
l$ = 0
tv72 = 4
S5$ = 8
header$ = 32
?search_s5@@YAPEAEPEAUacpiDsdt@@@Z PROC			; search_s5

; 251  : uint8_t* search_s5 (acpiDsdt* header) {

$LN6:
	mov	QWORD PTR [rsp+8], rcx
	sub	rsp, 24

; 252  : 	uint32_t l;
; 253  : 	uint32_t* S5;
; 254  : 
; 255  : 	l = header->header.length - sizeof(acpiDsdt);

	mov	rax, QWORD PTR header$[rsp]
	mov	eax, DWORD PTR [rax+4]
	sub	rax, 36					; 00000024H
	mov	DWORD PTR l$[rsp], eax

; 256  : 	S5 = (uint32_t*)(header + sizeof(acpiDsdt));

	mov	rax, QWORD PTR header$[rsp]
	add	rax, 1296				; 00000510H
	mov	QWORD PTR S5$[rsp], rax
$LN3@search_s5:

; 257  : 	while(l--) {

	mov	eax, DWORD PTR l$[rsp]
	mov	DWORD PTR tv72[rsp], eax
	mov	eax, DWORD PTR l$[rsp]
	dec	eax
	mov	DWORD PTR l$[rsp], eax
	cmp	DWORD PTR tv72[rsp], 0
	je	SHORT $LN2@search_s5

; 258  : 		if (*S5 == (uint32_t)'_5S_') {

	mov	rax, QWORD PTR S5$[rsp]
	cmp	DWORD PTR [rax], 1597330271		; 5f35535fH
	jne	SHORT $LN1@search_s5

; 259  : 			return (uint8_t*)S5;

	mov	rax, QWORD PTR S5$[rsp]
	jmp	SHORT $LN4@search_s5
$LN1@search_s5:

; 260  : 		}
; 261  : 		S5 = (uint32_t*)((uint32_t)S5 + 1);

	mov	eax, DWORD PTR S5$[rsp]
	inc	eax
	mov	eax, eax
	mov	QWORD PTR S5$[rsp], rax

; 262  : 	}

	jmp	SHORT $LN3@search_s5
$LN2@search_s5:

; 263  : 
; 264  : 	return (uint8_t*)NULL;

	xor	eax, eax
$LN4@search_s5:

; 265  : }

	add	rsp, 24
	ret	0
?search_s5@@YAPEAEPEAUacpiDsdt@@@Z ENDP			; search_s5
_TEXT	ENDS
; Function compile flags: /Odtpy
; File e:\xeneva project\xeneva\aurora\aurora\drivers\acpi\acpi.cpp
_TEXT	SEGMENT
?acpi_system_reboot@@YAXXZ PROC				; acpi_system_reboot

; 227  : void acpi_system_reboot () {

$LN3:
	sub	rsp, 40					; 00000028H

; 228  : 	printf ("[ACPI]: Reset Address -> %x, Reset value -> %x\n", kern_acpi.fadt->resetReg.address, kern_acpi.fadt->resetValue);

	mov	rax, QWORD PTR ?kern_acpi@@3U_aurora_acpi_@@A+9
	movzx	eax, BYTE PTR [rax+127]
	mov	r8d, eax
	mov	rax, QWORD PTR ?kern_acpi@@3U_aurora_acpi_@@A+9
	mov	rdx, QWORD PTR [rax+119]
	lea	rcx, OFFSET FLAT:$SG3588
	call	printf

; 229  : 	x64_outportw (kern_acpi.fadt->resetReg.address, kern_acpi.fadt->resetValue);

	mov	rax, QWORD PTR ?kern_acpi@@3U_aurora_acpi_@@A+9
	movzx	eax, BYTE PTR [rax+127]
	movzx	edx, ax
	mov	rax, QWORD PTR ?kern_acpi@@3U_aurora_acpi_@@A+9
	movzx	ecx, WORD PTR [rax+119]
	call	x64_outportw

; 230  : }

	add	rsp, 40					; 00000028H
	ret	0
?acpi_system_reboot@@YAXXZ ENDP				; acpi_system_reboot
_TEXT	ENDS
; Function compile flags: /Odtpy
; File e:\xeneva project\xeneva\aurora\aurora\drivers\acpi\acpi.cpp
_TEXT	SEGMENT
tv73 = 32
apic_header$ = 40
lapic$1 = 48
io_apic$2 = 56
over$3 = 64
?acpi_parse_madt@@YAXXZ PROC				; acpi_parse_madt

; 195  : void acpi_parse_madt () {

$LN12:
	sub	rsp, 88					; 00000058H

; 196  : 	acpiApicHeader *apic_header = (acpiApicHeader*)kern_acpi.madt->entry;

	mov	rax, QWORD PTR ?kern_acpi@@3U_aurora_acpi_@@A+1
	add	rax, 44					; 0000002cH
	mov	QWORD PTR apic_header$[rsp], rax
$LN9@acpi_parse:

; 197  : 
; 198  : 	while (raw_diff(apic_header, kern_acpi.madt) < kern_acpi.madt->header.length) {

	mov	rdx, QWORD PTR ?kern_acpi@@3U_aurora_acpi_@@A+1
	mov	rcx, QWORD PTR apic_header$[rsp]
	call	??$raw_diff@U_acpi_apic_header_@@UacpiMadt@@@@YAHPEAU_acpi_apic_header_@@PEAUacpiMadt@@@Z ; raw_diff<_acpi_apic_header_,acpiMadt>
	mov	rcx, QWORD PTR ?kern_acpi@@3U_aurora_acpi_@@A+1
	cmp	eax, DWORD PTR [rcx+4]
	jae	$LN8@acpi_parse

; 199  : 		switch (apic_header->type) {

	mov	rax, QWORD PTR apic_header$[rsp]
	movzx	eax, BYTE PTR [rax]
	mov	BYTE PTR tv73[rsp], al
	cmp	BYTE PTR tv73[rsp], 0
	je	SHORT $LN5@acpi_parse
	cmp	BYTE PTR tv73[rsp], 1
	je	SHORT $LN3@acpi_parse
	cmp	BYTE PTR tv73[rsp], 2
	je	SHORT $LN2@acpi_parse
	jmp	$LN1@acpi_parse
$LN5@acpi_parse:

; 200  : 		case ACPI_APICTYPE_LAPIC: {
; 201  : 			acpiLocalApic *lapic = (acpiLocalApic*)apic_header;

	mov	rax, QWORD PTR apic_header$[rsp]
	mov	QWORD PTR lapic$1[rsp], rax

; 202  : 			printf ("[ACPI]: Madt entry -> LAPIC id -> %d, address -> %x\n", lapic->lapicId, lapic->procId);

	mov	rax, QWORD PTR lapic$1[rsp]
	movzx	eax, BYTE PTR [rax+2]
	mov	rcx, QWORD PTR lapic$1[rsp]
	movzx	ecx, BYTE PTR [rcx+3]
	mov	r8d, eax
	mov	edx, ecx
	lea	rcx, OFFSET FLAT:$SG3568
	call	printf

; 203  : 			if (lapic->procId != 0)

	mov	rax, QWORD PTR lapic$1[rsp]
	movzx	eax, BYTE PTR [rax+2]
	test	eax, eax
	je	SHORT $LN4@acpi_parse

; 204  : 				kern_acpi.num_cpu = lapic->procId;

	mov	rax, QWORD PTR lapic$1[rsp]
	movzx	eax, BYTE PTR [rax+2]
	mov	BYTE PTR ?kern_acpi@@3U_aurora_acpi_@@A+45, al
$LN4@acpi_parse:

; 205  : 			break;

	jmp	SHORT $LN6@acpi_parse
$LN3@acpi_parse:

; 206  : 		}							 
; 207  : 		case ACPI_APICTYPE_IOAPIC:{
; 208  : 			acpiIoApic *io_apic = (acpiIoApic*)apic_header;

	mov	rax, QWORD PTR apic_header$[rsp]
	mov	QWORD PTR io_apic$2[rsp], rax

; 209  : 			printf ("[ACPI]: Madt entry -> I/O APIC address -> %x, GSI -> %d\n",io_apic->ioApicAddr, io_apic->gsiBase );

	mov	rax, QWORD PTR io_apic$2[rsp]
	mov	r8d, DWORD PTR [rax+8]
	mov	rax, QWORD PTR io_apic$2[rsp]
	mov	edx, DWORD PTR [rax+4]
	lea	rcx, OFFSET FLAT:$SG3573
	call	printf

; 210  : 			break;

	jmp	SHORT $LN6@acpi_parse
$LN2@acpi_parse:

; 211  : 		}
; 212  : 		case ACPI_APICTYPE_ISOVER:{
; 213  : 			apic_interrupt_override* over = (apic_interrupt_override*)apic_header;

	mov	rax, QWORD PTR apic_header$[rsp]
	mov	QWORD PTR over$3[rsp], rax

; 214  : 			printf ("[ACPI]: Interrupt Source Override, GSI -> %d, SRC -> %d\n", over->interrupt, over->source);

	mov	rax, QWORD PTR over$3[rsp]
	movzx	eax, BYTE PTR [rax+3]
	mov	r8d, eax
	mov	rax, QWORD PTR over$3[rsp]
	mov	edx, DWORD PTR [rax+4]
	lea	rcx, OFFSET FLAT:$SG3577
	call	printf
$LN1@acpi_parse:
$LN6@acpi_parse:

; 215  : 			break;
; 216  : 		}
; 217  : 		default:{
; 218  : 			break;
; 219  : 		}
; 220  : 		}
; 221  : 
; 222  : 		apic_header = raw_offset <acpiApicHeader*>(apic_header, apic_header->length);

	mov	rax, QWORD PTR apic_header$[rsp]
	movzx	eax, BYTE PTR [rax+1]
	mov	edx, eax
	mov	rcx, QWORD PTR apic_header$[rsp]
	call	??$raw_offset@PEAU_acpi_apic_header_@@PEAU1@@@YAPEAU_acpi_apic_header_@@PEAU0@H@Z ; raw_offset<_acpi_apic_header_ * __ptr64,_acpi_apic_header_ * __ptr64>
	mov	QWORD PTR apic_header$[rsp], rax

; 223  : 	}

	jmp	$LN9@acpi_parse
$LN8@acpi_parse:

; 224  : }

	add	rsp, 88					; 00000058H
	ret	0
?acpi_parse_madt@@YAXXZ ENDP				; acpi_parse_madt
_TEXT	ENDS
; Function compile flags: /Odtpy
; File e:\xeneva project\xeneva\aurora\aurora\drivers\acpi\acpi.cpp
_TEXT	SEGMENT
S5Block$1 = 32
sig$ = 40
count$2 = 48
sub$3 = 56
allocs$4 = 64
mem_affinity$5 = 72
header$ = 80
tv163 = 88
srat$6 = 96
entries$ = 104
rsdt$ = 112
rsdp$ = 120
xsdt$ = 128
acpi_base$ = 160
?AuInitializeBasicAcpi@@YAXPEAX@Z PROC			; AuInitializeBasicAcpi

; 75   : void AuInitializeBasicAcpi (void* acpi_base) {

$LN39:
	mov	QWORD PTR [rsp+8], rcx
	sub	rsp, 152				; 00000098H

; 76   : 	memset (&kern_acpi, 0, sizeof(aurora_acpi));

	mov	r8d, 46					; 0000002eH
	xor	edx, edx
	lea	rcx, OFFSET FLAT:?kern_acpi@@3U_aurora_acpi_@@A ; kern_acpi
	call	memset

; 77   : 	acpiRsdp *rsdp = (acpiRsdp*)acpi_base;

	mov	rax, QWORD PTR acpi_base$[rsp]
	mov	QWORD PTR rsdp$[rsp], rax

; 78   : 	acpiRsdt *rsdt = (acpiRsdt*)rsdp->rsdtAddr;

	mov	rax, QWORD PTR rsdp$[rsp]
	mov	eax, DWORD PTR [rax+16]
	mov	QWORD PTR rsdt$[rsp], rax

; 79   : 	acpiXsdt *xsdt = (acpiXsdt*)rsdp->xsdtAddr;

	mov	rax, QWORD PTR rsdp$[rsp]
	mov	rax, QWORD PTR [rax+24]
	mov	QWORD PTR xsdt$[rsp], rax

; 80   : 	char sig[5];
; 81   : 	int entries = (rsdt->header.length - sizeof(rsdt->header))/4;

	mov	rax, QWORD PTR rsdt$[rsp]
	mov	eax, DWORD PTR [rax+4]
	sub	rax, 36					; 00000024H
	xor	edx, edx
	mov	ecx, 4
	div	rcx
	mov	DWORD PTR entries$[rsp], eax

; 82   : 	acpiSysDescHeader* header = nullptr;

	mov	QWORD PTR header$[rsp], 0

; 83   : 
; 84   : 	for (int count = 0; count < entries; count++) {

	mov	DWORD PTR count$2[rsp], 0
	jmp	SHORT $LN35@AuInitiali
$LN34@AuInitiali:
	mov	eax, DWORD PTR count$2[rsp]
	inc	eax
	mov	DWORD PTR count$2[rsp], eax
$LN35@AuInitiali:
	mov	eax, DWORD PTR entries$[rsp]
	cmp	DWORD PTR count$2[rsp], eax
	jge	$LN33@AuInitiali

; 85   : 		header = (acpiSysDescHeader*)rsdt->entry[count];

	movsxd	rax, DWORD PTR count$2[rsp]
	mov	rcx, QWORD PTR rsdt$[rsp]
	mov	eax, DWORD PTR [rcx+rax*4+36]
	mov	QWORD PTR header$[rsp], rax

; 86   : 		strncpy (sig, header->signature, 4);

	mov	rax, QWORD PTR header$[rsp]
	mov	r8d, 4
	mov	rdx, rax
	lea	rcx, QWORD PTR sig$[rsp]
	call	strncpy

; 87   : 		sig[4] = '\0';

	mov	eax, 1
	imul	rax, 4
	mov	BYTE PTR sig$[rsp+rax], 0

; 88   : 
; 89   : 		if (!strncmp(sig, ACPI_SIG_FADT, strlen(ACPI_SIG_FADT))) {

	lea	rcx, OFFSET FLAT:$SG3438
	call	strlen
	mov	r8, rax
	lea	rdx, OFFSET FLAT:$SG3439
	lea	rcx, QWORD PTR sig$[rsp]
	call	strncmp
	test	eax, eax
	jne	SHORT $LN32@AuInitiali

; 90   : 			kern_acpi.fadt = (acpiFadt*) header;

	mov	rax, QWORD PTR header$[rsp]
	mov	QWORD PTR ?kern_acpi@@3U_aurora_acpi_@@A+9, rax

; 91   : 			printf ("[ACPI]: Fadt table found\n");

	lea	rcx, OFFSET FLAT:$SG3441
	call	printf
	jmp	$LN31@AuInitiali
$LN32@AuInitiali:

; 92   : 		}
; 93   : 		 
; 94   : 		else if (!strncmp(sig, ACPI_SIG_APIC, strlen("CIPA"))) {

	lea	rcx, OFFSET FLAT:$SG3444
	call	strlen
	mov	r8, rax
	lea	rdx, OFFSET FLAT:$SG3445
	lea	rcx, QWORD PTR sig$[rsp]
	call	strncmp
	test	eax, eax
	jne	SHORT $LN30@AuInitiali

; 95   : 			kern_acpi.madt = (acpiMadt*) header;

	mov	rax, QWORD PTR header$[rsp]
	mov	QWORD PTR ?kern_acpi@@3U_aurora_acpi_@@A+1, rax

; 96   : 			printf ("[ACPI]: Madt table found\n");

	lea	rcx, OFFSET FLAT:$SG3447
	call	printf

; 97   : 			acpi_parse_madt ();

	call	?acpi_parse_madt@@YAXXZ			; acpi_parse_madt
	jmp	$LN29@AuInitiali
$LN30@AuInitiali:

; 98   : 		}
; 99   : 
; 100  : 		else if (!strncmp(sig, ACPI_SIG_SRAT, strlen(ACPI_SIG_SRAT))) {

	lea	rcx, OFFSET FLAT:$SG3450
	call	strlen
	mov	r8, rax
	lea	rdx, OFFSET FLAT:$SG3451
	lea	rcx, QWORD PTR sig$[rsp]
	call	strncmp
	test	eax, eax
	jne	$LN28@AuInitiali

; 101  : 			printf ("[ACPI]: Srat table found\n");

	lea	rcx, OFFSET FLAT:$SG3452
	call	printf

; 102  : 			acpi_table_srat_xe* srat = (acpi_table_srat_xe*)header;

	mov	rax, QWORD PTR header$[rsp]
	mov	QWORD PTR srat$6[rsp], rax

; 103  : 			printf ("[ACPI]: Srat -> %d length -> %d\n", srat->Header.revision, srat->Header.length);

	mov	rax, QWORD PTR srat$6[rsp]
	movzx	eax, BYTE PTR [rax+8]
	mov	rcx, QWORD PTR srat$6[rsp]
	mov	r8d, DWORD PTR [rcx+4]
	mov	edx, eax
	lea	rcx, OFFSET FLAT:$SG3455
	call	printf

; 104  : 			acpi_sub_table *sub = (acpi_sub_table*)&srat[1];

	mov	eax, 48					; 00000030H
	imul	rax, 1
	mov	rcx, QWORD PTR srat$6[rsp]
	add	rcx, rax
	mov	rax, rcx
	mov	QWORD PTR sub$3[rsp], rax
$LN27@AuInitiali:

; 105  : 			while (raw_diff(sub,srat) < srat->Header.length) {

	mov	rdx, QWORD PTR srat$6[rsp]
	mov	rcx, QWORD PTR sub$3[rsp]
	call	??$raw_diff@U_acpi_sub_tab_@@U_acpi_table_srat_x_@@@@YAHPEAU_acpi_sub_tab_@@PEAU_acpi_table_srat_x_@@@Z ; raw_diff<_acpi_sub_tab_,_acpi_table_srat_x_>
	mov	rcx, QWORD PTR srat$6[rsp]
	cmp	eax, DWORD PTR [rcx+4]
	jae	$LN26@AuInitiali

; 106  : 				switch (sub->type) {

	mov	rax, QWORD PTR sub$3[rsp]
	movzx	eax, BYTE PTR [rax]
	mov	DWORD PTR tv163[rsp], eax
	cmp	DWORD PTR tv163[rsp], 6
	ja	$LN24@AuInitiali
	movsxd	rax, DWORD PTR tv163[rsp]
	lea	rcx, OFFSET FLAT:__ImageBase
	mov	eax, DWORD PTR $LN38@AuInitiali[rcx+rax*4]
	add	rax, rcx
	jmp	rax
$LN23@AuInitiali:

; 107  : 				case acpi_srat_type_memory_affinity: {
; 108  : 					printf ("[ACPI]: Srat memory affinity found \n");

	lea	rcx, OFFSET FLAT:$SG3472
	call	printf

; 109  : 					acpi_srat_mem_affinity *mem_affinity = (acpi_srat_mem_affinity*)sub;

	mov	rax, QWORD PTR sub$3[rsp]
	mov	QWORD PTR mem_affinity$5[rsp], rax

; 110  : 					printf ("Mem start -> %x \n", mem_affinity->base_address);

	mov	rax, QWORD PTR mem_affinity$5[rsp]
	mov	rdx, QWORD PTR [rax+8]
	lea	rcx, OFFSET FLAT:$SG3475
	call	printf

; 111  : 					printf ("Mem end -> %x \n", (mem_affinity->base_address + mem_affinity->length)*4096);

	mov	rax, QWORD PTR mem_affinity$5[rsp]
	mov	rax, QWORD PTR [rax+8]
	mov	rcx, QWORD PTR mem_affinity$5[rsp]
	add	rax, QWORD PTR [rcx+16]
	imul	rax, 4096				; 00001000H
	mov	rdx, rax
	lea	rcx, OFFSET FLAT:$SG3476
	call	printf

; 112  : 					printf ("Mem Length -> %d MB \n", (mem_affinity->length / 1024 / 1024));

	xor	edx, edx
	mov	rax, QWORD PTR mem_affinity$5[rsp]
	mov	rax, QWORD PTR [rax+16]
	mov	ecx, 1024				; 00000400H
	div	rcx
	xor	edx, edx
	mov	ecx, 1024				; 00000400H
	div	rcx
	mov	rdx, rax
	lea	rcx, OFFSET FLAT:$SG3477
	call	printf

; 113  : 					printf ("Numa Domain -> %d \n", mem_affinity->proximity_domain);

	mov	rax, QWORD PTR mem_affinity$5[rsp]
	mov	edx, DWORD PTR [rax+2]
	lea	rcx, OFFSET FLAT:$SG3478
	call	printf

; 114  : 					printf ("Mem LLength -> %d\n", mem_affinity->header.length);

	mov	rax, QWORD PTR mem_affinity$5[rsp]
	movzx	eax, BYTE PTR [rax+1]
	mov	edx, eax
	lea	rcx, OFFSET FLAT:$SG3479
	call	printf

; 115  : 					break;

	jmp	SHORT $LN24@AuInitiali
$LN22@AuInitiali:

; 116  : 				}case acpi_srat_type_cpu_affinity:
; 117  : 					printf ("[ACPI]: Srat cpu affinity found \n");

	lea	rcx, OFFSET FLAT:$SG3481
	call	printf

; 118  : 					break;

	jmp	SHORT $LN24@AuInitiali
$LN21@AuInitiali:

; 119  : 				case acpi_srat_type_generic_affinity:
; 120  : 					printf ("[ACPI]: Generic affinity found \n");

	lea	rcx, OFFSET FLAT:$SG3483
	call	printf

; 121  : 					break;

	jmp	SHORT $LN24@AuInitiali
$LN20@AuInitiali:

; 122  : 				case acpi_srat_type_gicc_affinity:
; 123  : 					printf ("[ACPI]: GICC affinity found \n");

	lea	rcx, OFFSET FLAT:$SG3485
	call	printf

; 124  : 					break;

	jmp	SHORT $LN24@AuInitiali
$LN19@AuInitiali:

; 125  : 				case acpi_srat_type_gic_its_affinity:
; 126  : 					printf ("[ACPI]: GIC ITS Affinity found \n");

	lea	rcx, OFFSET FLAT:$SG3487
	call	printf

; 127  : 					break;

	jmp	SHORT $LN24@AuInitiali
$LN18@AuInitiali:

; 128  : 				case acpi_srat_type_x2apic_cpu_affinity:
; 129  : 					printf ("[ACPI]: X2APIC CPU Affinity found \n");

	lea	rcx, OFFSET FLAT:$SG3489
	call	printf

; 130  : 					break;

	jmp	SHORT $LN24@AuInitiali
$LN17@AuInitiali:

; 131  : 				case acpi_srat_type_reserved:
; 132  : 					printf ("[ACPI]: Srat type reserved \n");

	lea	rcx, OFFSET FLAT:$SG3491
	call	printf
$LN24@AuInitiali:

; 133  : 					break;
; 134  : 				}
; 135  : 				sub = raw_offset<acpi_sub_table*>(sub, sub->length);					

	mov	rax, QWORD PTR sub$3[rsp]
	movzx	eax, BYTE PTR [rax+1]
	mov	edx, eax
	mov	rcx, QWORD PTR sub$3[rsp]
	call	??$raw_offset@PEAU_acpi_sub_tab_@@PEAU1@@@YAPEAU_acpi_sub_tab_@@PEAU0@H@Z ; raw_offset<_acpi_sub_tab_ * __ptr64,_acpi_sub_tab_ * __ptr64>
	mov	QWORD PTR sub$3[rsp], rax

; 136  : 			}

	jmp	$LN27@AuInitiali
$LN26@AuInitiali:

; 137  : 		}
; 138  : 
; 139  : 		else if (!strncmp(sig, ACPI_SIG_SLIT, strlen(ACPI_SIG_SLIT))) {

	jmp	$LN16@AuInitiali
$LN28@AuInitiali:
	lea	rcx, OFFSET FLAT:$SG3501
	call	strlen
	mov	r8, rax
	lea	rdx, OFFSET FLAT:$SG3502
	lea	rcx, QWORD PTR sig$[rsp]
	call	strncmp
	test	eax, eax
	jne	SHORT $LN15@AuInitiali

; 140  : 			printf ("[ACPI]: Slit table found \n");

	lea	rcx, OFFSET FLAT:$SG3503
	call	printf
	jmp	$LN14@AuInitiali
$LN15@AuInitiali:

; 141  : 		}
; 142  : 		else if (!strncmp(sig, ACPI_SIG_MCFG, strlen(ACPI_SIG_MCFG))) {

	lea	rcx, OFFSET FLAT:$SG3506
	call	strlen
	mov	r8, rax
	lea	rdx, OFFSET FLAT:$SG3507
	lea	rcx, QWORD PTR sig$[rsp]
	call	strncmp
	test	eax, eax
	jne	SHORT $LN13@AuInitiali

; 143  : 			//printf ("[ACPI]: Mcfg table found\n");
; 144  : 			kern_acpi.mcfg = (acpiMcfg*) header;

	mov	rax, QWORD PTR header$[rsp]
	mov	QWORD PTR ?kern_acpi@@3U_aurora_acpi_@@A+33, rax

; 145  : 			acpiMcfgAlloc *allocs = mem_after<acpiMcfgAlloc*>(kern_acpi.mcfg);

	mov	rcx, QWORD PTR ?kern_acpi@@3U_aurora_acpi_@@A+33
	call	??$mem_after@PEAUacpiMcfgAlloc@@UacpiMcfg@@@@YAPEAUacpiMcfgAlloc@@PEAUacpiMcfg@@@Z ; mem_after<acpiMcfgAlloc * __ptr64,acpiMcfg>
	mov	QWORD PTR allocs$4[rsp], rax

; 146  : 			for (; raw_diff(allocs, kern_acpi.mcfg) < kern_acpi.mcfg->header.length; ++allocs) {

	jmp	SHORT $LN12@AuInitiali
$LN11@AuInitiali:
	mov	rax, QWORD PTR allocs$4[rsp]
	add	rax, 16
	mov	QWORD PTR allocs$4[rsp], rax
$LN12@AuInitiali:
	mov	rdx, QWORD PTR ?kern_acpi@@3U_aurora_acpi_@@A+33
	mov	rcx, QWORD PTR allocs$4[rsp]
	call	??$raw_diff@UacpiMcfgAlloc@@UacpiMcfg@@@@YAHPEAUacpiMcfgAlloc@@PEAUacpiMcfg@@@Z ; raw_diff<acpiMcfgAlloc,acpiMcfg>
	mov	rcx, QWORD PTR ?kern_acpi@@3U_aurora_acpi_@@A+33
	cmp	eax, DWORD PTR [rcx+4]
	jae	SHORT $LN10@AuInitiali

; 147  : 				printf ("PCIe Start bus num -> %d, End bus num -> %d, base address-> %x\n", allocs->startBusNum, allocs->endBusNum,
; 148  : 					allocs->baseAddress);

	mov	rax, QWORD PTR allocs$4[rsp]
	movzx	eax, BYTE PTR [rax+11]
	mov	rcx, QWORD PTR allocs$4[rsp]
	movzx	ecx, BYTE PTR [rcx+10]
	mov	rdx, QWORD PTR allocs$4[rsp]
	mov	r9, QWORD PTR [rdx]
	mov	r8d, eax
	mov	edx, ecx
	lea	rcx, OFFSET FLAT:$SG3525
	call	printf

; 149  : 			}

	jmp	SHORT $LN11@AuInitiali
$LN10@AuInitiali:

; 150  : 		}
; 151  : 		else if (!strncmp(sig, ACPI_SIG_HPET, strlen(ACPI_SIG_HPET))) {

	jmp	SHORT $LN9@AuInitiali
$LN13@AuInitiali:
	lea	rcx, OFFSET FLAT:$SG3528
	call	strlen
	mov	r8, rax
	lea	rdx, OFFSET FLAT:$SG3529
	lea	rcx, QWORD PTR sig$[rsp]
	call	strncmp
	test	eax, eax
	jne	SHORT $LN8@AuInitiali

; 152  : 			printf ("[ACPI]: HPET table found\n");

	lea	rcx, OFFSET FLAT:$SG3530
	call	printf
	jmp	SHORT $LN7@AuInitiali
$LN8@AuInitiali:

; 153  : 		}
; 154  : 		else if (!strncmp(sig, ACPI_SIG_MCHI, strlen(ACPI_SIG_MCHI))) {

	lea	rcx, OFFSET FLAT:$SG3533
	call	strlen
	mov	r8, rax
	lea	rdx, OFFSET FLAT:$SG3534
	lea	rcx, QWORD PTR sig$[rsp]
	call	strncmp
	test	eax, eax
	jne	SHORT $LN6@AuInitiali

; 155  : 			printf ("[ACPI]: Management Controller Host Interface Table\n");

	lea	rcx, OFFSET FLAT:$SG3535
	call	printf
$LN6@AuInitiali:
$LN7@AuInitiali:
$LN9@AuInitiali:
$LN14@AuInitiali:
$LN16@AuInitiali:
$LN29@AuInitiali:
$LN31@AuInitiali:

; 156  : 		}
; 157  : 
; 158  : 	}

	jmp	$LN34@AuInitiali
$LN33@AuInitiali:

; 159  : 
; 160  : 	if (kern_acpi.fadt && kern_acpi.fadt->facsAddr) {

	cmp	QWORD PTR ?kern_acpi@@3U_aurora_acpi_@@A+9, 0
	je	SHORT $LN5@AuInitiali
	mov	rax, QWORD PTR ?kern_acpi@@3U_aurora_acpi_@@A+9
	cmp	DWORD PTR [rax+36], 0
	je	SHORT $LN5@AuInitiali

; 161  : 
; 162  : 		kern_acpi.facs = (acpiFacs*)kern_acpi.fadt->facsAddr;

	mov	rax, QWORD PTR ?kern_acpi@@3U_aurora_acpi_@@A+9
	mov	eax, DWORD PTR [rax+36]
	mov	QWORD PTR ?kern_acpi@@3U_aurora_acpi_@@A+17, rax
$LN5@AuInitiali:

; 163  : 
; 164  : 	}
; 165  : 
; 166  : 	if (kern_acpi.fadt && kern_acpi.fadt->dsdtAddr) {

	cmp	QWORD PTR ?kern_acpi@@3U_aurora_acpi_@@A+9, 0
	je	$LN4@AuInitiali
	mov	rax, QWORD PTR ?kern_acpi@@3U_aurora_acpi_@@A+9
	cmp	DWORD PTR [rax+40], 0
	je	$LN4@AuInitiali

; 167  : 
; 168  : 		kern_acpi.dsdt = (acpiDsdt*)kern_acpi.fadt->dsdtAddr;

	mov	rax, QWORD PTR ?kern_acpi@@3U_aurora_acpi_@@A+9
	mov	eax, DWORD PTR [rax+40]
	mov	QWORD PTR ?kern_acpi@@3U_aurora_acpi_@@A+25, rax

; 169  : 		printf ("[ACPI]: Dsdt found -> %x\n", kern_acpi.dsdt);

	mov	rdx, QWORD PTR ?kern_acpi@@3U_aurora_acpi_@@A+25
	lea	rcx, OFFSET FLAT:$SG3540
	call	printf

; 170  : 		printf ("[ACPI]: Sci Interrupt -> %d\n", kern_acpi.fadt->sciInt);

	mov	rax, QWORD PTR ?kern_acpi@@3U_aurora_acpi_@@A+9
	movzx	eax, WORD PTR [rax+46]
	mov	edx, eax
	lea	rcx, OFFSET FLAT:$SG3541
	call	printf

; 171  : 		AuInterruptSet(kern_acpi.fadt->sciInt,fadt_handler, kern_acpi.fadt->sciInt);

	mov	rax, QWORD PTR ?kern_acpi@@3U_aurora_acpi_@@A+9
	movzx	eax, WORD PTR [rax+46]
	mov	rcx, QWORD PTR ?kern_acpi@@3U_aurora_acpi_@@A+9
	movzx	r8d, BYTE PTR [rcx+46]
	lea	rdx, OFFSET FLAT:?fadt_handler@@YAX_KPEAX@Z ; fadt_handler
	mov	ecx, eax
	call	AuInterruptSet

; 172  : 		uint8_t* S5Block = search_s5(kern_acpi.dsdt);

	mov	rcx, QWORD PTR ?kern_acpi@@3U_aurora_acpi_@@A+25
	call	?search_s5@@YAPEAEPEAUacpiDsdt@@@Z	; search_s5
	mov	QWORD PTR S5Block$1[rsp], rax

; 173  : 		if (S5Block != NULL) {

	cmp	QWORD PTR S5Block$1[rsp], 0
	je	$LN3@AuInitiali

; 174  : 			printf ("S5Block found\n");

	lea	rcx, OFFSET FLAT:$SG3544
	call	printf

; 175  : 			S5Block += 4;

	mov	rax, QWORD PTR S5Block$1[rsp]
	add	rax, 4
	mov	QWORD PTR S5Block$1[rsp], rax

; 176  : 			S5Block += ((*S5Block & 0xC0) >> 6) + 2;

	mov	rax, QWORD PTR S5Block$1[rsp]
	movzx	eax, BYTE PTR [rax]
	and	eax, 192				; 000000c0H
	sar	eax, 6
	add	eax, 2
	cdqe
	mov	rcx, QWORD PTR S5Block$1[rsp]
	add	rcx, rax
	mov	rax, rcx
	mov	QWORD PTR S5Block$1[rsp], rax

; 177  : 			
; 178  : 			if (*S5Block == 0x0A)

	mov	rax, QWORD PTR S5Block$1[rsp]
	movzx	eax, BYTE PTR [rax]
	cmp	eax, 10
	jne	SHORT $LN2@AuInitiali

; 179  : 				S5Block++;

	mov	rax, QWORD PTR S5Block$1[rsp]
	inc	rax
	mov	QWORD PTR S5Block$1[rsp], rax
$LN2@AuInitiali:

; 180  : 			kern_acpi.slp_typa = *S5Block;

	mov	rax, QWORD PTR S5Block$1[rsp]
	movzx	eax, BYTE PTR [rax]
	mov	WORD PTR ?kern_acpi@@3U_aurora_acpi_@@A+41, ax

; 181  : 			S5Block++;

	mov	rax, QWORD PTR S5Block$1[rsp]
	inc	rax
	mov	QWORD PTR S5Block$1[rsp], rax

; 182  : 
; 183  : 			if ( *S5Block == 0x0A)

	mov	rax, QWORD PTR S5Block$1[rsp]
	movzx	eax, BYTE PTR [rax]
	cmp	eax, 10
	jne	SHORT $LN1@AuInitiali

; 184  : 				S5Block++;

	mov	rax, QWORD PTR S5Block$1[rsp]
	inc	rax
	mov	QWORD PTR S5Block$1[rsp], rax
$LN1@AuInitiali:

; 185  : 
; 186  : 			kern_acpi.slp_typb = *S5Block;

	mov	rax, QWORD PTR S5Block$1[rsp]
	movzx	eax, BYTE PTR [rax]
	mov	WORD PTR ?kern_acpi@@3U_aurora_acpi_@@A+43, ax

; 187  : 			printf ("[ACPI]: SLP_typA -> %x, SLP_typB -> %x\n", kern_acpi.slp_typa, kern_acpi.slp_typb);

	movzx	eax, WORD PTR ?kern_acpi@@3U_aurora_acpi_@@A+43
	movzx	ecx, WORD PTR ?kern_acpi@@3U_aurora_acpi_@@A+41
	mov	r8d, eax
	mov	edx, ecx
	lea	rcx, OFFSET FLAT:$SG3547
	call	printf
$LN3@AuInitiali:
$LN4@AuInitiali:

; 188  : 		}
; 189  : 	}
; 190  : 	acpi_enable ();

	call	?acpi_enable@@YAXXZ			; acpi_enable

; 191  : }

	add	rsp, 152				; 00000098H
	ret	0
	npad	2
$LN38@AuInitiali:
	DD	$LN22@AuInitiali
	DD	$LN23@AuInitiali
	DD	$LN18@AuInitiali
	DD	$LN20@AuInitiali
	DD	$LN19@AuInitiali
	DD	$LN21@AuInitiali
	DD	$LN17@AuInitiali
?AuInitializeBasicAcpi@@YAXPEAX@Z ENDP			; AuInitializeBasicAcpi
_TEXT	ENDS
END
