; Listing generated by Microsoft (R) Optimizing Compiler Version 17.00.50727.1 

include listing.inc

INCLUDELIB LIBCMT
INCLUDELIB OLDNAMES

PUBLIC	?kern_acpi@@3U_aurora_acpi_@@A			; kern_acpi
PUBLIC	?pcie_support@@3_NA				; pcie_support
_BSS	SEGMENT
?kern_acpi@@3U_aurora_acpi_@@A DB 02eH DUP (?)		; kern_acpi
	ALIGN	4

?pcie_support@@3_NA DB 01H DUP (?)			; pcie_support
_BSS	ENDS
CONST	SEGMENT
$SG3509	DB	'[ACPI]: data structures are incomplete', 0aH, 00H
$SG3512	DB	'[ACPI]: Already enabled', 0aH, 00H
	ORG $+7
$SG3514	DB	'PM1aCTRLBlock -> %x', 0aH, 00H
	ORG $+3
$SG3516	DB	'[ACPI]: Enabled successfully', 0aH, 00H
	ORG $+2
$SG3518	DB	'[ACPI]: Verifying pm1bCtrlBlock ', 0aH, 00H
	ORG $+6
$SG3521	DB	'[ACPI]: Enabled successfully', 0aH, 00H
	ORG $+2
$SG3526	DB	'[ACPI]: Fadt interrupt fired', 0aH, 00H
	ORG $+2
$SG3546	DB	'FACP', 00H
	ORG $+3
$SG3547	DB	'FACP', 00H
	ORG $+3
$SG3549	DB	'[ACPI]: Fadt table found', 0aH, 00H
	ORG $+2
$SG3552	DB	'CIPA', 00H
	ORG $+3
$SG3553	DB	'APIC', 00H
	ORG $+7
$SG3555	DB	'[ACPI]: Madt table found', 0aH, 00H
	ORG $+2
$SG3558	DB	'SRAT', 00H
	ORG $+3
$SG3559	DB	'SRAT', 00H
	ORG $+7
$SG3560	DB	'[ACPI]: Srat table found', 0aH, 00H
	ORG $+6
$SG3563	DB	'[ACPI]: Srat -> %d length -> %d', 0aH, 00H
	ORG $+7
$SG3584	DB	'[ACPI]: Generic affinity found ', 0aH, 00H
	ORG $+7
$SG3586	DB	'[ACPI]: GICC affinity found ', 0aH, 00H
	ORG $+2
$SG3588	DB	'[ACPI]: GIC ITS Affinity found ', 0aH, 00H
	ORG $+7
$SG3590	DB	'[ACPI]: X2APIC CPU Affinity found ', 0aH, 00H
	ORG $+4
$SG3592	DB	'[ACPI]: Srat type reserved ', 0aH, 00H
	ORG $+3
$SG3602	DB	'SLIT', 00H
	ORG $+3
$SG3603	DB	'SLIT', 00H
	ORG $+3
$SG3604	DB	'[ACPI]: Slit table found ', 0aH, 00H
	ORG $+1
$SG3607	DB	'MCFG', 00H
	ORG $+3
$SG3608	DB	'MCFG', 00H
	ORG $+7
$SG3618	DB	'PCIe Segment -> %d ', 0aH, 00H
	ORG $+3
$SG3617	DB	'PCIe Start bus num -> %d, End bus num -> %d, base addres'
	DB	's-> %x', 0aH, 00H
$SG3621	DB	'HPET', 00H
	ORG $+3
$SG3622	DB	'HPET', 00H
	ORG $+3
$SG3623	DB	'[ACPI]: HPET table found', 0aH, 00H
	ORG $+2
$SG3626	DB	'MCHI', 00H
	ORG $+3
$SG3627	DB	'MCHI', 00H
	ORG $+7
$SG3628	DB	'[ACPI]: Management Controller Host Interface Table', 0aH
	DB	00H
	ORG $+4
$SG3633	DB	'[ACPI]: Dsdt found -> %x', 0aH, 00H
	ORG $+6
$SG3634	DB	'[ACPI]: Sci Interrupt -> %d', 0aH, 00H
	ORG $+3
$SG3637	DB	'S5Block found', 0aH, 00H
	ORG $+1
$SG3640	DB	'[ACPI]: SLP_typA -> %x, SLP_typB -> %x', 0aH, 00H
$SG3661	DB	'[ACPI]: Madt entry -> LAPIC id -> %d, address -> %x', 0aH
	DB	00H
	ORG $+3
$SG3666	DB	'[ACPI]: Madt entry -> I/O APIC address -> %x, GSI -> %d', 0aH
	DB	00H
	ORG $+7
$SG3670	DB	'[ACPI]: Interrupt Source Override, GSI -> %d, SRC -> %d', 0aH
	DB	00H
	ORG $+7
$SG3681	DB	'[ACPI]: Reset Address -> %x, Reset value -> %x', 0aH, 00H
$SG3685	DB	'Shutdown step1 complete', 0aH, 00H
	ORG $+7
$SG3687	DB	'[ACPI] pm1bCtrlBlock -> %x', 0aH, 00H
	ORG $+4
$SG3688	DB	0aH, 'Shutdown step2 complete', 0aH, 00H
	ORG $+6
$SG3689	DB	'[ACPI]: Shutdown failed', 0aH, 00H
CONST	ENDS
PUBLIC	?AuInitializeBasicAcpi@@YAXPEAX@Z		; AuInitializeBasicAcpi
PUBLIC	?acpi_parse_madt@@YAXXZ				; acpi_parse_madt
PUBLIC	?acpi_system_reboot@@YAXXZ			; acpi_system_reboot
PUBLIC	?search_s5@@YAPEAEPEAUacpiDsdt@@@Z		; search_s5
PUBLIC	?acpi_shutdown@@YAXXZ				; acpi_shutdown
PUBLIC	?acpi_pcie_supported@@YA_NXZ			; acpi_pcie_supported
PUBLIC	?acpi_get_mcfg@@YAPEAUacpiMcfg@@XZ		; acpi_get_mcfg
PUBLIC	?AuGetNumCPU@@YAEXZ				; AuGetNumCPU
PUBLIC	?acpi_power_button_enable@@YAXXZ		; acpi_power_button_enable
PUBLIC	?acpi_enable@@YAXXZ				; acpi_enable
PUBLIC	?fadt_handler@@YAX_KPEAX@Z			; fadt_handler
PUBLIC	??$raw_diff@U_acpi_sub_tab_@@U_acpi_table_srat_x_@@@@YAHPEAU_acpi_sub_tab_@@PEAU_acpi_table_srat_x_@@@Z ; raw_diff<_acpi_sub_tab_,_acpi_table_srat_x_>
PUBLIC	??$raw_offset@PEAU_acpi_sub_tab_@@PEAU1@@@YAPEAU_acpi_sub_tab_@@PEAU0@H@Z ; raw_offset<_acpi_sub_tab_ * __ptr64,_acpi_sub_tab_ * __ptr64>
PUBLIC	??$mem_after@PEAUacpiMcfgAlloc@@UacpiMcfg@@@@YAPEAUacpiMcfgAlloc@@PEAUacpiMcfg@@@Z ; mem_after<acpiMcfgAlloc * __ptr64,acpiMcfg>
PUBLIC	??$raw_diff@U_acpi_apic_header_@@UacpiMadt@@@@YAHPEAU_acpi_apic_header_@@PEAUacpiMadt@@@Z ; raw_diff<_acpi_apic_header_,acpiMadt>
PUBLIC	??$raw_offset@PEAU_acpi_apic_header_@@PEAU1@@@YAPEAU_acpi_apic_header_@@PEAU0@H@Z ; raw_offset<_acpi_apic_header_ * __ptr64,_acpi_apic_header_ * __ptr64>
EXTRN	x64_cli:PROC
EXTRN	x64_inportw:PROC
EXTRN	x64_outportb:PROC
EXTRN	x64_outportw:PROC
EXTRN	x64_outportd:PROC
EXTRN	strlen:PROC
EXTRN	strncmp:PROC
EXTRN	strncpy:PROC
EXTRN	memset:PROC
EXTRN	printf:PROC
EXTRN	AuInterruptEnd:PROC
EXTRN	AuInterruptSet:PROC
EXTRN	__ImageBase:BYTE
pdata	SEGMENT
$pdata$?AuInitializeBasicAcpi@@YAXPEAX@Z DD imagerel $LN36
	DD	imagerel $LN36+1384
	DD	imagerel $unwind$?AuInitializeBasicAcpi@@YAXPEAX@Z
$pdata$?acpi_parse_madt@@YAXXZ DD imagerel $LN12
	DD	imagerel $LN12+285
	DD	imagerel $unwind$?acpi_parse_madt@@YAXXZ
$pdata$?acpi_system_reboot@@YAXXZ DD imagerel $LN3
	DD	imagerel $LN3+76
	DD	imagerel $unwind$?acpi_system_reboot@@YAXXZ
$pdata$?search_s5@@YAPEAEPEAUacpiDsdt@@@Z DD imagerel $LN6
	DD	imagerel $LN6+104
	DD	imagerel $unwind$?search_s5@@YAPEAEPEAUacpiDsdt@@@Z
$pdata$?acpi_shutdown@@YAXXZ DD imagerel $LN7
	DD	imagerel $LN7+176
	DD	imagerel $unwind$?acpi_shutdown@@YAXXZ
$pdata$?acpi_power_button_enable@@YAXXZ DD imagerel $LN3
	DD	imagerel $LN3+109
	DD	imagerel $unwind$?acpi_power_button_enable@@YAXXZ
$pdata$?acpi_enable@@YAXXZ DD imagerel $LN9
	DD	imagerel $LN9+271
	DD	imagerel $unwind$?acpi_enable@@YAXXZ
$pdata$?fadt_handler@@YAX_KPEAX@Z DD imagerel $LN3
	DD	imagerel $LN3+41
	DD	imagerel $unwind$?fadt_handler@@YAX_KPEAX@Z
pdata	ENDS
xdata	SEGMENT
$unwind$?AuInitializeBasicAcpi@@YAXPEAX@Z DD 020c01H
	DD	011010cH
$unwind$?acpi_parse_madt@@YAXXZ DD 010401H
	DD	0a204H
$unwind$?acpi_system_reboot@@YAXXZ DD 010401H
	DD	04204H
$unwind$?search_s5@@YAPEAEPEAUacpiDsdt@@@Z DD 010901H
	DD	02209H
$unwind$?acpi_shutdown@@YAXXZ DD 010401H
	DD	04204H
$unwind$?acpi_power_button_enable@@YAXXZ DD 010401H
	DD	04204H
$unwind$?acpi_enable@@YAXXZ DD 010401H
	DD	06204H
$unwind$?fadt_handler@@YAX_KPEAX@Z DD 010e01H
	DD	0420eH
xdata	ENDS
; Function compile flags: /Odtpy
; File e:\xeneva project\xeneva\aurora\include\stdint.h
;	COMDAT ??$raw_offset@PEAU_acpi_apic_header_@@PEAU1@@@YAPEAU_acpi_apic_header_@@PEAU0@H@Z
_TEXT	SEGMENT
p1$ = 8
offset$ = 16
??$raw_offset@PEAU_acpi_apic_header_@@PEAU1@@@YAPEAU_acpi_apic_header_@@PEAU0@H@Z PROC ; raw_offset<_acpi_apic_header_ * __ptr64,_acpi_apic_header_ * __ptr64>, COMDAT

; 183  : 	{

	mov	DWORD PTR [rsp+16], edx
	mov	QWORD PTR [rsp+8], rcx

; 184  : 		return (T) ((size_t)p1 + offset);

	movsxd	rax, DWORD PTR offset$[rsp]
	mov	rcx, QWORD PTR p1$[rsp]
	add	rcx, rax
	mov	rax, rcx

; 185  : 	};

	ret	0
??$raw_offset@PEAU_acpi_apic_header_@@PEAU1@@@YAPEAU_acpi_apic_header_@@PEAU0@H@Z ENDP ; raw_offset<_acpi_apic_header_ * __ptr64,_acpi_apic_header_ * __ptr64>
_TEXT	ENDS
; Function compile flags: /Odtpy
; File e:\xeneva project\xeneva\aurora\include\stdint.h
;	COMDAT ??$raw_diff@U_acpi_apic_header_@@UacpiMadt@@@@YAHPEAU_acpi_apic_header_@@PEAUacpiMadt@@@Z
_TEXT	SEGMENT
p1$ = 8
p2$ = 16
??$raw_diff@U_acpi_apic_header_@@UacpiMadt@@@@YAHPEAU_acpi_apic_header_@@PEAUacpiMadt@@@Z PROC ; raw_diff<_acpi_apic_header_,acpiMadt>, COMDAT

; 179  : 	{

	mov	QWORD PTR [rsp+16], rdx
	mov	QWORD PTR [rsp+8], rcx

; 180  : 		return (intptr_t)p1 - (intptr_t)p2;

	mov	eax, DWORD PTR p2$[rsp]
	mov	ecx, DWORD PTR p1$[rsp]
	sub	ecx, eax
	mov	eax, ecx

; 181  : 	};

	ret	0
??$raw_diff@U_acpi_apic_header_@@UacpiMadt@@@@YAHPEAU_acpi_apic_header_@@PEAUacpiMadt@@@Z ENDP ; raw_diff<_acpi_apic_header_,acpiMadt>
_TEXT	ENDS
; Function compile flags: /Odtpy
; File e:\xeneva project\xeneva\aurora\include\stdint.h
;	COMDAT ??$mem_after@PEAUacpiMcfgAlloc@@UacpiMcfg@@@@YAPEAUacpiMcfgAlloc@@PEAUacpiMcfg@@@Z
_TEXT	SEGMENT
p1$ = 8
??$mem_after@PEAUacpiMcfgAlloc@@UacpiMcfg@@@@YAPEAUacpiMcfgAlloc@@PEAUacpiMcfg@@@Z PROC ; mem_after<acpiMcfgAlloc * __ptr64,acpiMcfg>, COMDAT

; 187  : 	{

	mov	QWORD PTR [rsp+8], rcx

; 188  : 		return (T) (&p1[1]);

	mov	eax, 44					; 0000002cH
	imul	rax, 1
	mov	rcx, QWORD PTR p1$[rsp]
	add	rcx, rax
	mov	rax, rcx

; 189  : 	};

	ret	0
??$mem_after@PEAUacpiMcfgAlloc@@UacpiMcfg@@@@YAPEAUacpiMcfgAlloc@@PEAUacpiMcfg@@@Z ENDP ; mem_after<acpiMcfgAlloc * __ptr64,acpiMcfg>
_TEXT	ENDS
; Function compile flags: /Odtpy
; File e:\xeneva project\xeneva\aurora\include\stdint.h
;	COMDAT ??$raw_offset@PEAU_acpi_sub_tab_@@PEAU1@@@YAPEAU_acpi_sub_tab_@@PEAU0@H@Z
_TEXT	SEGMENT
p1$ = 8
offset$ = 16
??$raw_offset@PEAU_acpi_sub_tab_@@PEAU1@@@YAPEAU_acpi_sub_tab_@@PEAU0@H@Z PROC ; raw_offset<_acpi_sub_tab_ * __ptr64,_acpi_sub_tab_ * __ptr64>, COMDAT

; 183  : 	{

	mov	DWORD PTR [rsp+16], edx
	mov	QWORD PTR [rsp+8], rcx

; 184  : 		return (T) ((size_t)p1 + offset);

	movsxd	rax, DWORD PTR offset$[rsp]
	mov	rcx, QWORD PTR p1$[rsp]
	add	rcx, rax
	mov	rax, rcx

; 185  : 	};

	ret	0
??$raw_offset@PEAU_acpi_sub_tab_@@PEAU1@@@YAPEAU_acpi_sub_tab_@@PEAU0@H@Z ENDP ; raw_offset<_acpi_sub_tab_ * __ptr64,_acpi_sub_tab_ * __ptr64>
_TEXT	ENDS
; Function compile flags: /Odtpy
; File e:\xeneva project\xeneva\aurora\include\stdint.h
;	COMDAT ??$raw_diff@U_acpi_sub_tab_@@U_acpi_table_srat_x_@@@@YAHPEAU_acpi_sub_tab_@@PEAU_acpi_table_srat_x_@@@Z
_TEXT	SEGMENT
p1$ = 8
p2$ = 16
??$raw_diff@U_acpi_sub_tab_@@U_acpi_table_srat_x_@@@@YAHPEAU_acpi_sub_tab_@@PEAU_acpi_table_srat_x_@@@Z PROC ; raw_diff<_acpi_sub_tab_,_acpi_table_srat_x_>, COMDAT

; 179  : 	{

	mov	QWORD PTR [rsp+16], rdx
	mov	QWORD PTR [rsp+8], rcx

; 180  : 		return (intptr_t)p1 - (intptr_t)p2;

	mov	eax, DWORD PTR p2$[rsp]
	mov	ecx, DWORD PTR p1$[rsp]
	sub	ecx, eax
	mov	eax, ecx

; 181  : 	};

	ret	0
??$raw_diff@U_acpi_sub_tab_@@U_acpi_table_srat_x_@@@@YAHPEAU_acpi_sub_tab_@@PEAU_acpi_table_srat_x_@@@Z ENDP ; raw_diff<_acpi_sub_tab_,_acpi_table_srat_x_>
_TEXT	ENDS
; Function compile flags: /Odtpy
; File e:\xeneva project\xeneva\aurora\aurora\drivers\acpi\acpi.cpp
_TEXT	SEGMENT
v$ = 48
p$ = 56
?fadt_handler@@YAX_KPEAX@Z PROC				; fadt_handler

; 69   : void fadt_handler (size_t v, void* p) {

$LN3:
	mov	QWORD PTR [rsp+16], rdx
	mov	QWORD PTR [rsp+8], rcx
	sub	rsp, 40					; 00000028H

; 70   : 	printf ("[ACPI]: Fadt interrupt fired\n");

	lea	rcx, OFFSET FLAT:$SG3526
	call	printf

; 71   : 	AuInterruptEnd(9);

	mov	ecx, 9
	call	AuInterruptEnd

; 72   : }

	add	rsp, 40					; 00000028H
	ret	0
?fadt_handler@@YAX_KPEAX@Z ENDP				; fadt_handler
_TEXT	ENDS
; Function compile flags: /Odtpy
; File e:\xeneva project\xeneva\aurora\aurora\drivers\acpi\acpi.cpp
_TEXT	SEGMENT
word$ = 32
word_1$ = 36
word_3$1 = 40
?acpi_enable@@YAXXZ PROC				; acpi_enable

; 37   : void acpi_enable () {

$LN9:
	sub	rsp, 56					; 00000038H

; 38   : 	if (!kern_acpi.fadt || !kern_acpi.fadt->pm1aCtrlBlock) {

	cmp	QWORD PTR ?kern_acpi@@3U_aurora_acpi_@@A+9, 0
	je	SHORT $LN5@acpi_enabl
	mov	rax, QWORD PTR ?kern_acpi@@3U_aurora_acpi_@@A+9
	cmp	DWORD PTR [rax+64], 0
	jne	SHORT $LN6@acpi_enabl
$LN5@acpi_enabl:

; 39   : 		printf ("[ACPI]: data structures are incomplete\n");

	lea	rcx, OFFSET FLAT:$SG3509
	call	printf

; 40   : 		return;

	jmp	$LN7@acpi_enabl
$LN6@acpi_enabl:

; 41   : 	}
; 42   : 	uint16_t word = x64_inportw(kern_acpi.fadt->pm1aCtrlBlock);

	mov	rax, QWORD PTR ?kern_acpi@@3U_aurora_acpi_@@A+9
	movzx	ecx, WORD PTR [rax+64]
	call	x64_inportw
	mov	WORD PTR word$[rsp], ax

; 43   : 	if ((word & ACPI_PMCTRL_SCI_EN) == 1) {

	movzx	eax, WORD PTR word$[rsp]
	and	eax, 1
	cmp	eax, 1
	jne	SHORT $LN4@acpi_enabl

; 44   : 		printf ("[ACPI]: Already enabled\n");

	lea	rcx, OFFSET FLAT:$SG3512
	call	printf

; 45   : 		return;

	jmp	$LN7@acpi_enabl
$LN4@acpi_enabl:

; 46   : 	}
; 47   : 	x64_outportb (kern_acpi.fadt->sciCmdPort, kern_acpi.fadt->acpiEnable);

	mov	rax, QWORD PTR ?kern_acpi@@3U_aurora_acpi_@@A+9
	movzx	edx, BYTE PTR [rax+52]
	mov	rax, QWORD PTR ?kern_acpi@@3U_aurora_acpi_@@A+9
	movzx	ecx, WORD PTR [rax+48]
	call	x64_outportb

; 48   : 	uint16_t word_1 = x64_inportw(kern_acpi.fadt->pm1aCtrlBlock);	

	mov	rax, QWORD PTR ?kern_acpi@@3U_aurora_acpi_@@A+9
	movzx	ecx, WORD PTR [rax+64]
	call	x64_inportw
	mov	WORD PTR word_1$[rsp], ax

; 49   : 	printf ("PM1aCTRLBlock -> %x\n", kern_acpi.fadt->pm1aCtrlBlock);

	mov	rax, QWORD PTR ?kern_acpi@@3U_aurora_acpi_@@A+9
	mov	edx, DWORD PTR [rax+64]
	lea	rcx, OFFSET FLAT:$SG3514
	call	printf

; 50   : 	if ((word_1 & ACPI_PMCTRL_SCI_EN) == 1){

	movzx	eax, WORD PTR word_1$[rsp]
	and	eax, 1
	cmp	eax, 1
	jne	SHORT $LN3@acpi_enabl

; 51   : 
; 52   : 		printf ("[ACPI]: Enabled successfully\n");

	lea	rcx, OFFSET FLAT:$SG3516
	call	printf
$LN3@acpi_enabl:

; 53   : 
; 54   : 	}
; 55   : 
; 56   : 	if (kern_acpi.fadt->pm1bCtrlBlock){

	mov	rax, QWORD PTR ?kern_acpi@@3U_aurora_acpi_@@A+9
	cmp	DWORD PTR [rax+68], 0
	je	SHORT $LN2@acpi_enabl

; 57   : 		printf ("[ACPI]: Verifying pm1bCtrlBlock \n");

	lea	rcx, OFFSET FLAT:$SG3518
	call	printf

; 58   : 		uint16_t word_3 = x64_inportw(kern_acpi.fadt->pm1bCtrlBlock);

	mov	rax, QWORD PTR ?kern_acpi@@3U_aurora_acpi_@@A+9
	movzx	ecx, WORD PTR [rax+68]
	call	x64_inportw
	mov	WORD PTR word_3$1[rsp], ax

; 59   : 		if ((word_3 & ACPI_PMCTRL_SCI_EN) == 1){

	movzx	eax, WORD PTR word_3$1[rsp]
	and	eax, 1
	cmp	eax, 1
	jne	SHORT $LN1@acpi_enabl

; 60   : 			printf ("[ACPI]: Enabled successfully\n");

	lea	rcx, OFFSET FLAT:$SG3521
	call	printf
$LN1@acpi_enabl:
$LN2@acpi_enabl:

; 61   : 		}
; 62   : 	}
; 63   : 
; 64   : 	acpi_power_button_enable();

	call	?acpi_power_button_enable@@YAXXZ	; acpi_power_button_enable
$LN7@acpi_enabl:

; 65   : 	return;
; 66   : }

	add	rsp, 56					; 00000038H
	ret	0
?acpi_enable@@YAXXZ ENDP				; acpi_enable
_TEXT	ENDS
; Function compile flags: /Odtpy
; File e:\xeneva project\xeneva\aurora\aurora\drivers\acpi\acpi.cpp
_TEXT	SEGMENT
?acpi_power_button_enable@@YAXXZ PROC			; acpi_power_button_enable

; 28   : void acpi_power_button_enable () {

$LN3:
	sub	rsp, 40					; 00000028H

; 29   : 	x64_outportw (kern_acpi.fadt->pm1aEventBlock, (1<<5));

	mov	dx, 32					; 00000020H
	mov	rax, QWORD PTR ?kern_acpi@@3U_aurora_acpi_@@A+9
	movzx	ecx, WORD PTR [rax+56]
	call	x64_outportw

; 30   : 	x64_outportw (kern_acpi.fadt->pm1aEventBlock, (1<<8));

	mov	dx, 256					; 00000100H
	mov	rax, QWORD PTR ?kern_acpi@@3U_aurora_acpi_@@A+9
	movzx	ecx, WORD PTR [rax+56]
	call	x64_outportw

; 31   : 	x64_outportw (kern_acpi.fadt->pm1aEventBlock, (1<<5));

	mov	dx, 32					; 00000020H
	mov	rax, QWORD PTR ?kern_acpi@@3U_aurora_acpi_@@A+9
	movzx	ecx, WORD PTR [rax+56]
	call	x64_outportw

; 32   : 	x64_outportw (kern_acpi.fadt->pm1aEventBlock, POWER_BUTTON_ENABLE);

	mov	dx, 256					; 00000100H
	mov	rax, QWORD PTR ?kern_acpi@@3U_aurora_acpi_@@A+9
	movzx	ecx, WORD PTR [rax+56]
	call	x64_outportw

; 33   : 	x64_outportw (kern_acpi.fadt->pm1aEventBlock, (1<<9));

	mov	dx, 512					; 00000200H
	mov	rax, QWORD PTR ?kern_acpi@@3U_aurora_acpi_@@A+9
	movzx	ecx, WORD PTR [rax+56]
	call	x64_outportw

; 34   : }

	add	rsp, 40					; 00000028H
	ret	0
?acpi_power_button_enable@@YAXXZ ENDP			; acpi_power_button_enable
_TEXT	ENDS
; Function compile flags: /Odtpy
; File e:\xeneva project\xeneva\aurora\aurora\drivers\acpi\acpi.cpp
_TEXT	SEGMENT
?AuGetNumCPU@@YAEXZ PROC				; AuGetNumCPU

; 285  : 	return kern_acpi.num_cpu;

	movzx	eax, BYTE PTR ?kern_acpi@@3U_aurora_acpi_@@A+45

; 286  : }

	ret	0
?AuGetNumCPU@@YAEXZ ENDP				; AuGetNumCPU
_TEXT	ENDS
; Function compile flags: /Odtpy
; File e:\xeneva project\xeneva\aurora\aurora\drivers\acpi\acpi.cpp
_TEXT	SEGMENT
?acpi_get_mcfg@@YAPEAUacpiMcfg@@XZ PROC			; acpi_get_mcfg

; 277  : 	return kern_acpi.mcfg;

	mov	rax, QWORD PTR ?kern_acpi@@3U_aurora_acpi_@@A+33

; 278  : }

	ret	0
?acpi_get_mcfg@@YAPEAUacpiMcfg@@XZ ENDP			; acpi_get_mcfg
_TEXT	ENDS
; Function compile flags: /Odtpy
; File e:\xeneva project\xeneva\aurora\aurora\drivers\acpi\acpi.cpp
_TEXT	SEGMENT
?acpi_pcie_supported@@YA_NXZ PROC			; acpi_pcie_supported

; 272  : 	return pcie_support;

	movzx	eax, BYTE PTR ?pcie_support@@3_NA	; pcie_support

; 273  : }

	ret	0
?acpi_pcie_supported@@YA_NXZ ENDP			; acpi_pcie_supported
_TEXT	ENDS
; Function compile flags: /Odtpy
; File e:\xeneva project\xeneva\aurora\aurora\drivers\acpi\acpi.cpp
_TEXT	SEGMENT
?acpi_shutdown@@YAXXZ PROC				; acpi_shutdown

; 235  : void acpi_shutdown () {

$LN7:
	sub	rsp, 40					; 00000028H

; 236  : 	x64_cli();

	call	x64_cli

; 237  : 	x64_outportd (kern_acpi.fadt->sciCmdPort, 0);

	xor	edx, edx
	mov	rax, QWORD PTR ?kern_acpi@@3U_aurora_acpi_@@A+9
	movzx	ecx, WORD PTR [rax+48]
	call	x64_outportd

; 238  : 	if (kern_acpi.fadt->pm1aCtrlBlock != NULL) {

	mov	rax, QWORD PTR ?kern_acpi@@3U_aurora_acpi_@@A+9
	cmp	DWORD PTR [rax+64], 0
	je	SHORT $LN4@acpi_shutd

; 239  : 		x64_outportd (kern_acpi.fadt->pm1aCtrlBlock, kern_acpi.slp_typa | SLP_EN);

	movzx	eax, WORD PTR ?kern_acpi@@3U_aurora_acpi_@@A+41
	bts	eax, 13
	mov	edx, eax
	mov	rax, QWORD PTR ?kern_acpi@@3U_aurora_acpi_@@A+9
	movzx	ecx, WORD PTR [rax+64]
	call	x64_outportd

; 240  : 		printf ("Shutdown step1 complete\n");

	lea	rcx, OFFSET FLAT:$SG3685
	call	printf
$LN4@acpi_shutd:

; 241  : 	}
; 242  : 
; 243  : 	if (kern_acpi.fadt->pm1bCtrlBlock){

	mov	rax, QWORD PTR ?kern_acpi@@3U_aurora_acpi_@@A+9
	cmp	DWORD PTR [rax+68], 0
	je	SHORT $LN3@acpi_shutd

; 244  : 		printf ("[ACPI] pm1bCtrlBlock -> %x\n", kern_acpi.fadt->pm1bCtrlBlock);

	mov	rax, QWORD PTR ?kern_acpi@@3U_aurora_acpi_@@A+9
	mov	edx, DWORD PTR [rax+68]
	lea	rcx, OFFSET FLAT:$SG3687
	call	printf

; 245  : 		x64_outportd (kern_acpi.fadt->pm1bCtrlBlock,  (kern_acpi.slp_typb << 0) | SLP_EN);

	movzx	eax, WORD PTR ?kern_acpi@@3U_aurora_acpi_@@A+43
	bts	eax, 13
	mov	edx, eax
	mov	rax, QWORD PTR ?kern_acpi@@3U_aurora_acpi_@@A+9
	movzx	ecx, WORD PTR [rax+68]
	call	x64_outportd
$LN3@acpi_shutd:

; 246  : 	} 
; 247  : 
; 248  : 	printf ("\nShutdown step2 complete\n");

	lea	rcx, OFFSET FLAT:$SG3688
	call	printf

; 249  : 	printf ("[ACPI]: Shutdown failed\n");

	lea	rcx, OFFSET FLAT:$SG3689
	call	printf
$LN2@acpi_shutd:

; 250  : 	for(;;);

	jmp	SHORT $LN2@acpi_shutd

; 251  : }

	add	rsp, 40					; 00000028H
	ret	0
?acpi_shutdown@@YAXXZ ENDP				; acpi_shutdown
_TEXT	ENDS
; Function compile flags: /Odtpy
; File e:\xeneva project\xeneva\aurora\aurora\drivers\acpi\acpi.cpp
_TEXT	SEGMENT
l$ = 0
tv72 = 4
S5$ = 8
header$ = 32
?search_s5@@YAPEAEPEAUacpiDsdt@@@Z PROC			; search_s5

; 254  : uint8_t* search_s5 (acpiDsdt* header) {

$LN6:
	mov	QWORD PTR [rsp+8], rcx
	sub	rsp, 24

; 255  : 	uint32_t l;
; 256  : 	uint32_t* S5;
; 257  : 
; 258  : 	l = header->header.length - sizeof(acpiDsdt);

	mov	rax, QWORD PTR header$[rsp]
	mov	eax, DWORD PTR [rax+4]
	sub	rax, 36					; 00000024H
	mov	DWORD PTR l$[rsp], eax

; 259  : 	S5 = (uint32_t*)(header + sizeof(acpiDsdt));

	mov	rax, QWORD PTR header$[rsp]
	add	rax, 1296				; 00000510H
	mov	QWORD PTR S5$[rsp], rax
$LN3@search_s5:

; 260  : 	while(l--) {

	mov	eax, DWORD PTR l$[rsp]
	mov	DWORD PTR tv72[rsp], eax
	mov	eax, DWORD PTR l$[rsp]
	dec	eax
	mov	DWORD PTR l$[rsp], eax
	cmp	DWORD PTR tv72[rsp], 0
	je	SHORT $LN2@search_s5

; 261  : 		if (*S5 == (uint32_t)'_5S_') {

	mov	rax, QWORD PTR S5$[rsp]
	cmp	DWORD PTR [rax], 1597330271		; 5f35535fH
	jne	SHORT $LN1@search_s5

; 262  : 			return (uint8_t*)S5;

	mov	rax, QWORD PTR S5$[rsp]
	jmp	SHORT $LN4@search_s5
$LN1@search_s5:

; 263  : 		}
; 264  : 		S5 = (uint32_t*)((uint32_t)S5 + 1);

	mov	eax, DWORD PTR S5$[rsp]
	inc	eax
	mov	eax, eax
	mov	QWORD PTR S5$[rsp], rax

; 265  : 	}

	jmp	SHORT $LN3@search_s5
$LN2@search_s5:

; 266  : 
; 267  : 	return (uint8_t*)NULL;

	xor	eax, eax
$LN4@search_s5:

; 268  : }

	add	rsp, 24
	ret	0
?search_s5@@YAPEAEPEAUacpiDsdt@@@Z ENDP			; search_s5
_TEXT	ENDS
; Function compile flags: /Odtpy
; File e:\xeneva project\xeneva\aurora\aurora\drivers\acpi\acpi.cpp
_TEXT	SEGMENT
?acpi_system_reboot@@YAXXZ PROC				; acpi_system_reboot

; 230  : void acpi_system_reboot () {

$LN3:
	sub	rsp, 40					; 00000028H

; 231  : 	printf ("[ACPI]: Reset Address -> %x, Reset value -> %x\n", kern_acpi.fadt->resetReg.address, kern_acpi.fadt->resetValue);

	mov	rax, QWORD PTR ?kern_acpi@@3U_aurora_acpi_@@A+9
	movzx	eax, BYTE PTR [rax+127]
	mov	r8d, eax
	mov	rax, QWORD PTR ?kern_acpi@@3U_aurora_acpi_@@A+9
	mov	rdx, QWORD PTR [rax+119]
	lea	rcx, OFFSET FLAT:$SG3681
	call	printf

; 232  : 	x64_outportw (kern_acpi.fadt->resetReg.address, kern_acpi.fadt->resetValue);

	mov	rax, QWORD PTR ?kern_acpi@@3U_aurora_acpi_@@A+9
	movzx	eax, BYTE PTR [rax+127]
	movzx	edx, ax
	mov	rax, QWORD PTR ?kern_acpi@@3U_aurora_acpi_@@A+9
	movzx	ecx, WORD PTR [rax+119]
	call	x64_outportw

; 233  : }

	add	rsp, 40					; 00000028H
	ret	0
?acpi_system_reboot@@YAXXZ ENDP				; acpi_system_reboot
_TEXT	ENDS
; Function compile flags: /Odtpy
; File e:\xeneva project\xeneva\aurora\aurora\drivers\acpi\acpi.cpp
_TEXT	SEGMENT
tv73 = 32
apic_header$ = 40
lapic$1 = 48
io_apic$2 = 56
over$3 = 64
?acpi_parse_madt@@YAXXZ PROC				; acpi_parse_madt

; 198  : void acpi_parse_madt () {

$LN12:
	sub	rsp, 88					; 00000058H

; 199  : 	acpiApicHeader *apic_header = (acpiApicHeader*)kern_acpi.madt->entry;

	mov	rax, QWORD PTR ?kern_acpi@@3U_aurora_acpi_@@A+1
	add	rax, 44					; 0000002cH
	mov	QWORD PTR apic_header$[rsp], rax
$LN9@acpi_parse:

; 200  : 
; 201  : 	while (raw_diff(apic_header, kern_acpi.madt) < kern_acpi.madt->header.length) {

	mov	rdx, QWORD PTR ?kern_acpi@@3U_aurora_acpi_@@A+1
	mov	rcx, QWORD PTR apic_header$[rsp]
	call	??$raw_diff@U_acpi_apic_header_@@UacpiMadt@@@@YAHPEAU_acpi_apic_header_@@PEAUacpiMadt@@@Z ; raw_diff<_acpi_apic_header_,acpiMadt>
	mov	rcx, QWORD PTR ?kern_acpi@@3U_aurora_acpi_@@A+1
	cmp	eax, DWORD PTR [rcx+4]
	jae	$LN8@acpi_parse

; 202  : 		switch (apic_header->type) {

	mov	rax, QWORD PTR apic_header$[rsp]
	movzx	eax, BYTE PTR [rax]
	mov	BYTE PTR tv73[rsp], al
	cmp	BYTE PTR tv73[rsp], 0
	je	SHORT $LN5@acpi_parse
	cmp	BYTE PTR tv73[rsp], 1
	je	SHORT $LN3@acpi_parse
	cmp	BYTE PTR tv73[rsp], 2
	je	SHORT $LN2@acpi_parse
	jmp	$LN1@acpi_parse
$LN5@acpi_parse:

; 203  : 		case ACPI_APICTYPE_LAPIC: {
; 204  : 			acpiLocalApic *lapic = (acpiLocalApic*)apic_header;

	mov	rax, QWORD PTR apic_header$[rsp]
	mov	QWORD PTR lapic$1[rsp], rax

; 205  : 			printf ("[ACPI]: Madt entry -> LAPIC id -> %d, address -> %x\n", lapic->lapicId, lapic->procId);

	mov	rax, QWORD PTR lapic$1[rsp]
	movzx	eax, BYTE PTR [rax+2]
	mov	rcx, QWORD PTR lapic$1[rsp]
	movzx	ecx, BYTE PTR [rcx+3]
	mov	r8d, eax
	mov	edx, ecx
	lea	rcx, OFFSET FLAT:$SG3661
	call	printf

; 206  : 			if (lapic->procId != 0)

	mov	rax, QWORD PTR lapic$1[rsp]
	movzx	eax, BYTE PTR [rax+2]
	test	eax, eax
	je	SHORT $LN4@acpi_parse

; 207  : 				kern_acpi.num_cpu = lapic->procId;

	mov	rax, QWORD PTR lapic$1[rsp]
	movzx	eax, BYTE PTR [rax+2]
	mov	BYTE PTR ?kern_acpi@@3U_aurora_acpi_@@A+45, al
$LN4@acpi_parse:

; 208  : 			break;

	jmp	SHORT $LN6@acpi_parse
$LN3@acpi_parse:

; 209  : 		}							 
; 210  : 		case ACPI_APICTYPE_IOAPIC:{
; 211  : 			acpiIoApic *io_apic = (acpiIoApic*)apic_header;

	mov	rax, QWORD PTR apic_header$[rsp]
	mov	QWORD PTR io_apic$2[rsp], rax

; 212  : 			printf ("[ACPI]: Madt entry -> I/O APIC address -> %x, GSI -> %d\n",io_apic->ioApicAddr, io_apic->gsiBase );

	mov	rax, QWORD PTR io_apic$2[rsp]
	mov	r8d, DWORD PTR [rax+8]
	mov	rax, QWORD PTR io_apic$2[rsp]
	mov	edx, DWORD PTR [rax+4]
	lea	rcx, OFFSET FLAT:$SG3666
	call	printf

; 213  : 			break;

	jmp	SHORT $LN6@acpi_parse
$LN2@acpi_parse:

; 214  : 		}
; 215  : 		case ACPI_APICTYPE_ISOVER:{
; 216  : 			apic_interrupt_override* over = (apic_interrupt_override*)apic_header;

	mov	rax, QWORD PTR apic_header$[rsp]
	mov	QWORD PTR over$3[rsp], rax

; 217  : 			printf ("[ACPI]: Interrupt Source Override, GSI -> %d, SRC -> %d\n", over->interrupt, over->source);

	mov	rax, QWORD PTR over$3[rsp]
	movzx	eax, BYTE PTR [rax+3]
	mov	r8d, eax
	mov	rax, QWORD PTR over$3[rsp]
	mov	edx, DWORD PTR [rax+4]
	lea	rcx, OFFSET FLAT:$SG3670
	call	printf
$LN1@acpi_parse:
$LN6@acpi_parse:

; 218  : 			break;
; 219  : 		}
; 220  : 		default:{
; 221  : 			break;
; 222  : 		}
; 223  : 		}
; 224  : 
; 225  : 		apic_header = raw_offset <acpiApicHeader*>(apic_header, apic_header->length);

	mov	rax, QWORD PTR apic_header$[rsp]
	movzx	eax, BYTE PTR [rax+1]
	mov	edx, eax
	mov	rcx, QWORD PTR apic_header$[rsp]
	call	??$raw_offset@PEAU_acpi_apic_header_@@PEAU1@@@YAPEAU_acpi_apic_header_@@PEAU0@H@Z ; raw_offset<_acpi_apic_header_ * __ptr64,_acpi_apic_header_ * __ptr64>
	mov	QWORD PTR apic_header$[rsp], rax

; 226  : 	}

	jmp	$LN9@acpi_parse
$LN8@acpi_parse:

; 227  : }

	add	rsp, 88					; 00000058H
	ret	0
?acpi_parse_madt@@YAXXZ ENDP				; acpi_parse_madt
_TEXT	ENDS
; Function compile flags: /Odtpy
; File e:\xeneva project\xeneva\aurora\aurora\drivers\acpi\acpi.cpp
_TEXT	SEGMENT
S5Block$1 = 32
sig$ = 40
tv163 = 48
count$2 = 52
header$ = 56
sub$3 = 64
srat$4 = 72
allocs$5 = 80
entries$ = 88
rsdt$ = 96
rsdp$ = 104
xsdt$ = 112
mem_affinity$6 = 120
acpi_base$ = 144
?AuInitializeBasicAcpi@@YAXPEAX@Z PROC			; AuInitializeBasicAcpi

; 75   : void AuInitializeBasicAcpi (void* acpi_base) {

$LN36:
	mov	QWORD PTR [rsp+8], rcx
	sub	rsp, 136				; 00000088H

; 76   : 	memset (&kern_acpi, 0, sizeof(aurora_acpi));

	mov	r8d, 46					; 0000002eH
	xor	edx, edx
	lea	rcx, OFFSET FLAT:?kern_acpi@@3U_aurora_acpi_@@A ; kern_acpi
	call	memset

; 77   : 	acpiRsdp *rsdp = (acpiRsdp*)acpi_base;

	mov	rax, QWORD PTR acpi_base$[rsp]
	mov	QWORD PTR rsdp$[rsp], rax

; 78   : 	acpiRsdt *rsdt = (acpiRsdt*)rsdp->rsdtAddr;

	mov	rax, QWORD PTR rsdp$[rsp]
	mov	eax, DWORD PTR [rax+16]
	mov	QWORD PTR rsdt$[rsp], rax

; 79   : 	acpiXsdt *xsdt = (acpiXsdt*)rsdp->xsdtAddr;

	mov	rax, QWORD PTR rsdp$[rsp]
	mov	rax, QWORD PTR [rax+24]
	mov	QWORD PTR xsdt$[rsp], rax

; 80   : 	char sig[5];
; 81   : 	int entries = (rsdt->header.length - sizeof(rsdt->header))/4;

	mov	rax, QWORD PTR rsdt$[rsp]
	mov	eax, DWORD PTR [rax+4]
	sub	rax, 36					; 00000024H
	xor	edx, edx
	mov	ecx, 4
	div	rcx
	mov	DWORD PTR entries$[rsp], eax

; 82   : 	acpiSysDescHeader* header = nullptr;

	mov	QWORD PTR header$[rsp], 0

; 83   : 	pcie_support = false;

	mov	BYTE PTR ?pcie_support@@3_NA, 0		; pcie_support

; 84   : 
; 85   : 	for (int count = 0; count < entries; count++) {

	mov	DWORD PTR count$2[rsp], 0
	jmp	SHORT $LN32@AuInitiali
$LN31@AuInitiali:
	mov	eax, DWORD PTR count$2[rsp]
	inc	eax
	mov	DWORD PTR count$2[rsp], eax
$LN32@AuInitiali:
	mov	eax, DWORD PTR entries$[rsp]
	cmp	DWORD PTR count$2[rsp], eax
	jge	$LN30@AuInitiali

; 86   : 		header = (acpiSysDescHeader*)rsdt->entry[count];

	movsxd	rax, DWORD PTR count$2[rsp]
	mov	rcx, QWORD PTR rsdt$[rsp]
	mov	eax, DWORD PTR [rcx+rax*4+36]
	mov	QWORD PTR header$[rsp], rax

; 87   : 		strncpy (sig, header->signature, 4);

	mov	rax, QWORD PTR header$[rsp]
	mov	r8d, 4
	mov	rdx, rax
	lea	rcx, QWORD PTR sig$[rsp]
	call	strncpy

; 88   : 		sig[4] = '\0';

	mov	eax, 1
	imul	rax, 4
	mov	BYTE PTR sig$[rsp+rax], 0

; 89   : 
; 90   : 		if (!strncmp(sig, ACPI_SIG_FADT, strlen(ACPI_SIG_FADT))) {

	lea	rcx, OFFSET FLAT:$SG3546
	call	strlen
	mov	r8, rax
	lea	rdx, OFFSET FLAT:$SG3547
	lea	rcx, QWORD PTR sig$[rsp]
	call	strncmp
	test	eax, eax
	jne	SHORT $LN29@AuInitiali

; 91   : 			kern_acpi.fadt = (acpiFadt*) header;

	mov	rax, QWORD PTR header$[rsp]
	mov	QWORD PTR ?kern_acpi@@3U_aurora_acpi_@@A+9, rax

; 92   : 			printf ("[ACPI]: Fadt table found\n");

	lea	rcx, OFFSET FLAT:$SG3549
	call	printf
	jmp	$LN28@AuInitiali
$LN29@AuInitiali:

; 93   : 		}
; 94   : 		 
; 95   : 		else if (!strncmp(sig, ACPI_SIG_APIC, strlen("CIPA"))) {

	lea	rcx, OFFSET FLAT:$SG3552
	call	strlen
	mov	r8, rax
	lea	rdx, OFFSET FLAT:$SG3553
	lea	rcx, QWORD PTR sig$[rsp]
	call	strncmp
	test	eax, eax
	jne	SHORT $LN27@AuInitiali

; 96   : 			kern_acpi.madt = (acpiMadt*) header;

	mov	rax, QWORD PTR header$[rsp]
	mov	QWORD PTR ?kern_acpi@@3U_aurora_acpi_@@A+1, rax

; 97   : 			printf ("[ACPI]: Madt table found\n");

	lea	rcx, OFFSET FLAT:$SG3555
	call	printf

; 98   : 			acpi_parse_madt ();

	call	?acpi_parse_madt@@YAXXZ			; acpi_parse_madt
	jmp	$LN26@AuInitiali
$LN27@AuInitiali:

; 99   : 		}
; 100  : 
; 101  : 		else if (!strncmp(sig, ACPI_SIG_SRAT, strlen(ACPI_SIG_SRAT))) {

	lea	rcx, OFFSET FLAT:$SG3558
	call	strlen
	mov	r8, rax
	lea	rdx, OFFSET FLAT:$SG3559
	lea	rcx, QWORD PTR sig$[rsp]
	call	strncmp
	test	eax, eax
	jne	$LN25@AuInitiali

; 102  : 			printf ("[ACPI]: Srat table found\n");

	lea	rcx, OFFSET FLAT:$SG3560
	call	printf

; 103  : 			acpi_table_srat_xe* srat = (acpi_table_srat_xe*)header;

	mov	rax, QWORD PTR header$[rsp]
	mov	QWORD PTR srat$4[rsp], rax

; 104  : 			printf ("[ACPI]: Srat -> %d length -> %d\n", srat->Header.revision, srat->Header.length);

	mov	rax, QWORD PTR srat$4[rsp]
	movzx	eax, BYTE PTR [rax+8]
	mov	rcx, QWORD PTR srat$4[rsp]
	mov	r8d, DWORD PTR [rcx+4]
	mov	edx, eax
	lea	rcx, OFFSET FLAT:$SG3563
	call	printf

; 105  : 			acpi_sub_table *sub = (acpi_sub_table*)&srat[1];

	mov	eax, 48					; 00000030H
	imul	rax, 1
	mov	rcx, QWORD PTR srat$4[rsp]
	add	rcx, rax
	mov	rax, rcx
	mov	QWORD PTR sub$3[rsp], rax
$LN24@AuInitiali:

; 106  : 			while (raw_diff(sub,srat) < srat->Header.length) {

	mov	rdx, QWORD PTR srat$4[rsp]
	mov	rcx, QWORD PTR sub$3[rsp]
	call	??$raw_diff@U_acpi_sub_tab_@@U_acpi_table_srat_x_@@@@YAHPEAU_acpi_sub_tab_@@PEAU_acpi_table_srat_x_@@@Z ; raw_diff<_acpi_sub_tab_,_acpi_table_srat_x_>
	mov	rcx, QWORD PTR srat$4[rsp]
	cmp	eax, DWORD PTR [rcx+4]
	jae	$LN23@AuInitiali

; 107  : 				switch (sub->type) {

	mov	rax, QWORD PTR sub$3[rsp]
	movzx	eax, BYTE PTR [rax]
	mov	DWORD PTR tv163[rsp], eax
	mov	eax, DWORD PTR tv163[rsp]
	dec	eax
	mov	DWORD PTR tv163[rsp], eax
	cmp	DWORD PTR tv163[rsp], 5
	ja	SHORT $LN21@AuInitiali
	movsxd	rax, DWORD PTR tv163[rsp]
	lea	rcx, OFFSET FLAT:__ImageBase
	mov	eax, DWORD PTR $LN35@AuInitiali[rcx+rax*4]
	add	rax, rcx
	jmp	rax
$LN20@AuInitiali:

; 108  : 				case acpi_srat_type_memory_affinity: {
; 109  : 					//printf ("[ACPI]: Srat memory affinity found \n");
; 110  : 					acpi_srat_mem_affinity *mem_affinity = (acpi_srat_mem_affinity*)sub;

	mov	rax, QWORD PTR sub$3[rsp]
	mov	QWORD PTR mem_affinity$6[rsp], rax

; 111  : 					/*printf ("Mem start -> %x \n", mem_affinity->base_address);
; 112  : 					printf ("Mem end -> %x \n", (mem_affinity->base_address + mem_affinity->length)*4096);
; 113  : 					printf ("Mem Length -> %d MB \n", (mem_affinity->length / 1024 / 1024));
; 114  : 					printf ("Numa Domain -> %d \n", mem_affinity->proximity_domain);
; 115  : 					printf ("Mem LLength -> %d\n", mem_affinity->header.length);*/
; 116  : 					break;

	jmp	SHORT $LN21@AuInitiali

; 117  : 				}case acpi_srat_type_cpu_affinity:
; 118  : 					//printf ("[ACPI]: Srat cpu affinity found \n");
; 119  : 					break;

	jmp	SHORT $LN21@AuInitiali
$LN18@AuInitiali:

; 120  : 				case acpi_srat_type_generic_affinity:
; 121  : 					printf ("[ACPI]: Generic affinity found \n");

	lea	rcx, OFFSET FLAT:$SG3584
	call	printf

; 122  : 					break;

	jmp	SHORT $LN21@AuInitiali
$LN17@AuInitiali:

; 123  : 				case acpi_srat_type_gicc_affinity:
; 124  : 					printf ("[ACPI]: GICC affinity found \n");

	lea	rcx, OFFSET FLAT:$SG3586
	call	printf

; 125  : 					break;

	jmp	SHORT $LN21@AuInitiali
$LN16@AuInitiali:

; 126  : 				case acpi_srat_type_gic_its_affinity:
; 127  : 					printf ("[ACPI]: GIC ITS Affinity found \n");

	lea	rcx, OFFSET FLAT:$SG3588
	call	printf

; 128  : 					break;

	jmp	SHORT $LN21@AuInitiali
$LN15@AuInitiali:

; 129  : 				case acpi_srat_type_x2apic_cpu_affinity:
; 130  : 					printf ("[ACPI]: X2APIC CPU Affinity found \n");

	lea	rcx, OFFSET FLAT:$SG3590
	call	printf

; 131  : 					break;

	jmp	SHORT $LN21@AuInitiali
$LN14@AuInitiali:

; 132  : 				case acpi_srat_type_reserved:
; 133  : 					printf ("[ACPI]: Srat type reserved \n");

	lea	rcx, OFFSET FLAT:$SG3592
	call	printf
$LN21@AuInitiali:

; 134  : 					break;
; 135  : 				}
; 136  : 				sub = raw_offset<acpi_sub_table*>(sub, sub->length);					

	mov	rax, QWORD PTR sub$3[rsp]
	movzx	eax, BYTE PTR [rax+1]
	mov	edx, eax
	mov	rcx, QWORD PTR sub$3[rsp]
	call	??$raw_offset@PEAU_acpi_sub_tab_@@PEAU1@@@YAPEAU_acpi_sub_tab_@@PEAU0@H@Z ; raw_offset<_acpi_sub_tab_ * __ptr64,_acpi_sub_tab_ * __ptr64>
	mov	QWORD PTR sub$3[rsp], rax

; 137  : 			}

	jmp	$LN24@AuInitiali
$LN23@AuInitiali:

; 138  : 		}
; 139  : 
; 140  : 		else if (!strncmp(sig, ACPI_SIG_SLIT, strlen(ACPI_SIG_SLIT))) {

	jmp	$LN13@AuInitiali
$LN25@AuInitiali:
	lea	rcx, OFFSET FLAT:$SG3602
	call	strlen
	mov	r8, rax
	lea	rdx, OFFSET FLAT:$SG3603
	lea	rcx, QWORD PTR sig$[rsp]
	call	strncmp
	test	eax, eax
	jne	SHORT $LN12@AuInitiali

; 141  : 			printf ("[ACPI]: Slit table found \n");

	lea	rcx, OFFSET FLAT:$SG3604
	call	printf
	jmp	$LN11@AuInitiali
$LN12@AuInitiali:

; 142  : 		}
; 143  : 		else if (!strncmp(sig, ACPI_SIG_MCFG, strlen(ACPI_SIG_MCFG))) {

	lea	rcx, OFFSET FLAT:$SG3607
	call	strlen
	mov	r8, rax
	lea	rdx, OFFSET FLAT:$SG3608
	lea	rcx, QWORD PTR sig$[rsp]
	call	strncmp
	test	eax, eax
	jne	SHORT $LN10@AuInitiali

; 144  : 			//printf ("[ACPI]: Mcfg table found\n");
; 145  : 			kern_acpi.mcfg = (acpiMcfg*) header;

	mov	rax, QWORD PTR header$[rsp]
	mov	QWORD PTR ?kern_acpi@@3U_aurora_acpi_@@A+33, rax

; 146  : 			acpiMcfgAlloc *allocs = mem_after<acpiMcfgAlloc*>(kern_acpi.mcfg);

	mov	rcx, QWORD PTR ?kern_acpi@@3U_aurora_acpi_@@A+33
	call	??$mem_after@PEAUacpiMcfgAlloc@@UacpiMcfg@@@@YAPEAUacpiMcfgAlloc@@PEAUacpiMcfg@@@Z ; mem_after<acpiMcfgAlloc * __ptr64,acpiMcfg>
	mov	QWORD PTR allocs$5[rsp], rax

; 147  : 			//for (; raw_diff(allocs, kern_acpi.mcfg) < kern_acpi.mcfg->header.length; ++allocs) {
; 148  : 				printf ("PCIe Start bus num -> %d, End bus num -> %d, base address-> %x\n", allocs->startBusNum, allocs->endBusNum,
; 149  : 					allocs->baseAddress);

	mov	rax, QWORD PTR allocs$5[rsp]
	movzx	eax, BYTE PTR [rax+11]
	mov	rcx, QWORD PTR allocs$5[rsp]
	movzx	ecx, BYTE PTR [rcx+10]
	mov	rdx, QWORD PTR allocs$5[rsp]
	mov	r9, QWORD PTR [rdx]
	mov	r8d, eax
	mov	edx, ecx
	lea	rcx, OFFSET FLAT:$SG3617
	call	printf

; 150  : 				printf ("PCIe Segment -> %d \n", allocs->pciSegment);

	mov	rax, QWORD PTR allocs$5[rsp]
	movzx	eax, WORD PTR [rax+8]
	mov	edx, eax
	lea	rcx, OFFSET FLAT:$SG3618
	call	printf

; 151  : 				pcie_support = true;

	mov	BYTE PTR ?pcie_support@@3_NA, 1		; pcie_support
	jmp	SHORT $LN9@AuInitiali
$LN10@AuInitiali:

; 152  : 			//}
; 153  : 		}
; 154  : 		else if (!strncmp(sig, ACPI_SIG_HPET, strlen(ACPI_SIG_HPET))) {

	lea	rcx, OFFSET FLAT:$SG3621
	call	strlen
	mov	r8, rax
	lea	rdx, OFFSET FLAT:$SG3622
	lea	rcx, QWORD PTR sig$[rsp]
	call	strncmp
	test	eax, eax
	jne	SHORT $LN8@AuInitiali

; 155  : 			printf ("[ACPI]: HPET table found\n");

	lea	rcx, OFFSET FLAT:$SG3623
	call	printf
	jmp	SHORT $LN7@AuInitiali
$LN8@AuInitiali:

; 156  : 		}
; 157  : 		else if (!strncmp(sig, ACPI_SIG_MCHI, strlen(ACPI_SIG_MCHI))) {

	lea	rcx, OFFSET FLAT:$SG3626
	call	strlen
	mov	r8, rax
	lea	rdx, OFFSET FLAT:$SG3627
	lea	rcx, QWORD PTR sig$[rsp]
	call	strncmp
	test	eax, eax
	jne	SHORT $LN6@AuInitiali

; 158  : 			printf ("[ACPI]: Management Controller Host Interface Table\n");

	lea	rcx, OFFSET FLAT:$SG3628
	call	printf
$LN6@AuInitiali:
$LN7@AuInitiali:
$LN9@AuInitiali:
$LN11@AuInitiali:
$LN13@AuInitiali:
$LN26@AuInitiali:
$LN28@AuInitiali:

; 159  : 		}
; 160  : 
; 161  : 	}

	jmp	$LN31@AuInitiali
$LN30@AuInitiali:

; 162  : 
; 163  : 	if (kern_acpi.fadt && kern_acpi.fadt->facsAddr) {

	cmp	QWORD PTR ?kern_acpi@@3U_aurora_acpi_@@A+9, 0
	je	SHORT $LN5@AuInitiali
	mov	rax, QWORD PTR ?kern_acpi@@3U_aurora_acpi_@@A+9
	cmp	DWORD PTR [rax+36], 0
	je	SHORT $LN5@AuInitiali

; 164  : 
; 165  : 		kern_acpi.facs = (acpiFacs*)kern_acpi.fadt->facsAddr;

	mov	rax, QWORD PTR ?kern_acpi@@3U_aurora_acpi_@@A+9
	mov	eax, DWORD PTR [rax+36]
	mov	QWORD PTR ?kern_acpi@@3U_aurora_acpi_@@A+17, rax
$LN5@AuInitiali:

; 166  : 
; 167  : 	}
; 168  : 
; 169  : 	if (kern_acpi.fadt && kern_acpi.fadt->dsdtAddr) {

	cmp	QWORD PTR ?kern_acpi@@3U_aurora_acpi_@@A+9, 0
	je	$LN4@AuInitiali
	mov	rax, QWORD PTR ?kern_acpi@@3U_aurora_acpi_@@A+9
	cmp	DWORD PTR [rax+40], 0
	je	$LN4@AuInitiali

; 170  : 
; 171  : 		kern_acpi.dsdt = (acpiDsdt*)kern_acpi.fadt->dsdtAddr;

	mov	rax, QWORD PTR ?kern_acpi@@3U_aurora_acpi_@@A+9
	mov	eax, DWORD PTR [rax+40]
	mov	QWORD PTR ?kern_acpi@@3U_aurora_acpi_@@A+25, rax

; 172  : 		printf ("[ACPI]: Dsdt found -> %x\n", kern_acpi.dsdt);

	mov	rdx, QWORD PTR ?kern_acpi@@3U_aurora_acpi_@@A+25
	lea	rcx, OFFSET FLAT:$SG3633
	call	printf

; 173  : 		printf ("[ACPI]: Sci Interrupt -> %d\n", kern_acpi.fadt->sciInt);

	mov	rax, QWORD PTR ?kern_acpi@@3U_aurora_acpi_@@A+9
	movzx	eax, WORD PTR [rax+46]
	mov	edx, eax
	lea	rcx, OFFSET FLAT:$SG3634
	call	printf

; 174  : 		AuInterruptSet(kern_acpi.fadt->sciInt,fadt_handler, kern_acpi.fadt->sciInt, false);

	mov	rax, QWORD PTR ?kern_acpi@@3U_aurora_acpi_@@A+9
	movzx	eax, WORD PTR [rax+46]
	xor	r9d, r9d
	mov	rcx, QWORD PTR ?kern_acpi@@3U_aurora_acpi_@@A+9
	movzx	r8d, BYTE PTR [rcx+46]
	lea	rdx, OFFSET FLAT:?fadt_handler@@YAX_KPEAX@Z ; fadt_handler
	mov	ecx, eax
	call	AuInterruptSet

; 175  : 		uint8_t* S5Block = search_s5(kern_acpi.dsdt);

	mov	rcx, QWORD PTR ?kern_acpi@@3U_aurora_acpi_@@A+25
	call	?search_s5@@YAPEAEPEAUacpiDsdt@@@Z	; search_s5
	mov	QWORD PTR S5Block$1[rsp], rax

; 176  : 		if (S5Block != NULL) {

	cmp	QWORD PTR S5Block$1[rsp], 0
	je	$LN3@AuInitiali

; 177  : 			printf ("S5Block found\n");

	lea	rcx, OFFSET FLAT:$SG3637
	call	printf

; 178  : 			S5Block += 4;

	mov	rax, QWORD PTR S5Block$1[rsp]
	add	rax, 4
	mov	QWORD PTR S5Block$1[rsp], rax

; 179  : 			S5Block += ((*S5Block & 0xC0) >> 6) + 2;

	mov	rax, QWORD PTR S5Block$1[rsp]
	movzx	eax, BYTE PTR [rax]
	and	eax, 192				; 000000c0H
	sar	eax, 6
	add	eax, 2
	cdqe
	mov	rcx, QWORD PTR S5Block$1[rsp]
	add	rcx, rax
	mov	rax, rcx
	mov	QWORD PTR S5Block$1[rsp], rax

; 180  : 			
; 181  : 			if (*S5Block == 0x0A)

	mov	rax, QWORD PTR S5Block$1[rsp]
	movzx	eax, BYTE PTR [rax]
	cmp	eax, 10
	jne	SHORT $LN2@AuInitiali

; 182  : 				S5Block++;

	mov	rax, QWORD PTR S5Block$1[rsp]
	inc	rax
	mov	QWORD PTR S5Block$1[rsp], rax
$LN2@AuInitiali:

; 183  : 			kern_acpi.slp_typa = *S5Block;

	mov	rax, QWORD PTR S5Block$1[rsp]
	movzx	eax, BYTE PTR [rax]
	mov	WORD PTR ?kern_acpi@@3U_aurora_acpi_@@A+41, ax

; 184  : 			S5Block++;

	mov	rax, QWORD PTR S5Block$1[rsp]
	inc	rax
	mov	QWORD PTR S5Block$1[rsp], rax

; 185  : 
; 186  : 			if ( *S5Block == 0x0A)

	mov	rax, QWORD PTR S5Block$1[rsp]
	movzx	eax, BYTE PTR [rax]
	cmp	eax, 10
	jne	SHORT $LN1@AuInitiali

; 187  : 				S5Block++;

	mov	rax, QWORD PTR S5Block$1[rsp]
	inc	rax
	mov	QWORD PTR S5Block$1[rsp], rax
$LN1@AuInitiali:

; 188  : 
; 189  : 			kern_acpi.slp_typb = *S5Block;

	mov	rax, QWORD PTR S5Block$1[rsp]
	movzx	eax, BYTE PTR [rax]
	mov	WORD PTR ?kern_acpi@@3U_aurora_acpi_@@A+43, ax

; 190  : 			printf ("[ACPI]: SLP_typA -> %x, SLP_typB -> %x\n", kern_acpi.slp_typa, kern_acpi.slp_typb);

	movzx	eax, WORD PTR ?kern_acpi@@3U_aurora_acpi_@@A+43
	movzx	ecx, WORD PTR ?kern_acpi@@3U_aurora_acpi_@@A+41
	mov	r8d, eax
	mov	edx, ecx
	lea	rcx, OFFSET FLAT:$SG3640
	call	printf
$LN3@AuInitiali:
$LN4@AuInitiali:

; 191  : 		}
; 192  : 	}
; 193  : 	acpi_enable ();

	call	?acpi_enable@@YAXXZ			; acpi_enable

; 194  : }

	add	rsp, 136				; 00000088H
	ret	0
	npad	2
$LN35@AuInitiali:
	DD	$LN20@AuInitiali
	DD	$LN15@AuInitiali
	DD	$LN17@AuInitiali
	DD	$LN16@AuInitiali
	DD	$LN18@AuInitiali
	DD	$LN14@AuInitiali
?AuInitializeBasicAcpi@@YAXPEAX@Z ENDP			; AuInitializeBasicAcpi
_TEXT	ENDS
END
