; Listing generated by Microsoft (R) Optimizing Compiler Version 17.00.50727.1 

include listing.inc

INCLUDELIB LIBCMT
INCLUDELIB OLDNAMES

PUBLIC	?kern_acpi@@3PEAU_aurora_acpi_@@EA		; kern_acpi
_BSS	SEGMENT
?kern_acpi@@3PEAU_aurora_acpi_@@EA DQ 01H DUP (?)	; kern_acpi
_BSS	ENDS
CONST	SEGMENT
$SG3235	DB	'[ACPI]: data structures are incomplete', 0aH, 00H
$SG3238	DB	'[ACPI]: Already enabled', 0aH, 00H
	ORG $+7
$SG3241	DB	'[ACPI]: Enabled successfully', 0aH, 00H
	ORG $+2
$SG3243	DB	'[ACPI]: Verifying pm1bCtrlBlock ', 0aH, 00H
	ORG $+6
$SG3246	DB	'[ACPI]: Enabled successfully', 0aH, 00H
	ORG $+2
$SG3251	DB	'[ACPI]: Fadt interrupt fired', 0aH, 00H
	ORG $+2
$SG3273	DB	'FACP', 00H
	ORG $+3
$SG3274	DB	'FACP', 00H
	ORG $+3
$SG3276	DB	'[ACPI]: Fadt table found', 0aH, 00H
	ORG $+2
$SG3279	DB	'CIPA', 00H
	ORG $+3
$SG3280	DB	'APIC', 00H
	ORG $+7
$SG3282	DB	'[ACPI]: Madt table found', 0aH, 00H
	ORG $+2
$SG3285	DB	'SRAT', 00H
	ORG $+3
$SG3286	DB	'SRAT', 00H
	ORG $+7
$SG3287	DB	'[ACPI]: Srat table found', 0aH, 00H
	ORG $+2
$SG3290	DB	'MCFG', 00H
	ORG $+3
$SG3291	DB	'MCFG', 00H
	ORG $+7
$SG3292	DB	'[ACPI]: Mcfg table found', 0aH, 00H
	ORG $+6
$SG3297	DB	'[ACPI]: Dsdt found -> %x', 0aH, 00H
	ORG $+6
$SG3298	DB	'[ACPI]: Sci Interrupt -> %d', 0aH, 00H
	ORG $+3
$SG3301	DB	'S5Block found', 0aH, 00H
	ORG $+1
$SG3304	DB	'[ACPI]: SLP_typA -> %x, SLP_typB -> %x', 0aH, 00H
$SG3323	DB	'[ACPI]: Madt entry -> LAPIC ', 0aH, 00H
	ORG $+2
$SG3327	DB	'[ACPI]: Madt entry -> I/O APIC address -> %x, GSI -> %d', 0aH
	DB	00H
	ORG $+7
$SG3333	DB	'[ACPI]: Madt entry type = %d', 0aH, 00H
	ORG $+2
$SG3343	DB	'[ACPI]: Reset Address -> %x, Reset value -> %x', 0aH, 00H
	ORG $+8
$SG3331	DB	'[ACPI]: Madt entry -> Interrupt Source Override, GSI-> %'
	DB	'd SRC->%d', 0aH, 00H
	ORG $+5
$SG3346	DB	'Shutdown step1 complete', 0aH, 00H
	ORG $+7
$SG3348	DB	'[ACPI] pm1bCtrlBlock -> %x', 0aH, 00H
	ORG $+4
$SG3350	DB	0aH, 'Shutdown step2 complete', 0aH, 00H
	ORG $+6
$SG3351	DB	'[ACPI]: Shutdown failed', 0aH, 00H
CONST	ENDS
PUBLIC	?initialize_acpi@@YAXPEAX@Z			; initialize_acpi
PUBLIC	?acpi_parse_madt@@YAXXZ				; acpi_parse_madt
PUBLIC	?acpi_system_reboot@@YAXXZ			; acpi_system_reboot
PUBLIC	?search_s5@@YAPEAEPEAUacpiDsdt@@@Z		; search_s5
PUBLIC	?acpi_shutdown@@YAXXZ				; acpi_shutdown
PUBLIC	?acpi_power_button_enable@@YAXXZ		; acpi_power_button_enable
PUBLIC	?acpi_enable@@YAXXZ				; acpi_enable
PUBLIC	?fadt_handler@@YAX_KPEAX@Z			; fadt_handler
PUBLIC	??$raw_diff@U_acpi_apic_header_@@UacpiMadt@@@@YAHPEAU_acpi_apic_header_@@PEAUacpiMadt@@@Z ; raw_diff<_acpi_apic_header_,acpiMadt>
PUBLIC	??$raw_offset@PEAU_acpi_apic_header_@@PEAU1@@@YAPEAU_acpi_apic_header_@@PEAU0@H@Z ; raw_offset<_acpi_apic_header_ * __ptr64,_acpi_apic_header_ * __ptr64>
EXTRN	x64_inportw:PROC
EXTRN	x64_outportb:PROC
EXTRN	x64_outportw:PROC
EXTRN	?strlen@@YA_KPEBD@Z:PROC			; strlen
EXTRN	?strncmp@@YAHPEBD0_K@Z:PROC			; strncmp
EXTRN	?strncpy@@YAPEADPEADPEBD_K@Z:PROC		; strncpy
EXTRN	?pmmngr_alloc@@YAPEAXXZ:PROC			; pmmngr_alloc
EXTRN	?printf@@YAXPEBDZZ:PROC				; printf
EXTRN	?interrupt_end@@YAXI@Z:PROC			; interrupt_end
EXTRN	?interrupt_set@@YAX_KP6AX0PEAX@ZE@Z:PROC	; interrupt_set
pdata	SEGMENT
$pdata$?initialize_acpi@@YAXPEAX@Z DD imagerel $LN18
	DD	imagerel $LN18+890
	DD	imagerel $unwind$?initialize_acpi@@YAXPEAX@Z
$pdata$?acpi_parse_madt@@YAXXZ DD imagerel $LN11
	DD	imagerel $LN11+257
	DD	imagerel $unwind$?acpi_parse_madt@@YAXXZ
$pdata$?acpi_system_reboot@@YAXXZ DD imagerel $LN3
	DD	imagerel $LN3+92
	DD	imagerel $unwind$?acpi_system_reboot@@YAXXZ
$pdata$?search_s5@@YAPEAEPEAUacpiDsdt@@@Z DD imagerel $LN6
	DD	imagerel $LN6+104
	DD	imagerel $unwind$?search_s5@@YAPEAEPEAUacpiDsdt@@@Z
$pdata$?acpi_shutdown@@YAXXZ DD imagerel $LN7
	DD	imagerel $LN7+206
	DD	imagerel $unwind$?acpi_shutdown@@YAXXZ
$pdata$?acpi_power_button_enable@@YAXXZ DD imagerel $LN3
	DD	imagerel $LN3+129
	DD	imagerel $unwind$?acpi_power_button_enable@@YAXXZ
$pdata$?acpi_enable@@YAXXZ DD imagerel $LN9
	DD	imagerel $LN9+281
	DD	imagerel $unwind$?acpi_enable@@YAXXZ
$pdata$?fadt_handler@@YAX_KPEAX@Z DD imagerel $LN3
	DD	imagerel $LN3+41
	DD	imagerel $unwind$?fadt_handler@@YAX_KPEAX@Z
pdata	ENDS
xdata	SEGMENT
$unwind$?initialize_acpi@@YAXPEAX@Z DD 010901H
	DD	0c209H
$unwind$?acpi_parse_madt@@YAXXZ DD 010401H
	DD	08204H
$unwind$?acpi_system_reboot@@YAXXZ DD 010401H
	DD	04204H
$unwind$?search_s5@@YAPEAEPEAUacpiDsdt@@@Z DD 010901H
	DD	02209H
$unwind$?acpi_shutdown@@YAXXZ DD 010401H
	DD	04204H
$unwind$?acpi_power_button_enable@@YAXXZ DD 010401H
	DD	04204H
$unwind$?acpi_enable@@YAXXZ DD 010401H
	DD	06204H
$unwind$?fadt_handler@@YAX_KPEAX@Z DD 010e01H
	DD	0420eH
xdata	ENDS
; Function compile flags: /Odtp
; File e:\xeneva project\xeneva\aurora\include\stdint.h
;	COMDAT ??$raw_offset@PEAU_acpi_apic_header_@@PEAU1@@@YAPEAU_acpi_apic_header_@@PEAU0@H@Z
_TEXT	SEGMENT
p1$ = 8
offset$ = 16
??$raw_offset@PEAU_acpi_apic_header_@@PEAU1@@@YAPEAU_acpi_apic_header_@@PEAU0@H@Z PROC ; raw_offset<_acpi_apic_header_ * __ptr64,_acpi_apic_header_ * __ptr64>, COMDAT

; 182  : 	{

	mov	DWORD PTR [rsp+16], edx
	mov	QWORD PTR [rsp+8], rcx

; 183  : 		return (T) ((size_t)p1 + offset);

	movsxd	rax, DWORD PTR offset$[rsp]
	mov	rcx, QWORD PTR p1$[rsp]
	add	rcx, rax
	mov	rax, rcx

; 184  : 	}

	ret	0
??$raw_offset@PEAU_acpi_apic_header_@@PEAU1@@@YAPEAU_acpi_apic_header_@@PEAU0@H@Z ENDP ; raw_offset<_acpi_apic_header_ * __ptr64,_acpi_apic_header_ * __ptr64>
_TEXT	ENDS
; Function compile flags: /Odtp
; File e:\xeneva project\xeneva\aurora\include\stdint.h
;	COMDAT ??$raw_diff@U_acpi_apic_header_@@UacpiMadt@@@@YAHPEAU_acpi_apic_header_@@PEAUacpiMadt@@@Z
_TEXT	SEGMENT
p1$ = 8
p2$ = 16
??$raw_diff@U_acpi_apic_header_@@UacpiMadt@@@@YAHPEAU_acpi_apic_header_@@PEAUacpiMadt@@@Z PROC ; raw_diff<_acpi_apic_header_,acpiMadt>, COMDAT

; 178  : 	{

	mov	QWORD PTR [rsp+16], rdx
	mov	QWORD PTR [rsp+8], rcx

; 179  : 		return (intptr_t)p1 - (intptr_t)p2;

	mov	eax, DWORD PTR p2$[rsp]
	mov	ecx, DWORD PTR p1$[rsp]
	sub	ecx, eax
	mov	eax, ecx

; 180  : 	}

	ret	0
??$raw_diff@U_acpi_apic_header_@@UacpiMadt@@@@YAHPEAU_acpi_apic_header_@@PEAUacpiMadt@@@Z ENDP ; raw_diff<_acpi_apic_header_,acpiMadt>
_TEXT	ENDS
; Function compile flags: /Odtp
; File e:\xeneva project\xeneva\aurora\aurora\drivers\acpi\acpi.cpp
_TEXT	SEGMENT
v$ = 48
p$ = 56
?fadt_handler@@YAX_KPEAX@Z PROC				; fadt_handler

; 66   : void fadt_handler (size_t v, void* p) {

$LN3:
	mov	QWORD PTR [rsp+16], rdx
	mov	QWORD PTR [rsp+8], rcx
	sub	rsp, 40					; 00000028H

; 67   : 	printf ("[ACPI]: Fadt interrupt fired\n");

	lea	rcx, OFFSET FLAT:$SG3251
	call	?printf@@YAXPEBDZZ			; printf

; 68   : 	interrupt_end(9);

	mov	ecx, 9
	call	?interrupt_end@@YAXI@Z			; interrupt_end

; 69   : }

	add	rsp, 40					; 00000028H
	ret	0
?fadt_handler@@YAX_KPEAX@Z ENDP				; fadt_handler
_TEXT	ENDS
; Function compile flags: /Odtp
; File e:\xeneva project\xeneva\aurora\aurora\drivers\acpi\acpi.cpp
_TEXT	SEGMENT
word$ = 32
word_1$ = 36
word_3$1 = 40
?acpi_enable@@YAXXZ PROC				; acpi_enable

; 36   : void acpi_enable () {

$LN9:
	sub	rsp, 56					; 00000038H

; 37   : 	if (!kern_acpi->fadt || !kern_acpi->fadt->pm1aCtrlBlock) {

	mov	rax, QWORD PTR ?kern_acpi@@3PEAU_aurora_acpi_@@EA ; kern_acpi
	cmp	QWORD PTR [rax+9], 0
	je	SHORT $LN5@acpi_enabl
	mov	rax, QWORD PTR ?kern_acpi@@3PEAU_aurora_acpi_@@EA ; kern_acpi
	mov	rax, QWORD PTR [rax+9]
	cmp	DWORD PTR [rax+64], 0
	jne	SHORT $LN6@acpi_enabl
$LN5@acpi_enabl:

; 38   : 		printf ("[ACPI]: data structures are incomplete\n");

	lea	rcx, OFFSET FLAT:$SG3235
	call	?printf@@YAXPEBDZZ			; printf

; 39   : 		return;

	jmp	$LN7@acpi_enabl
$LN6@acpi_enabl:

; 40   : 	}
; 41   : 	uint16_t word = x64_inportw(kern_acpi->fadt->pm1aCtrlBlock);

	mov	rax, QWORD PTR ?kern_acpi@@3PEAU_aurora_acpi_@@EA ; kern_acpi
	mov	rax, QWORD PTR [rax+9]
	movzx	ecx, WORD PTR [rax+64]
	call	x64_inportw
	mov	WORD PTR word$[rsp], ax

; 42   : 	if ((word & ACPI_PMCTRL_SCI_EN) == 1) {

	movzx	eax, WORD PTR word$[rsp]
	and	eax, 1
	cmp	eax, 1
	jne	SHORT $LN4@acpi_enabl

; 43   : 		printf ("[ACPI]: Already enabled\n");

	lea	rcx, OFFSET FLAT:$SG3238
	call	?printf@@YAXPEBDZZ			; printf

; 44   : 		return;

	jmp	$LN7@acpi_enabl
$LN4@acpi_enabl:

; 45   : 	}
; 46   : 	x64_outportb (kern_acpi->fadt->sciCmdPort, kern_acpi->fadt->acpiEnable);

	mov	rax, QWORD PTR ?kern_acpi@@3PEAU_aurora_acpi_@@EA ; kern_acpi
	mov	rax, QWORD PTR [rax+9]
	mov	rcx, QWORD PTR ?kern_acpi@@3PEAU_aurora_acpi_@@EA ; kern_acpi
	mov	rcx, QWORD PTR [rcx+9]
	movzx	edx, BYTE PTR [rax+52]
	movzx	ecx, WORD PTR [rcx+48]
	call	x64_outportb

; 47   : 	uint16_t word_1 = x64_inportw(kern_acpi->fadt->pm1aCtrlBlock);

	mov	rax, QWORD PTR ?kern_acpi@@3PEAU_aurora_acpi_@@EA ; kern_acpi
	mov	rax, QWORD PTR [rax+9]
	movzx	ecx, WORD PTR [rax+64]
	call	x64_inportw
	mov	WORD PTR word_1$[rsp], ax

; 48   : 	if ((word_1 & ACPI_PMCTRL_SCI_EN) == 1){

	movzx	eax, WORD PTR word_1$[rsp]
	and	eax, 1
	cmp	eax, 1
	jne	SHORT $LN3@acpi_enabl

; 49   : 		printf ("[ACPI]: Enabled successfully\n");

	lea	rcx, OFFSET FLAT:$SG3241
	call	?printf@@YAXPEBDZZ			; printf
$LN3@acpi_enabl:

; 50   : 
; 51   : 	}
; 52   : 
; 53   : 	if (kern_acpi->fadt->pm1bCtrlBlock){

	mov	rax, QWORD PTR ?kern_acpi@@3PEAU_aurora_acpi_@@EA ; kern_acpi
	mov	rax, QWORD PTR [rax+9]
	cmp	DWORD PTR [rax+68], 0
	je	SHORT $LN2@acpi_enabl

; 54   : 		printf ("[ACPI]: Verifying pm1bCtrlBlock \n");

	lea	rcx, OFFSET FLAT:$SG3243
	call	?printf@@YAXPEBDZZ			; printf

; 55   : 		uint16_t word_3 = x64_inportw(kern_acpi->fadt->pm1bCtrlBlock);

	mov	rax, QWORD PTR ?kern_acpi@@3PEAU_aurora_acpi_@@EA ; kern_acpi
	mov	rax, QWORD PTR [rax+9]
	movzx	ecx, WORD PTR [rax+68]
	call	x64_inportw
	mov	WORD PTR word_3$1[rsp], ax

; 56   : 		if ((word_3 & ACPI_PMCTRL_SCI_EN) == 1){

	movzx	eax, WORD PTR word_3$1[rsp]
	and	eax, 1
	cmp	eax, 1
	jne	SHORT $LN1@acpi_enabl

; 57   : 			printf ("[ACPI]: Enabled successfully\n");

	lea	rcx, OFFSET FLAT:$SG3246
	call	?printf@@YAXPEBDZZ			; printf
$LN1@acpi_enabl:
$LN2@acpi_enabl:

; 58   : 		}
; 59   : 	}
; 60   : 
; 61   : 	acpi_power_button_enable();

	call	?acpi_power_button_enable@@YAXXZ	; acpi_power_button_enable
$LN7@acpi_enabl:

; 62   : 	return;
; 63   : }

	add	rsp, 56					; 00000038H
	ret	0
?acpi_enable@@YAXXZ ENDP				; acpi_enable
_TEXT	ENDS
; Function compile flags: /Odtp
; File e:\xeneva project\xeneva\aurora\aurora\drivers\acpi\acpi.cpp
_TEXT	SEGMENT
?acpi_power_button_enable@@YAXXZ PROC			; acpi_power_button_enable

; 27   : void acpi_power_button_enable () {

$LN3:
	sub	rsp, 40					; 00000028H

; 28   : 	x64_outportw (kern_acpi->fadt->pm1aEventBlock, (1<<5));

	mov	rax, QWORD PTR ?kern_acpi@@3PEAU_aurora_acpi_@@EA ; kern_acpi
	mov	rax, QWORD PTR [rax+9]
	mov	dx, 32					; 00000020H
	movzx	ecx, WORD PTR [rax+56]
	call	x64_outportw

; 29   : 	x64_outportw (kern_acpi->fadt->pm1aEventBlock, (1<<8));

	mov	rax, QWORD PTR ?kern_acpi@@3PEAU_aurora_acpi_@@EA ; kern_acpi
	mov	rax, QWORD PTR [rax+9]
	mov	dx, 256					; 00000100H
	movzx	ecx, WORD PTR [rax+56]
	call	x64_outportw

; 30   : 	x64_outportw (kern_acpi->fadt->pm1aEventBlock, (1<<5));

	mov	rax, QWORD PTR ?kern_acpi@@3PEAU_aurora_acpi_@@EA ; kern_acpi
	mov	rax, QWORD PTR [rax+9]
	mov	dx, 32					; 00000020H
	movzx	ecx, WORD PTR [rax+56]
	call	x64_outportw

; 31   : 	x64_outportw (kern_acpi->fadt->pm1aEventBlock, POWER_BUTTON_ENABLE);

	mov	rax, QWORD PTR ?kern_acpi@@3PEAU_aurora_acpi_@@EA ; kern_acpi
	mov	rax, QWORD PTR [rax+9]
	mov	dx, 256					; 00000100H
	movzx	ecx, WORD PTR [rax+56]
	call	x64_outportw

; 32   : 	x64_outportw (kern_acpi->fadt->pm1aEventBlock, (1<<9));

	mov	rax, QWORD PTR ?kern_acpi@@3PEAU_aurora_acpi_@@EA ; kern_acpi
	mov	rax, QWORD PTR [rax+9]
	mov	dx, 512					; 00000200H
	movzx	ecx, WORD PTR [rax+56]
	call	x64_outportw

; 33   : }

	add	rsp, 40					; 00000028H
	ret	0
?acpi_power_button_enable@@YAXXZ ENDP			; acpi_power_button_enable
_TEXT	ENDS
; Function compile flags: /Odtp
; File e:\xeneva project\xeneva\aurora\aurora\drivers\acpi\acpi.cpp
_TEXT	SEGMENT
?acpi_shutdown@@YAXXZ PROC				; acpi_shutdown

; 179  : void acpi_shutdown () {

$LN7:
	sub	rsp, 40					; 00000028H

; 180  : 	x64_outportw (kern_acpi->fadt->pm1aCtrlBlock, (kern_acpi->slp_typa << 0) | SLP_EN);

	mov	rax, QWORD PTR ?kern_acpi@@3PEAU_aurora_acpi_@@EA ; kern_acpi
	movzx	eax, WORD PTR [rax+33]
	bts	eax, 13
	mov	rcx, QWORD PTR ?kern_acpi@@3PEAU_aurora_acpi_@@EA ; kern_acpi
	mov	rcx, QWORD PTR [rcx+9]
	movzx	edx, ax
	movzx	ecx, WORD PTR [rcx+64]
	call	x64_outportw

; 181  : 	printf ("Shutdown step1 complete\n");

	lea	rcx, OFFSET FLAT:$SG3346
	call	?printf@@YAXPEBDZZ			; printf

; 182  : 
; 183  : 	if (kern_acpi->fadt->pm1bCtrlBlock){

	mov	rax, QWORD PTR ?kern_acpi@@3PEAU_aurora_acpi_@@EA ; kern_acpi
	mov	rax, QWORD PTR [rax+9]
	cmp	DWORD PTR [rax+68], 0
	je	SHORT $LN4@acpi_shutd

; 184  : 		printf ("[ACPI] pm1bCtrlBlock -> %x\n", kern_acpi->fadt->pm1bCtrlBlock);

	mov	rax, QWORD PTR ?kern_acpi@@3PEAU_aurora_acpi_@@EA ; kern_acpi
	mov	rax, QWORD PTR [rax+9]
	mov	edx, DWORD PTR [rax+68]
	lea	rcx, OFFSET FLAT:$SG3348
	call	?printf@@YAXPEBDZZ			; printf

; 185  : 		x64_outportw (kern_acpi->fadt->pm1bCtrlBlock,  (kern_acpi->slp_typb << 0) | SLP_EN);

	mov	rax, QWORD PTR ?kern_acpi@@3PEAU_aurora_acpi_@@EA ; kern_acpi
	movzx	eax, WORD PTR [rax+35]
	bts	eax, 13
	mov	rcx, QWORD PTR ?kern_acpi@@3PEAU_aurora_acpi_@@EA ; kern_acpi
	mov	rcx, QWORD PTR [rcx+9]
	movzx	edx, ax
	movzx	ecx, WORD PTR [rcx+68]
	call	x64_outportw

; 186  : 	} else {

	jmp	SHORT $LN3@acpi_shutd
$LN4@acpi_shutd:

; 187  : 		x64_outportw (kern_acpi->fadt->pm1aCtrlBlock, (kern_acpi->slp_typb << 0) | SLP_EN);

	mov	rax, QWORD PTR ?kern_acpi@@3PEAU_aurora_acpi_@@EA ; kern_acpi
	movzx	eax, WORD PTR [rax+35]
	bts	eax, 13
	mov	rcx, QWORD PTR ?kern_acpi@@3PEAU_aurora_acpi_@@EA ; kern_acpi
	mov	rcx, QWORD PTR [rcx+9]
	movzx	edx, ax
	movzx	ecx, WORD PTR [rcx+64]
	call	x64_outportw
$LN3@acpi_shutd:

; 188  : 	}
; 189  : 
; 190  : 	printf ("\nShutdown step2 complete\n");

	lea	rcx, OFFSET FLAT:$SG3350
	call	?printf@@YAXPEBDZZ			; printf

; 191  : 	printf ("[ACPI]: Shutdown failed\n");

	lea	rcx, OFFSET FLAT:$SG3351
	call	?printf@@YAXPEBDZZ			; printf
$LN2@acpi_shutd:

; 192  : 	for(;;);

	jmp	SHORT $LN2@acpi_shutd

; 193  : }

	add	rsp, 40					; 00000028H
	ret	0
?acpi_shutdown@@YAXXZ ENDP				; acpi_shutdown
_TEXT	ENDS
; Function compile flags: /Odtp
; File e:\xeneva project\xeneva\aurora\aurora\drivers\acpi\acpi.cpp
_TEXT	SEGMENT
l$ = 0
tv72 = 4
S5$ = 8
header$ = 32
?search_s5@@YAPEAEPEAUacpiDsdt@@@Z PROC			; search_s5

; 196  : uint8_t* search_s5 (acpiDsdt* header) {

$LN6:
	mov	QWORD PTR [rsp+8], rcx
	sub	rsp, 24

; 197  : 	uint32_t l;
; 198  : 	uint32_t* S5;
; 199  : 
; 200  : 	l = header->header.length - sizeof(acpiDsdt);

	mov	rax, QWORD PTR header$[rsp]
	mov	eax, DWORD PTR [rax+4]
	sub	rax, 36					; 00000024H
	mov	DWORD PTR l$[rsp], eax

; 201  : 	S5 = (uint32_t*)(header + sizeof(acpiDsdt));

	mov	rax, QWORD PTR header$[rsp]
	add	rax, 1296				; 00000510H
	mov	QWORD PTR S5$[rsp], rax
$LN3@search_s5:

; 202  : 	while(l--) {

	mov	eax, DWORD PTR l$[rsp]
	mov	DWORD PTR tv72[rsp], eax
	mov	eax, DWORD PTR l$[rsp]
	dec	eax
	mov	DWORD PTR l$[rsp], eax
	cmp	DWORD PTR tv72[rsp], 0
	je	SHORT $LN2@search_s5

; 203  : 		if (*S5 == (uint32_t)'_5S_') {

	mov	rax, QWORD PTR S5$[rsp]
	cmp	DWORD PTR [rax], 1597330271		; 5f35535fH
	jne	SHORT $LN1@search_s5

; 204  : 			return (uint8_t*)S5;

	mov	rax, QWORD PTR S5$[rsp]
	jmp	SHORT $LN4@search_s5
$LN1@search_s5:

; 205  : 		}
; 206  : 		S5 = (uint32_t*)((uint32_t)S5 + 1);

	mov	eax, DWORD PTR S5$[rsp]
	inc	eax
	mov	eax, eax
	mov	QWORD PTR S5$[rsp], rax

; 207  : 	}

	jmp	SHORT $LN3@search_s5
$LN2@search_s5:

; 208  : 
; 209  : 	return (uint8_t*)NULL;

	xor	eax, eax
$LN4@search_s5:

; 210  : }

	add	rsp, 24
	ret	0
?search_s5@@YAPEAEPEAUacpiDsdt@@@Z ENDP			; search_s5
_TEXT	ENDS
; Function compile flags: /Odtp
; File e:\xeneva project\xeneva\aurora\aurora\drivers\acpi\acpi.cpp
_TEXT	SEGMENT
?acpi_system_reboot@@YAXXZ PROC				; acpi_system_reboot

; 174  : void acpi_system_reboot () {

$LN3:
	sub	rsp, 40					; 00000028H

; 175  : 	printf ("[ACPI]: Reset Address -> %x, Reset value -> %x\n", kern_acpi->fadt->resetReg.address, kern_acpi->fadt->resetValue);

	mov	rax, QWORD PTR ?kern_acpi@@3PEAU_aurora_acpi_@@EA ; kern_acpi
	mov	rax, QWORD PTR [rax+9]
	movzx	eax, BYTE PTR [rax+127]
	mov	rcx, QWORD PTR ?kern_acpi@@3PEAU_aurora_acpi_@@EA ; kern_acpi
	mov	rcx, QWORD PTR [rcx+9]
	mov	r8d, eax
	mov	rdx, QWORD PTR [rcx+119]
	lea	rcx, OFFSET FLAT:$SG3343
	call	?printf@@YAXPEBDZZ			; printf

; 176  : 	x64_outportw (kern_acpi->fadt->resetReg.address, kern_acpi->fadt->resetValue);

	mov	rax, QWORD PTR ?kern_acpi@@3PEAU_aurora_acpi_@@EA ; kern_acpi
	mov	rax, QWORD PTR [rax+9]
	movzx	eax, BYTE PTR [rax+127]
	mov	rcx, QWORD PTR ?kern_acpi@@3PEAU_aurora_acpi_@@EA ; kern_acpi
	mov	rcx, QWORD PTR [rcx+9]
	movzx	edx, ax
	movzx	ecx, WORD PTR [rcx+119]
	call	x64_outportw

; 177  : }

	add	rsp, 40					; 00000028H
	ret	0
?acpi_system_reboot@@YAXXZ ENDP				; acpi_system_reboot
_TEXT	ENDS
; Function compile flags: /Odtp
; File e:\xeneva project\xeneva\aurora\aurora\drivers\acpi\acpi.cpp
_TEXT	SEGMENT
tv76 = 32
apic_header$ = 40
io_apic$1 = 48
over$2 = 56
?acpi_parse_madt@@YAXXZ PROC				; acpi_parse_madt

; 143  : void acpi_parse_madt () {

$LN11:
	sub	rsp, 72					; 00000048H

; 144  : 	acpiApicHeader *apic_header = (acpiApicHeader*)kern_acpi->madt->entry;

	mov	rax, QWORD PTR ?kern_acpi@@3PEAU_aurora_acpi_@@EA ; kern_acpi
	mov	rax, QWORD PTR [rax+1]
	add	rax, 44					; 0000002cH
	mov	QWORD PTR apic_header$[rsp], rax
$LN8@acpi_parse:

; 145  : 
; 146  : 	while (raw_diff(apic_header, kern_acpi->madt) < kern_acpi->madt->header.length) {

	mov	rax, QWORD PTR ?kern_acpi@@3PEAU_aurora_acpi_@@EA ; kern_acpi
	mov	rdx, QWORD PTR [rax+1]
	mov	rcx, QWORD PTR apic_header$[rsp]
	call	??$raw_diff@U_acpi_apic_header_@@UacpiMadt@@@@YAHPEAU_acpi_apic_header_@@PEAUacpiMadt@@@Z ; raw_diff<_acpi_apic_header_,acpiMadt>
	mov	rcx, QWORD PTR ?kern_acpi@@3PEAU_aurora_acpi_@@EA ; kern_acpi
	mov	rcx, QWORD PTR [rcx+1]
	cmp	eax, DWORD PTR [rcx+4]
	jae	$LN7@acpi_parse

; 147  : 		switch (apic_header->type) {

	mov	rax, QWORD PTR apic_header$[rsp]
	movzx	eax, BYTE PTR [rax]
	mov	BYTE PTR tv76[rsp], al
	cmp	BYTE PTR tv76[rsp], 0
	je	SHORT $LN4@acpi_parse
	cmp	BYTE PTR tv76[rsp], 1
	je	SHORT $LN3@acpi_parse
	cmp	BYTE PTR tv76[rsp], 2
	je	SHORT $LN2@acpi_parse
	jmp	SHORT $LN1@acpi_parse
$LN4@acpi_parse:

; 148  : 		case ACPI_APICTYPE_LAPIC: {
; 149  : 			printf ("[ACPI]: Madt entry -> LAPIC \n");

	lea	rcx, OFFSET FLAT:$SG3323
	call	?printf@@YAXPEBDZZ			; printf

; 150  : 			break;

	jmp	SHORT $LN5@acpi_parse
$LN3@acpi_parse:

; 151  : 		}							 
; 152  : 		case ACPI_APICTYPE_IOAPIC:{
; 153  : 			acpiIoApic *io_apic = (acpiIoApic*)apic_header;

	mov	rax, QWORD PTR apic_header$[rsp]
	mov	QWORD PTR io_apic$1[rsp], rax

; 154  : 			printf ("[ACPI]: Madt entry -> I/O APIC address -> %x, GSI -> %d\n",io_apic->ioApicAddr, io_apic->gsiBase );

	mov	rax, QWORD PTR io_apic$1[rsp]
	mov	r8d, DWORD PTR [rax+8]
	mov	rax, QWORD PTR io_apic$1[rsp]
	mov	edx, DWORD PTR [rax+4]
	lea	rcx, OFFSET FLAT:$SG3327
	call	?printf@@YAXPEBDZZ			; printf

; 155  : 			break;

	jmp	SHORT $LN5@acpi_parse
$LN2@acpi_parse:

; 156  : 		}
; 157  : 		case ACPI_APICTYPE_ISOVER:{
; 158  : 			apic_interrupt_override* over = (apic_interrupt_override*)apic_header;

	mov	rax, QWORD PTR apic_header$[rsp]
	mov	QWORD PTR over$2[rsp], rax

; 159  : 			
; 160  : 			printf ("[ACPI]: Madt entry -> Interrupt Source Override, GSI-> %d SRC->%d\n", over->interrupt, over->source);

	mov	rax, QWORD PTR over$2[rsp]
	movzx	eax, BYTE PTR [rax+3]
	mov	r8d, eax
	mov	rax, QWORD PTR over$2[rsp]
	mov	edx, DWORD PTR [rax+4]
	lea	rcx, OFFSET FLAT:$SG3331
	call	?printf@@YAXPEBDZZ			; printf

; 161  : 			break;

	jmp	SHORT $LN5@acpi_parse
$LN1@acpi_parse:

; 162  : 		}
; 163  : 		default:{
; 164  : 			printf ("[ACPI]: Madt entry type = %d\n", apic_header->type);

	mov	rax, QWORD PTR apic_header$[rsp]
	movzx	eax, BYTE PTR [rax]
	mov	edx, eax
	lea	rcx, OFFSET FLAT:$SG3333
	call	?printf@@YAXPEBDZZ			; printf
$LN5@acpi_parse:

; 165  : 			break;
; 166  : 		}
; 167  : 		}
; 168  : 
; 169  : 		apic_header = raw_offset <acpiApicHeader*>(apic_header, apic_header->length);

	mov	rax, QWORD PTR apic_header$[rsp]
	movzx	eax, BYTE PTR [rax+1]
	mov	edx, eax
	mov	rcx, QWORD PTR apic_header$[rsp]
	call	??$raw_offset@PEAU_acpi_apic_header_@@PEAU1@@@YAPEAU_acpi_apic_header_@@PEAU0@H@Z ; raw_offset<_acpi_apic_header_ * __ptr64,_acpi_apic_header_ * __ptr64>
	mov	QWORD PTR apic_header$[rsp], rax

; 170  : 	}

	jmp	$LN8@acpi_parse
$LN7@acpi_parse:

; 171  : }

	add	rsp, 72					; 00000048H
	ret	0
?acpi_parse_madt@@YAXXZ ENDP				; acpi_parse_madt
_TEXT	ENDS
; Function compile flags: /Odtp
; File e:\xeneva project\xeneva\aurora\aurora\drivers\acpi\acpi.cpp
_TEXT	SEGMENT
count$1 = 32
entries$ = 36
sig$ = 40
S5Block$2 = 48
header$ = 56
rsdp$ = 64
rsdt$ = 72
xsdt$ = 80
acpi_base$ = 112
?initialize_acpi@@YAXPEAX@Z PROC			; initialize_acpi

; 72   : void initialize_acpi (void* acpi_base) {

$LN18:
	mov	QWORD PTR [rsp+8], rcx
	sub	rsp, 104				; 00000068H

; 73   : 	kern_acpi = (aurora_acpi*)pmmngr_alloc();

	call	?pmmngr_alloc@@YAPEAXXZ			; pmmngr_alloc
	mov	QWORD PTR ?kern_acpi@@3PEAU_aurora_acpi_@@EA, rax ; kern_acpi

; 74   : 	acpiRsdp *rsdp = (acpiRsdp*)acpi_base;

	mov	rax, QWORD PTR acpi_base$[rsp]
	mov	QWORD PTR rsdp$[rsp], rax

; 75   : 	acpiRsdt *rsdt = (acpiRsdt*)rsdp->rsdtAddr;

	mov	rax, QWORD PTR rsdp$[rsp]
	mov	eax, DWORD PTR [rax+16]
	mov	QWORD PTR rsdt$[rsp], rax

; 76   : 	acpiXsdt *xsdt = (acpiXsdt*)rsdp->xsdtAddr;

	mov	rax, QWORD PTR rsdp$[rsp]
	mov	rax, QWORD PTR [rax+24]
	mov	QWORD PTR xsdt$[rsp], rax

; 77   : 	char sig[5];
; 78   : 	int entries = ((rsdt->header.length - sizeof(acpiRsdt)) / sizeof(void*));

	mov	rax, QWORD PTR rsdt$[rsp]
	mov	eax, DWORD PTR [rax+4]
	sub	rax, 36					; 00000024H
	xor	edx, edx
	mov	ecx, 8
	div	rcx
	mov	DWORD PTR entries$[rsp], eax

; 79   : 
; 80   : 	acpiSysDescHeader* header = nullptr;

	mov	QWORD PTR header$[rsp], 0

; 81   : 
; 82   : 	for (int count = 0; count < entries; count++) {

	mov	DWORD PTR count$1[rsp], 0
	jmp	SHORT $LN15@initialize
$LN14@initialize:
	mov	eax, DWORD PTR count$1[rsp]
	inc	eax
	mov	DWORD PTR count$1[rsp], eax
$LN15@initialize:
	mov	eax, DWORD PTR entries$[rsp]
	cmp	DWORD PTR count$1[rsp], eax
	jge	$LN13@initialize

; 83   : 		header = (acpiSysDescHeader*)rsdt->entry[count];

	movsxd	rax, DWORD PTR count$1[rsp]
	mov	rcx, QWORD PTR rsdt$[rsp]
	mov	eax, DWORD PTR [rcx+rax*4+36]
	mov	QWORD PTR header$[rsp], rax

; 84   : 		strncpy (sig, header->signature, 4);

	mov	rax, QWORD PTR header$[rsp]
	mov	r8d, 4
	mov	rdx, rax
	lea	rcx, QWORD PTR sig$[rsp]
	call	?strncpy@@YAPEADPEADPEBD_K@Z		; strncpy

; 85   : 		sig[4] = '\0';

	mov	eax, 1
	imul	rax, 4
	mov	BYTE PTR sig$[rsp+rax], 0

; 86   : 
; 87   : 
; 88   : 		if (!strncmp(sig, ACPI_SIG_FADT, strlen(ACPI_SIG_FADT))) {

	lea	rcx, OFFSET FLAT:$SG3273
	call	?strlen@@YA_KPEBD@Z			; strlen
	mov	r8, rax
	lea	rdx, OFFSET FLAT:$SG3274
	lea	rcx, QWORD PTR sig$[rsp]
	call	?strncmp@@YAHPEBD0_K@Z			; strncmp
	test	eax, eax
	jne	SHORT $LN12@initialize

; 89   : 			kern_acpi->fadt = (acpiFadt*) header;

	mov	rax, QWORD PTR ?kern_acpi@@3PEAU_aurora_acpi_@@EA ; kern_acpi
	mov	rcx, QWORD PTR header$[rsp]
	mov	QWORD PTR [rax+9], rcx

; 90   : 			printf ("[ACPI]: Fadt table found\n");

	lea	rcx, OFFSET FLAT:$SG3276
	call	?printf@@YAXPEBDZZ			; printf
	jmp	$LN11@initialize
$LN12@initialize:

; 91   : 		}
; 92   : 		 
; 93   : 		else if (!strncmp(sig, ACPI_SIG_APIC, strlen("CIPA"))) {

	lea	rcx, OFFSET FLAT:$SG3279
	call	?strlen@@YA_KPEBD@Z			; strlen
	mov	r8, rax
	lea	rdx, OFFSET FLAT:$SG3280
	lea	rcx, QWORD PTR sig$[rsp]
	call	?strncmp@@YAHPEBD0_K@Z			; strncmp
	test	eax, eax
	jne	SHORT $LN10@initialize

; 94   : 			kern_acpi->madt = (acpiMadt*) header;

	mov	rax, QWORD PTR ?kern_acpi@@3PEAU_aurora_acpi_@@EA ; kern_acpi
	mov	rcx, QWORD PTR header$[rsp]
	mov	QWORD PTR [rax+1], rcx

; 95   : 			printf ("[ACPI]: Madt table found\n");

	lea	rcx, OFFSET FLAT:$SG3282
	call	?printf@@YAXPEBDZZ			; printf

; 96   : 			acpi_parse_madt ();

	call	?acpi_parse_madt@@YAXXZ			; acpi_parse_madt
	jmp	SHORT $LN9@initialize
$LN10@initialize:

; 97   : 		}
; 98   : 
; 99   : 		else if (!strncmp(sig, ACPI_SIG_SRAT, strlen(ACPI_SIG_SRAT))) {

	lea	rcx, OFFSET FLAT:$SG3285
	call	?strlen@@YA_KPEBD@Z			; strlen
	mov	r8, rax
	lea	rdx, OFFSET FLAT:$SG3286
	lea	rcx, QWORD PTR sig$[rsp]
	call	?strncmp@@YAHPEBD0_K@Z			; strncmp
	test	eax, eax
	jne	SHORT $LN8@initialize

; 100  : 			printf ("[ACPI]: Srat table found\n");

	lea	rcx, OFFSET FLAT:$SG3287
	call	?printf@@YAXPEBDZZ			; printf
	jmp	SHORT $LN7@initialize
$LN8@initialize:

; 101  : 		}
; 102  : 
; 103  : 		else if (!strncmp(sig, ACPI_SIG_MCFG, strlen(ACPI_SIG_MCFG))) {

	lea	rcx, OFFSET FLAT:$SG3290
	call	?strlen@@YA_KPEBD@Z			; strlen
	mov	r8, rax
	lea	rdx, OFFSET FLAT:$SG3291
	lea	rcx, QWORD PTR sig$[rsp]
	call	?strncmp@@YAHPEBD0_K@Z			; strncmp
	test	eax, eax
	jne	SHORT $LN6@initialize

; 104  : 			printf ("[ACPI]: Mcfg table found\n");

	lea	rcx, OFFSET FLAT:$SG3292
	call	?printf@@YAXPEBDZZ			; printf
$LN6@initialize:
$LN7@initialize:
$LN9@initialize:
$LN11@initialize:

; 105  : 		}
; 106  : 	}

	jmp	$LN14@initialize
$LN13@initialize:

; 107  : 
; 108  : 	if (kern_acpi->fadt && kern_acpi->fadt->facsAddr) {

	mov	rax, QWORD PTR ?kern_acpi@@3PEAU_aurora_acpi_@@EA ; kern_acpi
	cmp	QWORD PTR [rax+9], 0
	je	SHORT $LN5@initialize
	mov	rax, QWORD PTR ?kern_acpi@@3PEAU_aurora_acpi_@@EA ; kern_acpi
	mov	rax, QWORD PTR [rax+9]
	cmp	DWORD PTR [rax+36], 0
	je	SHORT $LN5@initialize

; 109  : 
; 110  : 		kern_acpi->facs = (acpiFacs*)kern_acpi->fadt->facsAddr;

	mov	rax, QWORD PTR ?kern_acpi@@3PEAU_aurora_acpi_@@EA ; kern_acpi
	mov	rax, QWORD PTR [rax+9]
	mov	eax, DWORD PTR [rax+36]
	mov	rcx, QWORD PTR ?kern_acpi@@3PEAU_aurora_acpi_@@EA ; kern_acpi
	mov	QWORD PTR [rcx+17], rax
$LN5@initialize:

; 111  : 
; 112  : 	}
; 113  : 
; 114  : 	if (kern_acpi->fadt && kern_acpi->fadt->dsdtAddr) {

	mov	rax, QWORD PTR ?kern_acpi@@3PEAU_aurora_acpi_@@EA ; kern_acpi
	cmp	QWORD PTR [rax+9], 0
	je	$LN4@initialize
	mov	rax, QWORD PTR ?kern_acpi@@3PEAU_aurora_acpi_@@EA ; kern_acpi
	mov	rax, QWORD PTR [rax+9]
	cmp	DWORD PTR [rax+40], 0
	je	$LN4@initialize

; 115  : 
; 116  : 		kern_acpi->dsdt = (acpiDsdt*)kern_acpi->fadt->dsdtAddr;

	mov	rax, QWORD PTR ?kern_acpi@@3PEAU_aurora_acpi_@@EA ; kern_acpi
	mov	rax, QWORD PTR [rax+9]
	mov	eax, DWORD PTR [rax+40]
	mov	rcx, QWORD PTR ?kern_acpi@@3PEAU_aurora_acpi_@@EA ; kern_acpi
	mov	QWORD PTR [rcx+25], rax

; 117  : 		printf ("[ACPI]: Dsdt found -> %x\n", kern_acpi->dsdt);

	mov	rax, QWORD PTR ?kern_acpi@@3PEAU_aurora_acpi_@@EA ; kern_acpi
	mov	rdx, QWORD PTR [rax+25]
	lea	rcx, OFFSET FLAT:$SG3297
	call	?printf@@YAXPEBDZZ			; printf

; 118  : 		printf ("[ACPI]: Sci Interrupt -> %d\n", kern_acpi->fadt->sciInt);

	mov	rax, QWORD PTR ?kern_acpi@@3PEAU_aurora_acpi_@@EA ; kern_acpi
	mov	rax, QWORD PTR [rax+9]
	movzx	eax, WORD PTR [rax+46]
	mov	edx, eax
	lea	rcx, OFFSET FLAT:$SG3298
	call	?printf@@YAXPEBDZZ			; printf

; 119  : 		interrupt_set(kern_acpi->fadt->sciInt,fadt_handler, kern_acpi->fadt->sciInt);

	mov	rax, QWORD PTR ?kern_acpi@@3PEAU_aurora_acpi_@@EA ; kern_acpi
	mov	rax, QWORD PTR [rax+9]
	mov	rcx, QWORD PTR ?kern_acpi@@3PEAU_aurora_acpi_@@EA ; kern_acpi
	mov	rcx, QWORD PTR [rcx+9]
	movzx	ecx, WORD PTR [rcx+46]
	movzx	r8d, BYTE PTR [rax+46]
	lea	rdx, OFFSET FLAT:?fadt_handler@@YAX_KPEAX@Z ; fadt_handler
	call	?interrupt_set@@YAX_KP6AX0PEAX@ZE@Z	; interrupt_set

; 120  : 		uint8_t* S5Block = search_s5(kern_acpi->dsdt);

	mov	rax, QWORD PTR ?kern_acpi@@3PEAU_aurora_acpi_@@EA ; kern_acpi
	mov	rcx, QWORD PTR [rax+25]
	call	?search_s5@@YAPEAEPEAUacpiDsdt@@@Z	; search_s5
	mov	QWORD PTR S5Block$2[rsp], rax

; 121  : 		if (S5Block != NULL) {

	cmp	QWORD PTR S5Block$2[rsp], 0
	je	$LN3@initialize

; 122  : 			printf ("S5Block found\n");

	lea	rcx, OFFSET FLAT:$SG3301
	call	?printf@@YAXPEBDZZ			; printf

; 123  : 			S5Block += 4;

	mov	rax, QWORD PTR S5Block$2[rsp]
	add	rax, 4
	mov	QWORD PTR S5Block$2[rsp], rax

; 124  : 			S5Block += ((*S5Block & 0xC0) >> 6) + 2;

	mov	rax, QWORD PTR S5Block$2[rsp]
	movzx	eax, BYTE PTR [rax]
	and	eax, 192				; 000000c0H
	sar	eax, 6
	add	eax, 2
	cdqe
	mov	rcx, QWORD PTR S5Block$2[rsp]
	add	rcx, rax
	mov	rax, rcx
	mov	QWORD PTR S5Block$2[rsp], rax

; 125  : 			
; 126  : 			if (*S5Block == 0x0A)

	mov	rax, QWORD PTR S5Block$2[rsp]
	movzx	eax, BYTE PTR [rax]
	cmp	eax, 10
	jne	SHORT $LN2@initialize

; 127  : 				S5Block++;

	mov	rax, QWORD PTR S5Block$2[rsp]
	inc	rax
	mov	QWORD PTR S5Block$2[rsp], rax
$LN2@initialize:

; 128  : 			kern_acpi->slp_typa = *S5Block;

	mov	rax, QWORD PTR S5Block$2[rsp]
	movzx	eax, BYTE PTR [rax]
	mov	rcx, QWORD PTR ?kern_acpi@@3PEAU_aurora_acpi_@@EA ; kern_acpi
	mov	WORD PTR [rcx+33], ax

; 129  : 			S5Block++;

	mov	rax, QWORD PTR S5Block$2[rsp]
	inc	rax
	mov	QWORD PTR S5Block$2[rsp], rax

; 130  : 
; 131  : 			if ( *S5Block == 0x0A)

	mov	rax, QWORD PTR S5Block$2[rsp]
	movzx	eax, BYTE PTR [rax]
	cmp	eax, 10
	jne	SHORT $LN1@initialize

; 132  : 				S5Block++;

	mov	rax, QWORD PTR S5Block$2[rsp]
	inc	rax
	mov	QWORD PTR S5Block$2[rsp], rax
$LN1@initialize:

; 133  : 
; 134  : 			kern_acpi->slp_typb = *S5Block;

	mov	rax, QWORD PTR S5Block$2[rsp]
	movzx	eax, BYTE PTR [rax]
	mov	rcx, QWORD PTR ?kern_acpi@@3PEAU_aurora_acpi_@@EA ; kern_acpi
	mov	WORD PTR [rcx+35], ax

; 135  : 			printf ("[ACPI]: SLP_typA -> %x, SLP_typB -> %x\n", kern_acpi->slp_typa, kern_acpi->slp_typb);

	mov	rax, QWORD PTR ?kern_acpi@@3PEAU_aurora_acpi_@@EA ; kern_acpi
	movzx	eax, WORD PTR [rax+35]
	mov	rcx, QWORD PTR ?kern_acpi@@3PEAU_aurora_acpi_@@EA ; kern_acpi
	movzx	ecx, WORD PTR [rcx+33]
	mov	r8d, eax
	mov	edx, ecx
	lea	rcx, OFFSET FLAT:$SG3304
	call	?printf@@YAXPEBDZZ			; printf
$LN3@initialize:
$LN4@initialize:

; 136  : 		}
; 137  : 	}
; 138  : 	acpi_enable ();

	call	?acpi_enable@@YAXXZ			; acpi_enable

; 139  : }

	add	rsp, 104				; 00000068H
	ret	0
?initialize_acpi@@YAXPEAX@Z ENDP			; initialize_acpi
_TEXT	ENDS
END
