; Listing generated by Microsoft (R) Optimizing Compiler Version 17.00.50727.1 

include listing.inc

INCLUDELIB LIBCMT
INCLUDELIB OLDNAMES

PUBLIC	?drivers@@3PAPEAU_aurora_driver_@@A		; drivers
_BSS	SEGMENT
?drivers@@3PAPEAU_aurora_driver_@@A DQ 0100H DUP (?)	; drivers
driver_class_unique_id DD 01H DUP (?)
_BSS	ENDS
CONST	SEGMENT
$SG3965	DB	'driver file loaded size -> %d bytes', 0aH, 00H
	ORG $+3
$SG3968	DB	'AuDriverMain', 00H
	ORG $+3
$SG3969	DB	'driver entry address -> %x ', 0aH, 00H
	ORG $+3
$SG3974	DB	'[aurora]: initializing drivers, please wait... ', 0aH, 00H
	ORG $+7
$SG3980	DB	'/audrv.cnf', 00H
CONST	ENDS
PUBLIC	?AuDrvMngrInitialize@@YAXPEAU_KERNEL_BOOT_INFO_@@@Z ; AuDrvMngrInitialize
PUBLIC	?AuRequestDriverId@@YAIXZ			; AuRequestDriverId
PUBLIC	?AuDecreaseDriverId@@YAXXZ			; AuDecreaseDriverId
PUBLIC	?AuGetConfEntry@@YAPEADIIPEAEH@Z		; AuGetConfEntry
PUBLIC	?AuCreateDriverInstance@@YAXPEAD@Z		; AuCreateDriverInstance
PUBLIC	?AuGetDriverName@@YAXIIPEAEH@Z			; AuGetDriverName
PUBLIC	?AuDriverLoad@@YAXPEADPEAU_aurora_driver_@@@Z	; AuDriverLoad
EXTRN	x64_cli:PROC
EXTRN	x64_sti:PROC
EXTRN	?strcpy@@YAPEADPEADPEBD@Z:PROC			; strcpy
EXTRN	?strchr@@YAPEADPEADH@Z:PROC			; strchr
EXTRN	?memset@@YAXPEAXEI@Z:PROC			; memset
EXTRN	?atoi@@YAHPEBD@Z:PROC				; atoi
EXTRN	printf:PROC
EXTRN	?read_config_header@@YAXHHHPEATpci_device_info@@@Z:PROC ; read_config_header
EXTRN	?read_config_32@@YAXGHHHHI@Z:PROC		; read_config_32
EXTRN	?AuGetProcAddress@@YAPEAXPEAXPEBD@Z:PROC	; AuGetProcAddress
EXTRN	?AuPeLinkLibrary@@YAXPEAX@Z:PROC		; AuPeLinkLibrary
EXTRN	?AuPmmngrAlloc@@YAPEAXXZ:PROC			; AuPmmngrAlloc
EXTRN	?p2v@@YA_K_K@Z:PROC				; p2v
EXTRN	?v2p@@YA_K_K@Z:PROC				; v2p
EXTRN	AuMapPage:PROC
EXTRN	?malloc@@YAPEAX_K@Z:PROC			; malloc
EXTRN	?fat32_open@@YA?AU_vfs_node_@@PEAU1@PEAD@Z:PROC	; fat32_open
EXTRN	?fat32_read_file@@YAXPEAU_vfs_node_@@PEA_KI@Z:PROC ; fat32_read_file
EXTRN	?fat32_read@@YAXPEAU_vfs_node_@@PEA_K@Z:PROC	; fat32_read
pdata	SEGMENT
$pdata$?AuDrvMngrInitialize@@YAXPEAU_KERNEL_BOOT_INFO_@@@Z DD imagerel $LN17
	DD	imagerel $LN17+539
	DD	imagerel $unwind$?AuDrvMngrInitialize@@YAXPEAU_KERNEL_BOOT_INFO_@@@Z
$pdata$?AuRequestDriverId@@YAIXZ DD imagerel $LN3
	DD	imagerel $LN3+35
	DD	imagerel $unwind$?AuRequestDriverId@@YAIXZ
$pdata$?AuGetConfEntry@@YAPEADIIPEAEH@Z DD imagerel $LN21
	DD	imagerel $LN21+576
	DD	imagerel $unwind$?AuGetConfEntry@@YAPEADIIPEAEH@Z
$pdata$?AuCreateDriverInstance@@YAXPEAD@Z DD imagerel $LN3
	DD	imagerel $LN3+114
	DD	imagerel $unwind$?AuCreateDriverInstance@@YAXPEAD@Z
$pdata$?AuGetDriverName@@YAXIIPEAEH@Z DD imagerel $LN9
	DD	imagerel $LN9+234
	DD	imagerel $unwind$?AuGetDriverName@@YAXIIPEAEH@Z
$pdata$?AuDriverLoad@@YAXPEADPEAU_aurora_driver_@@@Z DD imagerel $LN3
	DD	imagerel $LN3+314
	DD	imagerel $unwind$?AuDriverLoad@@YAXPEADPEAU_aurora_driver_@@@Z
pdata	ENDS
xdata	SEGMENT
$unwind$?AuDrvMngrInitialize@@YAXPEAU_KERNEL_BOOT_INFO_@@@Z DD 040e01H
	DD	055010eH
	DD	060067007H
$unwind$?AuRequestDriverId@@YAIXZ DD 010401H
	DD	02204H
$unwind$?AuGetConfEntry@@YAPEADIIPEAEH@Z DD 011601H
	DD	0a216H
$unwind$?AuCreateDriverInstance@@YAXPEAD@Z DD 010901H
	DD	06209H
$unwind$?AuGetDriverName@@YAXIIPEAEH@Z DD 011601H
	DD	0c216H
$unwind$?AuDriverLoad@@YAXPEADPEAU_aurora_driver_@@@Z DD 041301H
	DD	02f0113H
	DD	0600b700cH
xdata	ENDS
; Function compile flags: /Odtpy
; File e:\xeneva project\xeneva\aurora\aurora\audrv.cpp
_TEXT	SEGMENT
buffer$ = 32
entry_addr$ = 40
file$ = 48
$T1 = 160
$T2 = 264
filename$ = 400
driver$ = 408
?AuDriverLoad@@YAXPEADPEAU_aurora_driver_@@@Z PROC	; AuDriverLoad

; 163  : void AuDriverLoad (char* filename, aurora_driver_t *driver) {

$LN3:
	mov	QWORD PTR [rsp+16], rdx
	mov	QWORD PTR [rsp+8], rcx
	push	rsi
	push	rdi
	sub	rsp, 376				; 00000178H

; 164  : 	vfs_node_t file = fat32_open(NULL, filename);

	mov	r8, QWORD PTR filename$[rsp]
	xor	edx, edx
	lea	rcx, QWORD PTR $T2[rsp]
	call	?fat32_open@@YA?AU_vfs_node_@@PEAU1@PEAD@Z ; fat32_open
	lea	rcx, QWORD PTR $T1[rsp]
	mov	rdi, rcx
	mov	rsi, rax
	mov	ecx, 104				; 00000068H
	rep movsb
	lea	rax, QWORD PTR file$[rsp]
	lea	rcx, QWORD PTR $T1[rsp]
	mov	rdi, rax
	mov	rsi, rcx
	mov	ecx, 104				; 00000068H
	rep movsb

; 165  : 	uint64_t* buffer = (uint64_t*)AuPmmngrAlloc();

	call	?AuPmmngrAlloc@@YAPEAXXZ		; AuPmmngrAlloc
	mov	QWORD PTR buffer$[rsp], rax

; 166  : 	memset(buffer, 0, 4096);

	mov	r8d, 4096				; 00001000H
	xor	edx, edx
	mov	rcx, QWORD PTR buffer$[rsp]
	call	?memset@@YAXPEAXEI@Z			; memset

; 167  : 	fat32_read(&file, buffer);

	mov	rdx, QWORD PTR buffer$[rsp]
	lea	rcx, QWORD PTR file$[rsp]
	call	?fat32_read@@YAXPEAU_vfs_node_@@PEA_K@Z	; fat32_read

; 168  : 	AuMapPage((uint64_t)buffer,AU_DRIVER_BASE_START,0);

	xor	r8d, r8d
	mov	rdx, -70368739983360			; ffffc00000400000H
	mov	rcx, QWORD PTR buffer$[rsp]
	call	AuMapPage

; 169  : 	printf ("driver file loaded size -> %d bytes\n", file.size);

	mov	edx, DWORD PTR file$[rsp+32]
	lea	rcx, OFFSET FLAT:$SG3965
	call	printf

; 170  : 
; 171  : 	void* entry_addr = AuGetProcAddress((void*)AU_DRIVER_BASE_START,"AuDriverMain");

	lea	rdx, OFFSET FLAT:$SG3968
	mov	rcx, -70368739983360			; ffffc00000400000H
	call	?AuGetProcAddress@@YAPEAXPEAXPEBD@Z	; AuGetProcAddress
	mov	QWORD PTR entry_addr$[rsp], rax

; 172  : 	printf ("driver entry address -> %x \n", entry_addr);

	mov	rdx, QWORD PTR entry_addr$[rsp]
	lea	rcx, OFFSET FLAT:$SG3969
	call	printf

; 173  : 	AuPeLinkLibrary(buffer);

	mov	rcx, QWORD PTR buffer$[rsp]
	call	?AuPeLinkLibrary@@YAXPEAX@Z		; AuPeLinkLibrary

; 174  : 	driver->entry = (au_drv_entry)entry_addr;

	mov	rax, QWORD PTR driver$[rsp]
	mov	rcx, QWORD PTR entry_addr$[rsp]
	mov	QWORD PTR [rax+56], rcx

; 175  : 	driver->base = AU_DRIVER_BASE_START;

	mov	rax, QWORD PTR driver$[rsp]
	mov	rcx, -70368739983360			; ffffc00000400000H
	mov	QWORD PTR [rax+40], rcx

; 176  : 	driver->end = driver->base + file.size;

	mov	eax, DWORD PTR file$[rsp+32]
	mov	rcx, QWORD PTR driver$[rsp]
	add	rax, QWORD PTR [rcx+40]
	mov	rcx, QWORD PTR driver$[rsp]
	mov	QWORD PTR [rcx+48], rax

; 177  : 	driver->present = true;

	mov	rax, QWORD PTR driver$[rsp]
	mov	BYTE PTR [rax+34], 1

; 178  : }

	add	rsp, 376				; 00000178H
	pop	rdi
	pop	rsi
	ret	0
?AuDriverLoad@@YAXPEADPEAU_aurora_driver_@@@Z ENDP	; AuDriverLoad
_TEXT	ENDS
; Function compile flags: /Odtpy
; File e:\xeneva project\xeneva\aurora\aurora\audrv.cpp
_TEXT	SEGMENT
i$ = 32
p$ = 40
offset$ = 48
drivername$ = 56
vendor_id$ = 112
device_id$ = 120
buffer$ = 128
entryoff$ = 136
?AuGetDriverName@@YAXIIPEAEH@Z PROC			; AuGetDriverName

; 136  : void AuGetDriverName (uint32_t vendor_id, uint32_t device_id,uint8_t* buffer,int entryoff) {

$LN9:
	mov	DWORD PTR [rsp+32], r9d
	mov	QWORD PTR [rsp+24], r8
	mov	DWORD PTR [rsp+16], edx
	mov	DWORD PTR [rsp+8], ecx
	sub	rsp, 104				; 00000068H

; 137  : 
; 138  : 	/* Get the entry offset for required device driver */
; 139  : 	char* offset = AuGetConfEntry(vendor_id, device_id, buffer, entryoff);

	mov	r9d, DWORD PTR entryoff$[rsp]
	mov	r8, QWORD PTR buffer$[rsp]
	mov	edx, DWORD PTR device_id$[rsp]
	mov	ecx, DWORD PTR vendor_id$[rsp]
	call	?AuGetConfEntry@@YAPEADIIPEAEH@Z	; AuGetConfEntry
	mov	QWORD PTR offset$[rsp], rax

; 140  : 
; 141  : 	if (offset == NULL)

	cmp	QWORD PTR offset$[rsp], 0
	jne	SHORT $LN6@AuGetDrive

; 142  : 		return;

	jmp	$LN7@AuGetDrive
$LN6@AuGetDrive:

; 143  : 	char *p = strchr(offset, ']');

	mov	edx, 93					; 0000005dH
	mov	rcx, QWORD PTR offset$[rsp]
	call	?strchr@@YAPEADPEADH@Z			; strchr
	mov	QWORD PTR p$[rsp], rax

; 144  : 	if (p)

	cmp	QWORD PTR p$[rsp], 0
	je	SHORT $LN5@AuGetDrive

; 145  : 		p++;

	mov	rax, QWORD PTR p$[rsp]
	inc	rax
	mov	QWORD PTR p$[rsp], rax
$LN5@AuGetDrive:

; 146  : 
; 147  : 	/* get the driver path */
; 148  : 	char drivername[32];
; 149  : 	memset(drivername,0, 32);

	mov	r8d, 32					; 00000020H
	xor	edx, edx
	lea	rcx, QWORD PTR drivername$[rsp]
	call	?memset@@YAXPEAXEI@Z			; memset

; 150  : 	int i = 0;

	mov	DWORD PTR i$[rsp], 0

; 151  : 	for (i = 0; i < 32; i++) {

	mov	DWORD PTR i$[rsp], 0
	jmp	SHORT $LN4@AuGetDrive
$LN3@AuGetDrive:
	mov	eax, DWORD PTR i$[rsp]
	inc	eax
	mov	DWORD PTR i$[rsp], eax
$LN4@AuGetDrive:
	cmp	DWORD PTR i$[rsp], 32			; 00000020H
	jge	SHORT $LN2@AuGetDrive

; 152  : 		if(p[i] == '|')

	movsxd	rax, DWORD PTR i$[rsp]
	mov	rcx, QWORD PTR p$[rsp]
	movsx	eax, BYTE PTR [rcx+rax]
	cmp	eax, 124				; 0000007cH
	jne	SHORT $LN1@AuGetDrive

; 153  : 			break;

	jmp	SHORT $LN2@AuGetDrive
$LN1@AuGetDrive:

; 154  : 		drivername[i] = p[i];

	movsxd	rax, DWORD PTR i$[rsp]
	movsxd	rcx, DWORD PTR i$[rsp]
	mov	rdx, QWORD PTR p$[rsp]
	movzx	eax, BYTE PTR [rdx+rax]
	mov	BYTE PTR drivername$[rsp+rcx], al

; 155  : 	}

	jmp	SHORT $LN3@AuGetDrive
$LN2@AuGetDrive:

; 156  : 
; 157  : 	drivername[i] = 0;

	movsxd	rax, DWORD PTR i$[rsp]
	mov	BYTE PTR drivername$[rsp+rax], 0

; 158  : 
; 159  : 	AuCreateDriverInstance(drivername);

	lea	rcx, QWORD PTR drivername$[rsp]
	call	?AuCreateDriverInstance@@YAXPEAD@Z	; AuCreateDriverInstance
$LN7@AuGetDrive:

; 160  : 	return;
; 161  : }

	add	rsp, 104				; 00000068H
	ret	0
?AuGetDriverName@@YAXIIPEAEH@Z ENDP			; AuGetDriverName
_TEXT	ENDS
; Function compile flags: /Odtpy
; File e:\xeneva project\xeneva\aurora\aurora\audrv.cpp
_TEXT	SEGMENT
driver$ = 32
drivername$ = 64
?AuCreateDriverInstance@@YAXPEAD@Z PROC			; AuCreateDriverInstance

; 119  : void AuCreateDriverInstance (char* drivername) {

$LN3:
	mov	QWORD PTR [rsp+8], rcx
	sub	rsp, 56					; 00000038H

; 120  : 	aurora_driver_t *driver = (aurora_driver_t*)malloc(sizeof(aurora_driver_t));

	mov	ecx, 64					; 00000040H
	call	?malloc@@YAPEAX_K@Z			; malloc
	mov	QWORD PTR driver$[rsp], rax

; 121  : 	memset(driver, 0, sizeof(aurora_driver_t));

	mov	r8d, 64					; 00000040H
	xor	edx, edx
	mov	rcx, QWORD PTR driver$[rsp]
	call	?memset@@YAXPEAXEI@Z			; memset

; 122  : 	strcpy(driver->name, drivername);

	mov	rax, QWORD PTR driver$[rsp]
	add	rax, 2
	mov	rdx, QWORD PTR drivername$[rsp]
	mov	rcx, rax
	call	?strcpy@@YAPEADPEADPEBD@Z		; strcpy

; 123  : 	driver->id = AuRequestDriverId();

	call	?AuRequestDriverId@@YAIXZ		; AuRequestDriverId
	mov	rcx, QWORD PTR driver$[rsp]
	mov	BYTE PTR [rcx], al

; 124  : 	driver->present = false;

	mov	rax, QWORD PTR driver$[rsp]
	mov	BYTE PTR [rax+34], 0

; 125  : 	drivers[driver->id] = driver;

	mov	rax, QWORD PTR driver$[rsp]
	movzx	eax, BYTE PTR [rax]
	lea	rcx, OFFSET FLAT:?drivers@@3PAPEAU_aurora_driver_@@A ; drivers
	mov	rdx, QWORD PTR driver$[rsp]
	mov	QWORD PTR [rcx+rax*8], rdx

; 126  : 
; 127  : }

	add	rsp, 56					; 00000038H
	ret	0
?AuCreateDriverInstance@@YAXPEAD@Z ENDP			; AuCreateDriverInstance
_TEXT	ENDS
; Function compile flags: /Odtpy
; File e:\xeneva project\xeneva\aurora\aurora\audrv.cpp
_TEXT	SEGMENT
p$ = 32
i$ = 40
i$1 = 44
num$ = 48
fbuf$ = 56
devid$ = 64
venid$ = 68
entret$ = 72
entry_num$ = 76
vendor_id$ = 96
device_id$ = 104
buffer$ = 112
entryoff$ = 120
?AuGetConfEntry@@YAPEADIIPEAEH@Z PROC			; AuGetConfEntry

; 49   : char* AuGetConfEntry(uint32_t vendor_id, uint32_t device_id,uint8_t* buffer,int entryoff) {

$LN21:
	mov	DWORD PTR [rsp+32], r9d
	mov	QWORD PTR [rsp+24], r8
	mov	DWORD PTR [rsp+16], edx
	mov	DWORD PTR [rsp+8], ecx
	sub	rsp, 88					; 00000058H
$re$22:

; 50   : re:
; 51   : 	int entry_num = entryoff;

	mov	eax, DWORD PTR entryoff$[rsp]
	mov	DWORD PTR entry_num$[rsp], eax

; 52   : 	char* fbuf = (char*)buffer;

	mov	rax, QWORD PTR buffer$[rsp]
	mov	QWORD PTR fbuf$[rsp], rax
$search$23:

; 53   : 	/* Check the entry for the device */
; 54   : search:
; 55   : 	char* p = strchr(fbuf,'(');

	mov	edx, 40					; 00000028H
	mov	rcx, QWORD PTR fbuf$[rsp]
	call	?strchr@@YAPEADPEADH@Z			; strchr
	mov	QWORD PTR p$[rsp], rax

; 56   : 	if (p) {

	cmp	QWORD PTR p$[rsp], 0
	je	SHORT $LN18@AuGetConfE

; 57   : 		p++;

	mov	rax, QWORD PTR p$[rsp]
	inc	rax
	mov	QWORD PTR p$[rsp], rax

; 58   : 		fbuf++;

	mov	rax, QWORD PTR fbuf$[rsp]
	inc	rax
	mov	QWORD PTR fbuf$[rsp], rax
$LN18@AuGetConfE:

; 59   : 	}
; 60   : 	int entret = atoi(p);

	mov	rcx, QWORD PTR p$[rsp]
	call	?atoi@@YAHPEBD@Z			; atoi
	mov	DWORD PTR entret$[rsp], eax

; 61   : 	
; 62   : 	/* Check for last entry '(0)' it indicates that
; 63   : 	 * there is no more entry
; 64   : 	 */
; 65   : 	if (entret == 0) {

	cmp	DWORD PTR entret$[rsp], 0
	jne	SHORT $LN17@AuGetConfE

; 66   : 		return 0;

	xor	eax, eax
	jmp	$LN19@AuGetConfE
$LN17@AuGetConfE:

; 67   : 	}
; 68   : 
; 69   : 	if (entret != entry_num)

	mov	eax, DWORD PTR entry_num$[rsp]
	cmp	DWORD PTR entret$[rsp], eax
	je	SHORT $LN16@AuGetConfE

; 70   : 		goto search;

	jmp	SHORT $search$23
$LN16@AuGetConfE:

; 71   : 
; 72   : 
; 73   : 	/* Search for vendor id of the product */
; 74   : 	fbuf = p;

	mov	rax, QWORD PTR p$[rsp]
	mov	QWORD PTR fbuf$[rsp], rax

; 75   : 	p = strchr(fbuf,'[');

	mov	edx, 91					; 0000005bH
	mov	rcx, QWORD PTR fbuf$[rsp]
	call	?strchr@@YAPEADPEADH@Z			; strchr
	mov	QWORD PTR p$[rsp], rax

; 76   : 	int venid ,devid = 0;

	mov	DWORD PTR devid$[rsp], 0

; 77   : 	if (p)

	cmp	QWORD PTR p$[rsp], 0
	je	SHORT $LN15@AuGetConfE

; 78   : 		p++;

	mov	rax, QWORD PTR p$[rsp]
	inc	rax
	mov	QWORD PTR p$[rsp], rax
$LN15@AuGetConfE:

; 79   : 
; 80   : 	fbuf = p;

	mov	rax, QWORD PTR p$[rsp]
	mov	QWORD PTR fbuf$[rsp], rax

; 81   : 	char num[5];
; 82   : 	memset(num, 0, 5);

	mov	r8d, 5
	xor	edx, edx
	lea	rcx, QWORD PTR num$[rsp]
	call	?memset@@YAXPEAXEI@Z			; memset

; 83   : 	int i;
; 84   : 	for (i= 0; i < 5; i++) {

	mov	DWORD PTR i$[rsp], 0
	jmp	SHORT $LN14@AuGetConfE
$LN13@AuGetConfE:
	mov	eax, DWORD PTR i$[rsp]
	inc	eax
	mov	DWORD PTR i$[rsp], eax
$LN14@AuGetConfE:
	cmp	DWORD PTR i$[rsp], 5
	jge	SHORT $LN12@AuGetConfE

; 85   : 		if (p[i] == ',' || p[i] == ']')

	movsxd	rax, DWORD PTR i$[rsp]
	mov	rcx, QWORD PTR p$[rsp]
	movsx	eax, BYTE PTR [rcx+rax]
	cmp	eax, 44					; 0000002cH
	je	SHORT $LN10@AuGetConfE
	movsxd	rax, DWORD PTR i$[rsp]
	mov	rcx, QWORD PTR p$[rsp]
	movsx	eax, BYTE PTR [rcx+rax]
	cmp	eax, 93					; 0000005dH
	jne	SHORT $LN11@AuGetConfE
$LN10@AuGetConfE:

; 86   : 			break;

	jmp	SHORT $LN12@AuGetConfE
$LN11@AuGetConfE:

; 87   : 		num[i] = p[i];

	movsxd	rax, DWORD PTR i$[rsp]
	movsxd	rcx, DWORD PTR i$[rsp]
	mov	rdx, QWORD PTR p$[rsp]
	movzx	eax, BYTE PTR [rdx+rax]
	mov	BYTE PTR num$[rsp+rcx], al

; 88   : 		fbuf++;

	mov	rax, QWORD PTR fbuf$[rsp]
	inc	rax
	mov	QWORD PTR fbuf$[rsp], rax

; 89   : 	}

	jmp	SHORT $LN13@AuGetConfE
$LN12@AuGetConfE:

; 90   : 	num[i]=0;

	movsxd	rax, DWORD PTR i$[rsp]
	mov	BYTE PTR num$[rsp+rax], 0

; 91   : 	venid = atoi(num);

	lea	rcx, QWORD PTR num$[rsp]
	call	?atoi@@YAHPEBD@Z			; atoi
	mov	DWORD PTR venid$[rsp], eax

; 92   : 
; 93   : 	/* Now search for device id / product id */
; 94   : 	p = strchr(fbuf,',');

	mov	edx, 44					; 0000002cH
	mov	rcx, QWORD PTR fbuf$[rsp]
	call	?strchr@@YAPEADPEADH@Z			; strchr
	mov	QWORD PTR p$[rsp], rax

; 95   : 	if (p)

	cmp	QWORD PTR p$[rsp], 0
	je	SHORT $LN9@AuGetConfE

; 96   : 		p++;

	mov	rax, QWORD PTR p$[rsp]
	inc	rax
	mov	QWORD PTR p$[rsp], rax
$LN9@AuGetConfE:

; 97   : 	for (int i = 0; i < 5; i++) {

	mov	DWORD PTR i$1[rsp], 0
	jmp	SHORT $LN8@AuGetConfE
$LN7@AuGetConfE:
	mov	eax, DWORD PTR i$1[rsp]
	inc	eax
	mov	DWORD PTR i$1[rsp], eax
$LN8@AuGetConfE:
	cmp	DWORD PTR i$1[rsp], 5
	jge	SHORT $LN6@AuGetConfE

; 98   : 		if (p[i] == ',' || p[i] == ']')

	movsxd	rax, DWORD PTR i$1[rsp]
	mov	rcx, QWORD PTR p$[rsp]
	movsx	eax, BYTE PTR [rcx+rax]
	cmp	eax, 44					; 0000002cH
	je	SHORT $LN4@AuGetConfE
	movsxd	rax, DWORD PTR i$1[rsp]
	mov	rcx, QWORD PTR p$[rsp]
	movsx	eax, BYTE PTR [rcx+rax]
	cmp	eax, 93					; 0000005dH
	jne	SHORT $LN5@AuGetConfE
$LN4@AuGetConfE:

; 99   : 			break;

	jmp	SHORT $LN6@AuGetConfE
$LN5@AuGetConfE:

; 100  : 		num[i] = p[i];

	movsxd	rax, DWORD PTR i$1[rsp]
	movsxd	rcx, DWORD PTR i$1[rsp]
	mov	rdx, QWORD PTR p$[rsp]
	movzx	eax, BYTE PTR [rdx+rax]
	mov	BYTE PTR num$[rsp+rcx], al

; 101  : 	}

	jmp	SHORT $LN7@AuGetConfE
$LN6@AuGetConfE:

; 102  : 	num[i] = 0;

	movsxd	rax, DWORD PTR i$[rsp]
	mov	BYTE PTR num$[rsp+rax], 0

; 103  : 	devid = atoi(num);

	lea	rcx, QWORD PTR num$[rsp]
	call	?atoi@@YAHPEBD@Z			; atoi
	mov	DWORD PTR devid$[rsp], eax

; 104  : 
; 105  : 
; 106  : 	if (vendor_id != venid || devid != device_id) {

	mov	eax, DWORD PTR venid$[rsp]
	cmp	DWORD PTR vendor_id$[rsp], eax
	jne	SHORT $LN2@AuGetConfE
	mov	eax, DWORD PTR device_id$[rsp]
	cmp	DWORD PTR devid$[rsp], eax
	je	SHORT $LN3@AuGetConfE
$LN2@AuGetConfE:

; 107  : 		entryoff++;

	mov	eax, DWORD PTR entryoff$[rsp]
	inc	eax
	mov	DWORD PTR entryoff$[rsp], eax

; 108  : 		goto re;

	jmp	$re$22
$LN3@AuGetConfE:

; 109  : 	}
; 110  : 
; 111  : 	/* Finally we found the device driver */
; 112  : 	if (vendor_id == venid && devid == device_id) {

	mov	eax, DWORD PTR venid$[rsp]
	cmp	DWORD PTR vendor_id$[rsp], eax
	jne	SHORT $LN1@AuGetConfE
	mov	eax, DWORD PTR device_id$[rsp]
	cmp	DWORD PTR devid$[rsp], eax
	jne	SHORT $LN1@AuGetConfE

; 113  : 		return fbuf;

	mov	rax, QWORD PTR fbuf$[rsp]
	jmp	SHORT $LN19@AuGetConfE
$LN1@AuGetConfE:

; 114  : 	}
; 115  : 
; 116  : 	return 0;

	xor	eax, eax
$LN19@AuGetConfE:

; 117  : }

	add	rsp, 88					; 00000058H
	ret	0
?AuGetConfEntry@@YAPEADIIPEAEH@Z ENDP			; AuGetConfEntry
_TEXT	ENDS
; Function compile flags: /Odtpy
; File e:\xeneva project\xeneva\aurora\aurora\audrv.cpp
_TEXT	SEGMENT
?AuDecreaseDriverId@@YAXXZ PROC				; AuDecreaseDriverId

; 38   : 	driver_class_unique_id--;

	mov	eax, DWORD PTR driver_class_unique_id
	dec	eax
	mov	DWORD PTR driver_class_unique_id, eax

; 39   : }

	ret	0
?AuDecreaseDriverId@@YAXXZ ENDP				; AuDecreaseDriverId
_TEXT	ENDS
; Function compile flags: /Odtpy
; File e:\xeneva project\xeneva\aurora\aurora\audrv.cpp
_TEXT	SEGMENT
uid$ = 0
?AuRequestDriverId@@YAIXZ PROC				; AuRequestDriverId

; 30   : uint32_t AuRequestDriverId () {

$LN3:
	sub	rsp, 24

; 31   : 	uint32_t uid = driver_class_unique_id;

	mov	eax, DWORD PTR driver_class_unique_id
	mov	DWORD PTR uid$[rsp], eax

; 32   : 	driver_class_unique_id++;

	mov	eax, DWORD PTR driver_class_unique_id
	inc	eax
	mov	DWORD PTR driver_class_unique_id, eax

; 33   : 	return uid;

	mov	eax, DWORD PTR uid$[rsp]

; 34   : }

	add	rsp, 24
	ret	0
?AuRequestDriverId@@YAIXZ ENDP				; AuRequestDriverId
_TEXT	ENDS
; Function compile flags: /Odtpy
; File e:\xeneva project\xeneva\aurora\aurora\audrv.cpp
_TEXT	SEGMENT
dev$1 = 48
bus$2 = 52
func$3 = 56
i$4 = 60
driver$5 = 64
conf$ = 72
confdata$ = 80
file$ = 96
config$ = 208
$T6 = 464
$T7 = 568
info$ = 704
?AuDrvMngrInitialize@@YAXPEAU_KERNEL_BOOT_INFO_@@@Z PROC ; AuDrvMngrInitialize

; 184  : void AuDrvMngrInitialize (KERNEL_BOOT_INFO *info) {

$LN17:
	mov	QWORD PTR [rsp+8], rcx
	push	rsi
	push	rdi
	sub	rsp, 680				; 000002a8H

; 185  : 	x64_cli();

	call	x64_cli

; 186  : 	driver_class_unique_id = 0;

	mov	DWORD PTR driver_class_unique_id, 0

; 187  : 
; 188  : 	printf ("[aurora]: initializing drivers, please wait... \n");

	lea	rcx, OFFSET FLAT:$SG3974
	call	printf

; 189  : 	/* Load the conf data */
; 190  : 	uint64_t* conf = (uint64_t*)p2v((size_t)AuPmmngrAlloc());

	call	?AuPmmngrAlloc@@YAPEAXXZ		; AuPmmngrAlloc
	mov	rcx, rax
	call	?p2v@@YA_K_K@Z				; p2v
	mov	QWORD PTR conf$[rsp], rax

; 191  : 	memset(conf, 0, 4096);

	mov	r8d, 4096				; 00001000H
	xor	edx, edx
	mov	rcx, QWORD PTR conf$[rsp]
	call	?memset@@YAXPEAXEI@Z			; memset

; 192  : 	vfs_node_t file = fat32_open(NULL, "/audrv.cnf");

	lea	r8, OFFSET FLAT:$SG3980
	xor	edx, edx
	lea	rcx, QWORD PTR $T7[rsp]
	call	?fat32_open@@YA?AU_vfs_node_@@PEAU1@PEAD@Z ; fat32_open
	lea	rcx, QWORD PTR $T6[rsp]
	mov	rdi, rcx
	mov	rsi, rax
	mov	ecx, 104				; 00000068H
	rep movsb
	lea	rax, QWORD PTR file$[rsp]
	lea	rcx, QWORD PTR $T6[rsp]
	mov	rdi, rax
	mov	rsi, rcx
	mov	ecx, 104				; 00000068H
	rep movsb

; 193  : 	fat32_read_file (&file,(uint64_t*)v2p((size_t)conf),file.size);

	mov	rcx, QWORD PTR conf$[rsp]
	call	?v2p@@YA_K_K@Z				; v2p
	mov	r8d, DWORD PTR file$[rsp+32]
	mov	rdx, rax
	lea	rcx, QWORD PTR file$[rsp]
	call	?fat32_read_file@@YAXPEAU_vfs_node_@@PEA_KI@Z ; fat32_read_file

; 194  : 
; 195  : 	uint8_t* confdata = (uint8_t*)conf;

	mov	rax, QWORD PTR conf$[rsp]
	mov	QWORD PTR confdata$[rsp], rax

; 196  : 
; 197  : 	pci_device_info config;
; 198  : 	for (int bus = 0; bus < 256; bus++) {

	mov	DWORD PTR bus$2[rsp], 0
	jmp	SHORT $LN14@AuDrvMngrI
$LN13@AuDrvMngrI:
	mov	eax, DWORD PTR bus$2[rsp]
	inc	eax
	mov	DWORD PTR bus$2[rsp], eax
$LN14@AuDrvMngrI:
	cmp	DWORD PTR bus$2[rsp], 256		; 00000100H
	jge	$LN12@AuDrvMngrI

; 199  : 		for (int dev = 0; dev < 32; dev++) {

	mov	DWORD PTR dev$1[rsp], 0
	jmp	SHORT $LN11@AuDrvMngrI
$LN10@AuDrvMngrI:
	mov	eax, DWORD PTR dev$1[rsp]
	inc	eax
	mov	DWORD PTR dev$1[rsp], eax
$LN11@AuDrvMngrI:
	cmp	DWORD PTR dev$1[rsp], 32		; 00000020H
	jge	$LN9@AuDrvMngrI

; 200  : 			for (int func = 0; func < 8; func++) {

	mov	DWORD PTR func$3[rsp], 0
	jmp	SHORT $LN8@AuDrvMngrI
$LN7@AuDrvMngrI:
	mov	eax, DWORD PTR func$3[rsp]
	inc	eax
	mov	DWORD PTR func$3[rsp], eax
$LN8@AuDrvMngrI:
	cmp	DWORD PTR func$3[rsp], 8
	jge	$LN6@AuDrvMngrI

; 201  : 
; 202  : 				read_config_32 (0,bus, dev, func, 0, config.header[0]);

	mov	eax, 4
	imul	rax, 0
	mov	eax, DWORD PTR config$[rsp+rax]
	mov	DWORD PTR [rsp+40], eax
	mov	DWORD PTR [rsp+32], 0
	mov	r9d, DWORD PTR func$3[rsp]
	mov	r8d, DWORD PTR dev$1[rsp]
	mov	edx, DWORD PTR bus$2[rsp]
	xor	ecx, ecx
	call	?read_config_32@@YAXGHHHHI@Z		; read_config_32

; 203  : 				read_config_header (bus, dev, func, &config);

	lea	r9, QWORD PTR config$[rsp]
	mov	r8d, DWORD PTR func$3[rsp]
	mov	edx, DWORD PTR dev$1[rsp]
	mov	ecx, DWORD PTR bus$2[rsp]
	call	?read_config_header@@YAXHHHPEATpci_device_info@@@Z ; read_config_header

; 204  : 				if (config.device.deviceID == 0xFFFF || config.device.vendorID == 0xFFFF) 

	movzx	eax, WORD PTR config$[rsp+2]
	cmp	eax, 65535				; 0000ffffH
	je	SHORT $LN4@AuDrvMngrI
	movzx	eax, WORD PTR config$[rsp]
	cmp	eax, 65535				; 0000ffffH
	jne	SHORT $LN5@AuDrvMngrI
$LN4@AuDrvMngrI:

; 205  : 					continue;	

	jmp	SHORT $LN7@AuDrvMngrI
$LN5@AuDrvMngrI:

; 206  : 				AuGetDriverName(config.device.vendorID,config.device.deviceID,  confdata,1);

	movzx	eax, WORD PTR config$[rsp+2]
	movzx	ecx, WORD PTR config$[rsp]
	mov	r9d, 1
	mov	r8, QWORD PTR confdata$[rsp]
	mov	edx, eax
	call	?AuGetDriverName@@YAXIIPEAEH@Z		; AuGetDriverName

; 207  : 			}

	jmp	$LN7@AuDrvMngrI
$LN6@AuDrvMngrI:

; 208  : 		}

	jmp	$LN10@AuDrvMngrI
$LN9@AuDrvMngrI:

; 209  : 	}

	jmp	$LN13@AuDrvMngrI
$LN12@AuDrvMngrI:

; 210  : 
; 211  : 	for (int i = 0; i < driver_class_unique_id; i++) {

	mov	DWORD PTR i$4[rsp], 0
	jmp	SHORT $LN3@AuDrvMngrI
$LN2@AuDrvMngrI:
	mov	eax, DWORD PTR i$4[rsp]
	inc	eax
	mov	DWORD PTR i$4[rsp], eax
$LN3@AuDrvMngrI:
	mov	eax, DWORD PTR driver_class_unique_id
	cmp	DWORD PTR i$4[rsp], eax
	jae	SHORT $LN1@AuDrvMngrI

; 212  : 		aurora_driver_t *driver = drivers[i];

	movsxd	rax, DWORD PTR i$4[rsp]
	lea	rcx, OFFSET FLAT:?drivers@@3PAPEAU_aurora_driver_@@A ; drivers
	mov	rax, QWORD PTR [rcx+rax*8]
	mov	QWORD PTR driver$5[rsp], rax

; 213  : 		AuDriverLoad(driver->name, driver);

	mov	rax, QWORD PTR driver$5[rsp]
	add	rax, 2
	mov	rdx, QWORD PTR driver$5[rsp]
	mov	rcx, rax
	call	?AuDriverLoad@@YAXPEADPEAU_aurora_driver_@@@Z ; AuDriverLoad

; 214  : 		driver->entry();

	mov	rax, QWORD PTR driver$5[rsp]
	call	QWORD PTR [rax+56]

; 215  : 	}

	jmp	SHORT $LN2@AuDrvMngrI
$LN1@AuDrvMngrI:

; 216  : 	x64_sti();

	call	x64_sti

; 217  : }

	add	rsp, 680				; 000002a8H
	pop	rdi
	pop	rsi
	ret	0
?AuDrvMngrInitialize@@YAXPEAU_KERNEL_BOOT_INFO_@@@Z ENDP ; AuDrvMngrInitialize
_TEXT	ENDS
END
