; Listing generated by Microsoft (R) Optimizing Compiler Version 17.00.50727.1 

include listing.inc

INCLUDELIB LIBCMT
INCLUDELIB OLDNAMES

PUBLIC	?i_net_dev@@3PEAU_e1000_dev_@@EA		; i_net_dev
_BSS	SEGMENT
?i_net_dev@@3PEAU_e1000_dev_@@EA DQ 01H DUP (?)		; i_net_dev
_BSS	ENDS
CONST	SEGMENT
$SG3429	DB	'EEPROM exist', 0aH, 00H
	ORG $+2
$SG3432	DB	'Applying memory map', 0aH, 00H
	ORG $+3
$SG3449	DB	'E1000 recevied', 0aH, 00H
$SG3457	DB	'E1000 Bytes received -> %d bytes, status 0x%x', 0aH, 00H
	ORG $+1
$SG3462	DB	'E1000 interrupt data transmit', 0aH, 00H
	ORG $+1
$SG3465	DB	'up', 00H
	ORG $+1
$SG3466	DB	'down', 00H
	ORG $+7
$SG3467	DB	'E1000 interrupt link change %s', 0aH, 00H
$SG3469	DB	'E1000 unknown interrupt', 0aH, 00H
	ORG $+7
$SG3481	DB	'E1000 RX Descriptor HI -> %x, LO -> %x', 0aH, 00H
$SG3493	DB	'E1000 TX_DESC_HI -> %x, LO -> %x', 0aH, 00H
	ORG $+6
$SG3503	DB	'CUR Tx tail -> %d', 0aH, 00H
	ORG $+5
$SG3508	DB	'TX Next tail -> %d', 0aH, 00H
	ORG $+4
$SG3513	DB	'Transmit status ->%x', 0aH, 00H
	ORG $+2
$SG3514	DB	'Transmitted', 0aH, 00H
	ORG $+3
$SG3525	DB	'E1000 New Packet received #3', 0aH, 00H
	ORG $+2
$SG3560	DB	'Intel Ethernet not found', 0aH, 00H
	ORG $+6
$SG3563	DB	'E1000 INterrupt Disabled in PCI ConfigSpace', 0aH, 00H
	ORG $+3
$SG3573	DB	'E1000 Supports MSI', 0aH, 00H
	ORG $+4
$SG3576	DB	'E1000 legacy irq -> %d, pin -> %d', 0aH, 00H
	ORG $+5
$SG3587	DB	'e1000 setup completed', 0aH, 00H
CONST	ENDS
PUBLIC	?e1000_initialize@@YAXXZ			; e1000_initialize
PUBLIC	?e1000_send_packet@@YAXPEAX_K@Z			; e1000_send_packet
PUBLIC	?e1000_read_command@@YAIG@Z			; e1000_read_command
PUBLIC	?e1000_write_command@@YAXGI@Z			; e1000_write_command
PUBLIC	?e1000_detect_eeprom@@YA_NXZ			; e1000_detect_eeprom
PUBLIC	?e1000_eerprom_read@@YAIE@Z			; e1000_eerprom_read
PUBLIC	?e1000_read_mac_address@@YA_NXZ			; e1000_read_mac_address
PUBLIC	?e1000_interrupt_handler@@YAX_KPEAX@Z		; e1000_interrupt_handler
PUBLIC	?e1000_rx_init@@YAXXZ				; e1000_rx_init
PUBLIC	?e1000_tx_init@@YAXXZ				; e1000_tx_init
PUBLIC	?e1000_setup_interrupt@@YAXXZ			; e1000_setup_interrupt
PUBLIC	?e1000_handle_receive@@YAXXZ			; e1000_handle_receive
PUBLIC	?e1000_reset@@YAXXZ				; e1000_reset
EXTRN	x64_cli:PROC
EXTRN	x64_sti:PROC
EXTRN	x64_inportd:PROC
EXTRN	x64_outportd:PROC
EXTRN	?inportd@@YAIG@Z:PROC				; inportd
EXTRN	?interrupt_end@@YAXI@Z:PROC			; interrupt_end
EXTRN	?interrupt_set@@YAX_KP6AX0PEAX@ZE@Z:PROC	; interrupt_set
EXTRN	?read_config_16@@YAXGHHHHPEAG@Z:PROC		; read_config_16
EXTRN	?read_config_8@@YAXGHHHHPEAE@Z:PROC		; read_config_8
EXTRN	?write_config_8@@YAXGHHHHE@Z:PROC		; write_config_8
EXTRN	?pci_find_device_class@@YA_NEEPEATpci_device_info@@PEAH11@Z:PROC ; pci_find_device_class
EXTRN	?pci_alloc_msi@@YA_NHHHP6AX_KPEAX@Z@Z:PROC	; pci_alloc_msi
EXTRN	?pmmngr_alloc@@YAPEAXXZ:PROC			; pmmngr_alloc
EXTRN	memcpy:PROC
EXTRN	?printf@@YAXPEBDZZ:PROC				; printf
EXTRN	?malloc@@YAPEAXI@Z:PROC				; malloc
EXTRN	?nethw_set_mac@@YAXPEAE@Z:PROC			; nethw_set_mac
EXTRN	?nethw_initialize@@YAXXZ:PROC			; nethw_initialize
pdata	SEGMENT
$pdata$?e1000_initialize@@YAXXZ DD imagerel $LN19
	DD	imagerel $LN19+837
	DD	imagerel $unwind$?e1000_initialize@@YAXXZ
$pdata$?e1000_send_packet@@YAXPEAX_K@Z DD imagerel $LN8
	DD	imagerel $LN8+455
	DD	imagerel $unwind$?e1000_send_packet@@YAXPEAX_K@Z
$pdata$?e1000_read_command@@YAIG@Z DD imagerel $LN5
	DD	imagerel $LN5+101
	DD	imagerel $unwind$?e1000_read_command@@YAIG@Z
$pdata$?e1000_write_command@@YAXGI@Z DD imagerel $LN5
	DD	imagerel $LN5+104
	DD	imagerel $unwind$?e1000_write_command@@YAXGI@Z
$pdata$?e1000_detect_eeprom@@YA_NXZ DD imagerel $LN8
	DD	imagerel $LN8+137
	DD	imagerel $unwind$?e1000_detect_eeprom@@YA_NXZ
$pdata$?e1000_eerprom_read@@YAIE@Z DD imagerel $LN9
	DD	imagerel $LN9+163
	DD	imagerel $unwind$?e1000_eerprom_read@@YAIE@Z
$pdata$?e1000_read_mac_address@@YA_NXZ DD imagerel $LN10
	DD	imagerel $LN10+390
	DD	imagerel $unwind$?e1000_read_mac_address@@YA_NXZ
$pdata$?e1000_interrupt_handler@@YAX_KPEAX@Z DD imagerel $LN16
	DD	imagerel $LN16+475
	DD	imagerel $unwind$?e1000_interrupt_handler@@YAX_KPEAX@Z
$pdata$?e1000_rx_init@@YAXXZ DD imagerel $LN6
	DD	imagerel $LN6+384
	DD	imagerel $unwind$?e1000_rx_init@@YAXXZ
$pdata$?e1000_tx_init@@YAXXZ DD imagerel $LN6
	DD	imagerel $LN6+325
	DD	imagerel $unwind$?e1000_tx_init@@YAXXZ
$pdata$?e1000_setup_interrupt@@YAXXZ DD imagerel $LN3
	DD	imagerel $LN3+46
	DD	imagerel $unwind$?e1000_setup_interrupt@@YAXXZ
$pdata$?e1000_handle_receive@@YAXXZ DD imagerel $LN6
	DD	imagerel $LN6+223
	DD	imagerel $unwind$?e1000_handle_receive@@YAXXZ
$pdata$?e1000_reset@@YAXXZ DD imagerel $LN21
	DD	imagerel $LN21+341
	DD	imagerel $unwind$?e1000_reset@@YAXXZ
pdata	ENDS
xdata	SEGMENT
$unwind$?e1000_initialize@@YAXXZ DD 010401H
	DD	0c204H
$unwind$?e1000_send_packet@@YAXPEAX_K@Z DD 010e01H
	DD	0620eH
$unwind$?e1000_read_command@@YAIG@Z DD 010901H
	DD	06209H
$unwind$?e1000_write_command@@YAXGI@Z DD 010d01H
	DD	0420dH
$unwind$?e1000_detect_eeprom@@YA_NXZ DD 010401H
	DD	06204H
$unwind$?e1000_eerprom_read@@YAIE@Z DD 010801H
	DD	06208H
$unwind$?e1000_read_mac_address@@YA_NXZ DD 010401H
	DD	08204H
$unwind$?e1000_interrupt_handler@@YAX_KPEAX@Z DD 010e01H
	DD	0820eH
$unwind$?e1000_rx_init@@YAXXZ DD 010401H
	DD	06204H
$unwind$?e1000_tx_init@@YAXXZ DD 010401H
	DD	06204H
$unwind$?e1000_setup_interrupt@@YAXXZ DD 010401H
	DD	04204H
$unwind$?e1000_handle_receive@@YAXXZ DD 010401H
	DD	06204H
$unwind$?e1000_reset@@YAXXZ DD 010401H
	DD	08204H
xdata	ENDS
; Function compile flags: /Odtpy
; File e:\xeneva project\xeneva\aurora\aurora\drivers\net\e1000.cpp
_TEXT	SEGMENT
i$1 = 32
i$2 = 36
i$3 = 40
i$4 = 44
i$5 = 48
i$6 = 52
?e1000_reset@@YAXXZ PROC				; e1000_reset

; 264  : void e1000_reset () {

$LN21:
	sub	rsp, 72					; 00000048H

; 265  : 	e1000_write_command (REG_CTRL, (1<<31));

	mov	edx, -2147483648			; 80000000H
	xor	ecx, ecx
	call	?e1000_write_command@@YAXGI@Z		; e1000_write_command

; 266  : 	for (int i = 0; i < 1000; i++)

	mov	DWORD PTR i$1[rsp], 0
	jmp	SHORT $LN18@e1000_rese
$LN17@e1000_rese:
	mov	eax, DWORD PTR i$1[rsp]
	inc	eax
	mov	DWORD PTR i$1[rsp], eax
$LN18@e1000_rese:
	cmp	DWORD PTR i$1[rsp], 1000		; 000003e8H
	jge	SHORT $LN16@e1000_rese

; 267  : 		;

	jmp	SHORT $LN17@e1000_rese
$LN16@e1000_rese:

; 268  : 	//! Reset the hardware guide from MINIX3
; 269  : 	e1000_write_command (REG_CTRL, (1 << 26));

	mov	edx, 67108864				; 04000000H
	xor	ecx, ecx
	call	?e1000_write_command@@YAXGI@Z		; e1000_write_command

; 270  : 	for (int i = 0; i < 1000; i++)

	mov	DWORD PTR i$2[rsp], 0
	jmp	SHORT $LN15@e1000_rese
$LN14@e1000_rese:
	mov	eax, DWORD PTR i$2[rsp]
	inc	eax
	mov	DWORD PTR i$2[rsp], eax
$LN15@e1000_rese:
	cmp	DWORD PTR i$2[rsp], 1000		; 000003e8H
	jge	SHORT $LN13@e1000_rese

; 271  : 		;

	jmp	SHORT $LN14@e1000_rese
$LN13@e1000_rese:

; 272  : 	e1000_write_command (REG_CTRL, (1<<0));

	mov	edx, 1
	xor	ecx, ecx
	call	?e1000_write_command@@YAXGI@Z		; e1000_write_command

; 273  : 
; 274  : 	e1000_write_command (REG_CTRL, (1<<3));

	mov	edx, 8
	xor	ecx, ecx
	call	?e1000_write_command@@YAXGI@Z		; e1000_write_command

; 275  : 	for (int i = 0; i < 1000; i++)

	mov	DWORD PTR i$3[rsp], 0
	jmp	SHORT $LN12@e1000_rese
$LN11@e1000_rese:
	mov	eax, DWORD PTR i$3[rsp]
	inc	eax
	mov	DWORD PTR i$3[rsp], eax
$LN12@e1000_rese:
	cmp	DWORD PTR i$3[rsp], 1000		; 000003e8H
	jge	SHORT $LN10@e1000_rese

; 276  : 		;

	jmp	SHORT $LN11@e1000_rese
$LN10@e1000_rese:

; 277  : 	e1000_write_command (REG_CTRL, (1<<6));

	mov	edx, 64					; 00000040H
	xor	ecx, ecx
	call	?e1000_write_command@@YAXGI@Z		; e1000_write_command

; 278  : 	for (int i = 0; i < 1000; i++)

	mov	DWORD PTR i$4[rsp], 0
	jmp	SHORT $LN9@e1000_rese
$LN8@e1000_rese:
	mov	eax, DWORD PTR i$4[rsp]
	inc	eax
	mov	DWORD PTR i$4[rsp], eax
$LN9@e1000_rese:
	cmp	DWORD PTR i$4[rsp], 1000		; 000003e8H
	jge	SHORT $LN7@e1000_rese

; 279  : 		;

	jmp	SHORT $LN8@e1000_rese
$LN7@e1000_rese:

; 280  : 	e1000_write_command (REG_CTRL, (1<<11));

	mov	edx, 2048				; 00000800H
	xor	ecx, ecx
	call	?e1000_write_command@@YAXGI@Z		; e1000_write_command

; 281  : 	e1000_write_command (REG_CTRL, ~(1<<3));

	mov	edx, -9					; fffffff7H
	xor	ecx, ecx
	call	?e1000_write_command@@YAXGI@Z		; e1000_write_command

; 282  : 	for (int i = 0; i < 1000;i++)

	mov	DWORD PTR i$5[rsp], 0
	jmp	SHORT $LN6@e1000_rese
$LN5@e1000_rese:
	mov	eax, DWORD PTR i$5[rsp]
	inc	eax
	mov	DWORD PTR i$5[rsp], eax
$LN6@e1000_rese:
	cmp	DWORD PTR i$5[rsp], 1000		; 000003e8H
	jge	SHORT $LN4@e1000_rese

; 283  : 		;

	jmp	SHORT $LN5@e1000_rese
$LN4@e1000_rese:

; 284  : 	e1000_write_command (REG_CTRL, ~(1<<31));

	mov	edx, 2147483647				; 7fffffffH
	xor	ecx, ecx
	call	?e1000_write_command@@YAXGI@Z		; e1000_write_command

; 285  : 
; 286  : 	e1000_write_command (REG_FCAL, 0);

	xor	edx, edx
	mov	cx, 40					; 00000028H
	call	?e1000_write_command@@YAXGI@Z		; e1000_write_command

; 287  : 	e1000_write_command (REG_FCAH, 0);

	xor	edx, edx
	mov	cx, 44					; 0000002cH
	call	?e1000_write_command@@YAXGI@Z		; e1000_write_command

; 288  : 	e1000_write_command (REG_FCT, 0);

	xor	edx, edx
	mov	cx, 48					; 00000030H
	call	?e1000_write_command@@YAXGI@Z		; e1000_write_command

; 289  : 	e1000_write_command (REG_FCTTV, 0);

	xor	edx, edx
	mov	cx, 10240				; 00002800H
	call	?e1000_write_command@@YAXGI@Z		; e1000_write_command

; 290  : 	//e1000_write_command (REG_CTRL, (1<<30));
; 291  : 
; 292  : 	for (int i = 0; i < 1000; i++)

	mov	DWORD PTR i$6[rsp], 0
	jmp	SHORT $LN3@e1000_rese
$LN2@e1000_rese:
	mov	eax, DWORD PTR i$6[rsp]
	inc	eax
	mov	DWORD PTR i$6[rsp], eax
$LN3@e1000_rese:
	cmp	DWORD PTR i$6[rsp], 1000		; 000003e8H
	jge	SHORT $LN1@e1000_rese

; 293  : 		;

	jmp	SHORT $LN2@e1000_rese
$LN1@e1000_rese:

; 294  : 	
; 295  : 
; 296  : 
; 297  : }

	add	rsp, 72					; 00000048H
	ret	0
?e1000_reset@@YAXXZ ENDP				; e1000_reset
_TEXT	ENDS
; Function compile flags: /Odtpy
; File e:\xeneva project\xeneva\aurora\aurora\drivers\net\e1000.cpp
_TEXT	SEGMENT
old_cur$1 = 32
len$2 = 36
buf$3 = 40
?e1000_handle_receive@@YAXXZ PROC			; e1000_handle_receive

; 247  : void e1000_handle_receive () {

$LN6:
	sub	rsp, 56					; 00000038H
$LN3@e1000_hand:

; 248  : 	for(;;) {
; 249  : 	if((i_net_dev->rx_desc[i_net_dev->rx_tail]->status)) {

	mov	rax, QWORD PTR ?i_net_dev@@3PEAU_e1000_dev_@@EA ; i_net_dev
	movzx	eax, WORD PTR [rax+50]
	mov	rcx, QWORD PTR ?i_net_dev@@3PEAU_e1000_dev_@@EA ; i_net_dev
	mov	rax, QWORD PTR [rcx+rax*8+56]
	movzx	eax, BYTE PTR [rax+12]
	movzx	eax, al
	test	eax, eax
	je	$LN1@e1000_hand

; 250  : 		//printf ("E1000 New Packet received #1\n");
; 251  : 		uint8_t *buf = (uint8_t*)i_net_dev->rx_desc[i_net_dev->rx_tail]->addr;

	mov	rax, QWORD PTR ?i_net_dev@@3PEAU_e1000_dev_@@EA ; i_net_dev
	movzx	eax, WORD PTR [rax+50]
	mov	rcx, QWORD PTR ?i_net_dev@@3PEAU_e1000_dev_@@EA ; i_net_dev
	mov	rax, QWORD PTR [rcx+rax*8+56]
	mov	rax, QWORD PTR [rax]
	mov	QWORD PTR buf$3[rsp], rax

; 252  : 		uint16_t len = i_net_dev->rx_desc[i_net_dev->rx_tail]->length;

	mov	rax, QWORD PTR ?i_net_dev@@3PEAU_e1000_dev_@@EA ; i_net_dev
	movzx	eax, WORD PTR [rax+50]
	mov	rcx, QWORD PTR ?i_net_dev@@3PEAU_e1000_dev_@@EA ; i_net_dev
	mov	rax, QWORD PTR [rcx+rax*8+56]
	movzx	eax, WORD PTR [rax+8]
	mov	WORD PTR len$2[rsp], ax

; 253  : 		//printf ("E1000 New Packet received #2\n");
; 254  : 		i_net_dev->rx_desc[i_net_dev->rx_tail]->status = 0;

	mov	rax, QWORD PTR ?i_net_dev@@3PEAU_e1000_dev_@@EA ; i_net_dev
	movzx	eax, WORD PTR [rax+50]
	mov	rcx, QWORD PTR ?i_net_dev@@3PEAU_e1000_dev_@@EA ; i_net_dev
	mov	rax, QWORD PTR [rcx+rax*8+56]
	mov	BYTE PTR [rax+12], 0

; 255  : 		uint16_t old_cur = i_net_dev->rx_tail;

	mov	rax, QWORD PTR ?i_net_dev@@3PEAU_e1000_dev_@@EA ; i_net_dev
	movzx	eax, WORD PTR [rax+50]
	mov	WORD PTR old_cur$1[rsp], ax

; 256  : 		i_net_dev->rx_tail = (i_net_dev->rx_tail + 1) % E1000_NUM_RX_DESC;

	mov	rax, QWORD PTR ?i_net_dev@@3PEAU_e1000_dev_@@EA ; i_net_dev
	movzx	eax, WORD PTR [rax+50]
	inc	eax
	cdq
	and	edx, 31
	add	eax, edx
	and	eax, 31
	sub	eax, edx
	mov	rcx, QWORD PTR ?i_net_dev@@3PEAU_e1000_dev_@@EA ; i_net_dev
	mov	WORD PTR [rcx+50], ax

; 257  : 		e1000_write_command (REG_RXDESCTAIL, old_cur);

	movzx	eax, WORD PTR old_cur$1[rsp]
	mov	edx, eax
	mov	cx, 10264				; 00002818H
	call	?e1000_write_command@@YAXGI@Z		; e1000_write_command

; 258  : 		printf ("E1000 New Packet received #3\n");

	lea	rcx, OFFSET FLAT:$SG3525
	call	?printf@@YAXPEBDZZ			; printf

; 259  : 		break;

	jmp	SHORT $LN2@e1000_hand
$LN1@e1000_hand:

; 260  : 	}
; 261  : 	}

	jmp	$LN3@e1000_hand
$LN2@e1000_hand:

; 262  : }

	add	rsp, 56					; 00000038H
	ret	0
?e1000_handle_receive@@YAXXZ ENDP			; e1000_handle_receive
_TEXT	ENDS
; Function compile flags: /Odtpy
; File e:\xeneva project\xeneva\aurora\aurora\drivers\net\e1000.cpp
_TEXT	SEGMENT
?e1000_setup_interrupt@@YAXXZ PROC			; e1000_setup_interrupt

; 204  : void e1000_setup_interrupt () {

$LN3:
	sub	rsp, 40					; 00000028H

; 205  : 	e1000_write_command (0xD8, 0xFFFF);

	mov	edx, 65535				; 0000ffffH
	mov	cx, 216					; 000000d8H
	call	?e1000_write_command@@YAXGI@Z		; e1000_write_command

; 206  : 	e1000_write_command (0xD0, 0xFFFF);

	mov	edx, 65535				; 0000ffffH
	mov	cx, 208					; 000000d0H
	call	?e1000_write_command@@YAXGI@Z		; e1000_write_command

; 207  : 	e1000_read_command (0xc0);

	mov	cx, 192					; 000000c0H
	call	?e1000_read_command@@YAIG@Z		; e1000_read_command

; 208  : }

	add	rsp, 40					; 00000028H
	ret	0
?e1000_setup_interrupt@@YAXXZ ENDP			; e1000_setup_interrupt
_TEXT	ENDS
; Function compile flags: /Odtpy
; File e:\xeneva project\xeneva\aurora\aurora\drivers\net\e1000.cpp
_TEXT	SEGMENT
i$1 = 32
tv131 = 36
?e1000_tx_init@@YAXXZ PROC				; e1000_tx_init

; 180  : void e1000_tx_init () {

$LN6:
	sub	rsp, 56					; 00000038H

; 181  : 
; 182  : 	i_net_dev->tx_desc_base = (uint64_t*)pmmngr_alloc();

	call	?pmmngr_alloc@@YAPEAXXZ			; pmmngr_alloc
	mov	rcx, QWORD PTR ?i_net_dev@@3PEAU_e1000_dev_@@EA ; i_net_dev
	mov	QWORD PTR [rcx+40], rax

; 183  : 
; 184  : 	for (int i = 0; i < E1000_NUM_TX_DESC; i++) {

	mov	DWORD PTR i$1[rsp], 0
	jmp	SHORT $LN3@e1000_tx_i
$LN2@e1000_tx_i:
	mov	eax, DWORD PTR i$1[rsp]
	inc	eax
	mov	DWORD PTR i$1[rsp], eax
$LN3@e1000_tx_i:
	cmp	DWORD PTR i$1[rsp], 8
	jge	SHORT $LN1@e1000_tx_i

; 185  : 		i_net_dev->tx_desc[i] = (e1000_tx_desc*)(i_net_dev->tx_desc_base + (i * 16));

	mov	eax, DWORD PTR i$1[rsp]
	imul	eax, 16
	cdqe
	mov	rcx, QWORD PTR ?i_net_dev@@3PEAU_e1000_dev_@@EA ; i_net_dev
	mov	rcx, QWORD PTR [rcx+40]
	lea	rax, QWORD PTR [rcx+rax*8]
	movsxd	rcx, DWORD PTR i$1[rsp]
	mov	rdx, QWORD PTR ?i_net_dev@@3PEAU_e1000_dev_@@EA ; i_net_dev
	mov	QWORD PTR [rdx+rcx*8+312], rax

; 186  : 		i_net_dev->tx_desc[i]->addr = 0;

	movsxd	rax, DWORD PTR i$1[rsp]
	mov	rcx, QWORD PTR ?i_net_dev@@3PEAU_e1000_dev_@@EA ; i_net_dev
	mov	rax, QWORD PTR [rcx+rax*8+312]
	mov	QWORD PTR [rax], 0

; 187  : 		i_net_dev->tx_desc[i]->cmd = 0;

	movsxd	rax, DWORD PTR i$1[rsp]
	mov	rcx, QWORD PTR ?i_net_dev@@3PEAU_e1000_dev_@@EA ; i_net_dev
	mov	rax, QWORD PTR [rcx+rax*8+312]
	mov	BYTE PTR [rax+11], 0

; 188  : 		i_net_dev->tx_desc[i]->status = 0;

	movsxd	rax, DWORD PTR i$1[rsp]
	mov	rcx, QWORD PTR ?i_net_dev@@3PEAU_e1000_dev_@@EA ; i_net_dev
	mov	rax, QWORD PTR [rcx+rax*8+312]
	mov	BYTE PTR [rax+12], 0

; 189  : 	}

	jmp	$LN2@e1000_tx_i
$LN1@e1000_tx_i:

; 190  : 	e1000_write_command (REG_TXDESCHI, ((uint32_t)i_net_dev->tx_desc_base >> 32));

	mov	rax, QWORD PTR ?i_net_dev@@3PEAU_e1000_dev_@@EA ; i_net_dev
	mov	eax, DWORD PTR [rax+40]
	shr	eax, 32					; 00000020H
	mov	edx, eax
	mov	cx, 14340				; 00003804H
	call	?e1000_write_command@@YAXGI@Z		; e1000_write_command

; 191  : 	e1000_write_command (REG_TXDESCLO, (uint32_t)i_net_dev->tx_desc_base);

	mov	rax, QWORD PTR ?i_net_dev@@3PEAU_e1000_dev_@@EA ; i_net_dev
	mov	edx, DWORD PTR [rax+40]
	mov	cx, 14336				; 00003800H
	call	?e1000_write_command@@YAXGI@Z		; e1000_write_command

; 192  : 	printf ("E1000 TX_DESC_HI -> %x, LO -> %x\n", e1000_read_command(REG_TXDESCHI), e1000_read_command(REG_TXDESCLO));

	mov	cx, 14336				; 00003800H
	call	?e1000_read_command@@YAIG@Z		; e1000_read_command
	mov	DWORD PTR tv131[rsp], eax
	mov	cx, 14340				; 00003804H
	call	?e1000_read_command@@YAIG@Z		; e1000_read_command
	mov	ecx, DWORD PTR tv131[rsp]
	mov	r8d, ecx
	mov	edx, eax
	lea	rcx, OFFSET FLAT:$SG3493
	call	?printf@@YAXPEBDZZ			; printf

; 193  : 
; 194  : 	e1000_write_command (REG_TXDESCLEN, (uint32_t)E1000_NUM_TX_DESC * 16);

	mov	edx, 128				; 00000080H
	mov	cx, 14344				; 00003808H
	call	?e1000_write_command@@YAXGI@Z		; e1000_write_command

; 195  : 
; 196  : 	e1000_write_command (REG_TXDESCHEAD, 0);

	xor	edx, edx
	mov	cx, 14352				; 00003810H
	call	?e1000_write_command@@YAXGI@Z		; e1000_write_command

; 197  : 	e1000_write_command (REG_TXDESCTAIL,0);

	xor	edx, edx
	mov	cx, 14360				; 00003818H
	call	?e1000_write_command@@YAXGI@Z		; e1000_write_command

; 198  : 	i_net_dev->tx_tail = 0;

	xor	eax, eax
	mov	rcx, QWORD PTR ?i_net_dev@@3PEAU_e1000_dev_@@EA ; i_net_dev
	mov	WORD PTR [rcx+48], ax

; 199  : 
; 200  : 
; 201  : 	e1000_write_command (REG_TCTRL, TCTL_EN | TCTL_PSP | TCTL_RTLC );

	mov	edx, 16777226				; 0100000aH
	mov	cx, 1024				; 00000400H
	call	?e1000_write_command@@YAXGI@Z		; e1000_write_command

; 202  : }

	add	rsp, 56					; 00000038H
	ret	0
?e1000_tx_init@@YAXXZ ENDP				; e1000_tx_init
_TEXT	ENDS
; Function compile flags: /Odtpy
; File e:\xeneva project\xeneva\aurora\aurora\drivers\net\e1000.cpp
_TEXT	SEGMENT
rctl$ = 32
i$1 = 36
tv95 = 40
?e1000_rx_init@@YAXXZ PROC				; e1000_rx_init

; 147  : void e1000_rx_init () {

$LN6:
	sub	rsp, 56					; 00000038H

; 148  : 
; 149  : 	i_net_dev->rx_desc_base = (uint64_t*)pmmngr_alloc();

	call	?pmmngr_alloc@@YAPEAXXZ			; pmmngr_alloc
	mov	rcx, QWORD PTR ?i_net_dev@@3PEAU_e1000_dev_@@EA ; i_net_dev
	mov	QWORD PTR [rcx+32], rax

; 150  : 
; 151  : 	for (int i = 0; i < E1000_NUM_RX_DESC; i++) {

	mov	DWORD PTR i$1[rsp], 0
	jmp	SHORT $LN3@e1000_rx_i
$LN2@e1000_rx_i:
	mov	eax, DWORD PTR i$1[rsp]
	inc	eax
	mov	DWORD PTR i$1[rsp], eax
$LN3@e1000_rx_i:
	cmp	DWORD PTR i$1[rsp], 32			; 00000020H
	jge	SHORT $LN1@e1000_rx_i

; 152  : 		i_net_dev->rx_desc[i] = (e1000_rx_desc*)(i_net_dev->rx_desc_base + (i * 16));

	mov	eax, DWORD PTR i$1[rsp]
	imul	eax, 16
	cdqe
	mov	rcx, QWORD PTR ?i_net_dev@@3PEAU_e1000_dev_@@EA ; i_net_dev
	mov	rcx, QWORD PTR [rcx+32]
	lea	rax, QWORD PTR [rcx+rax*8]
	movsxd	rcx, DWORD PTR i$1[rsp]
	mov	rdx, QWORD PTR ?i_net_dev@@3PEAU_e1000_dev_@@EA ; i_net_dev
	mov	QWORD PTR [rdx+rcx*8+56], rax

; 153  : 		i_net_dev->rx_desc[i]->addr = (uint64_t)pmmngr_alloc();   //malloc(8192+16);

	call	?pmmngr_alloc@@YAPEAXXZ			; pmmngr_alloc
	movsxd	rcx, DWORD PTR i$1[rsp]
	mov	rdx, QWORD PTR ?i_net_dev@@3PEAU_e1000_dev_@@EA ; i_net_dev
	mov	rcx, QWORD PTR [rdx+rcx*8+56]
	mov	QWORD PTR [rcx], rax

; 154  : 		i_net_dev->rx_desc[i]->status = 0;

	movsxd	rax, DWORD PTR i$1[rsp]
	mov	rcx, QWORD PTR ?i_net_dev@@3PEAU_e1000_dev_@@EA ; i_net_dev
	mov	rax, QWORD PTR [rcx+rax*8+56]
	mov	BYTE PTR [rax+12], 0

; 155  : 	}

	jmp	SHORT $LN2@e1000_rx_i
$LN1@e1000_rx_i:

; 156  : 
; 157  : 	e1000_write_command (REG_RXDESCKHI, ((uint32_t)i_net_dev->rx_desc_base >> 32));

	mov	rax, QWORD PTR ?i_net_dev@@3PEAU_e1000_dev_@@EA ; i_net_dev
	mov	eax, DWORD PTR [rax+32]
	shr	eax, 32					; 00000020H
	mov	edx, eax
	mov	cx, 10244				; 00002804H
	call	?e1000_write_command@@YAXGI@Z		; e1000_write_command

; 158  : 	e1000_write_command (REG_RXDESCLO,(uint32_t)i_net_dev->rx_desc_base);

	mov	rax, QWORD PTR ?i_net_dev@@3PEAU_e1000_dev_@@EA ; i_net_dev
	mov	edx, DWORD PTR [rax+32]
	mov	cx, 10240				; 00002800H
	call	?e1000_write_command@@YAXGI@Z		; e1000_write_command

; 159  : 
; 160  :     printf ("E1000 RX Descriptor HI -> %x, LO -> %x\n", e1000_read_command(REG_RXDESCKHI), e1000_read_command(REG_RXDESCLO));

	mov	cx, 10240				; 00002800H
	call	?e1000_read_command@@YAIG@Z		; e1000_read_command
	mov	DWORD PTR tv95[rsp], eax
	mov	cx, 10244				; 00002804H
	call	?e1000_read_command@@YAIG@Z		; e1000_read_command
	mov	ecx, DWORD PTR tv95[rsp]
	mov	r8d, ecx
	mov	edx, eax
	lea	rcx, OFFSET FLAT:$SG3481
	call	?printf@@YAXPEBDZZ			; printf

; 161  : 	e1000_write_command (REG_RXDESCLEN, E1000_NUM_RX_DESC * 16);

	mov	edx, 512				; 00000200H
	mov	cx, 10248				; 00002808H
	call	?e1000_write_command@@YAXGI@Z		; e1000_write_command

; 162  : 
; 163  : 	e1000_write_command(REG_RXDESCHEAD, 0);

	xor	edx, edx
	mov	cx, 10256				; 00002810H
	call	?e1000_write_command@@YAXGI@Z		; e1000_write_command

; 164  : 	e1000_write_command(REG_RXDESCTAIL, E1000_NUM_RX_DESC);

	mov	edx, 32					; 00000020H
	mov	cx, 10264				; 00002818H
	call	?e1000_write_command@@YAXGI@Z		; e1000_write_command

; 165  : 	i_net_dev->rx_tail = 0;

	xor	eax, eax
	mov	rcx, QWORD PTR ?i_net_dev@@3PEAU_e1000_dev_@@EA ; i_net_dev
	mov	WORD PTR [rcx+50], ax

; 166  : 
; 167  : 	uint32_t rctl = e1000_read_command (REG_RCTRL);

	mov	cx, 256					; 00000100H
	call	?e1000_read_command@@YAIG@Z		; e1000_read_command
	mov	DWORD PTR rctl$[rsp], eax

; 168  : 	rctl |= RCTL_EN;

	mov	eax, DWORD PTR rctl$[rsp]
	or	eax, 2
	mov	DWORD PTR rctl$[rsp], eax

; 169  : 	rctl &= ~RCTL_SBP;

	mov	eax, DWORD PTR rctl$[rsp]
	and	eax, -5					; fffffffbH
	mov	DWORD PTR rctl$[rsp], eax

; 170  : 	rctl |= RCTL_BAM;

	mov	eax, DWORD PTR rctl$[rsp]
	bts	eax, 15
	mov	DWORD PTR rctl$[rsp], eax

; 171  : 	rctl &= ~RCTL_BSIZE_4096;

	mov	eax, DWORD PTR rctl$[rsp]
	and	eax, -33751041				; fdfcffffH
	mov	DWORD PTR rctl$[rsp], eax

; 172  : 	rctl |= RCTL_BSIZE_2048;

	mov	eax, DWORD PTR rctl$[rsp]
	mov	DWORD PTR rctl$[rsp], eax

; 173  : 	rctl &= ~0x02000000;

	mov	eax, DWORD PTR rctl$[rsp]
	btr	eax, 25
	mov	DWORD PTR rctl$[rsp], eax

; 174  : 	rctl |= RCTL_SECRC;

	mov	eax, DWORD PTR rctl$[rsp]
	bts	eax, 26
	mov	DWORD PTR rctl$[rsp], eax

; 175  : 	e1000_write_command (REG_RCTRL, rctl);

	mov	edx, DWORD PTR rctl$[rsp]
	mov	cx, 256					; 00000100H
	call	?e1000_write_command@@YAXGI@Z		; e1000_write_command

; 176  : 
; 177  : }

	add	rsp, 56					; 00000038H
	ret	0
?e1000_rx_init@@YAXXZ ENDP				; e1000_rx_init
_TEXT	ENDS
; Function compile flags: /Odtpy
; File e:\xeneva project\xeneva\aurora\aurora\drivers\net\e1000.cpp
_TEXT	SEGMENT
status$1 = 32
head$2 = 36
icr$ = 40
size$3 = 48
tv159 = 56
v$ = 80
p$ = 88
?e1000_interrupt_handler@@YAX_KPEAX@Z PROC		; e1000_interrupt_handler

; 104  : void e1000_interrupt_handler (size_t v, void* p) {

$LN16:
	mov	QWORD PTR [rsp+16], rdx
	mov	QWORD PTR [rsp+8], rcx
	sub	rsp, 72					; 00000048H

; 105  : //	printf ("E1000 Interrupt fired\n");
; 106  : 	//apic_local_eoi();
; 107  : 	uint32_t icr = e1000_read_command (REG_ICR);

	mov	cx, 192					; 000000c0H
	call	?e1000_read_command@@YAIG@Z		; e1000_read_command
	mov	DWORD PTR icr$[rsp], eax

; 108  : 
; 109  : 	//e1000_write_command (REG_IMASK, 0x1);
; 110  : 	if (icr & E1000_ICR_RECEIVE) {

	mov	eax, DWORD PTR icr$[rsp]
	and	eax, 128				; 00000080H
	test	eax, eax
	je	$LN11@e1000_inte

; 111  : 		printf ("E1000 recevied\n");

	lea	rcx, OFFSET FLAT:$SG3449
	call	?printf@@YAXPEBDZZ			; printf

; 112  : 		uint32_t head = inportd (REG_RXDESCHEAD);

	mov	cx, 10256				; 00002810H
	call	?inportd@@YAIG@Z			; inportd
	mov	DWORD PTR head$2[rsp], eax
$LN10@e1000_inte:

; 113  : 
; 114  : 		while (i_net_dev->rx_tail != head){

	mov	rax, QWORD PTR ?i_net_dev@@3PEAU_e1000_dev_@@EA ; i_net_dev
	movzx	eax, WORD PTR [rax+50]
	cmp	eax, DWORD PTR head$2[rsp]
	je	$LN9@e1000_inte

; 115  : 			size_t size = i_net_dev->rx_desc[i_net_dev->rx_tail]->length;

	mov	rax, QWORD PTR ?i_net_dev@@3PEAU_e1000_dev_@@EA ; i_net_dev
	movzx	eax, WORD PTR [rax+50]
	mov	rcx, QWORD PTR ?i_net_dev@@3PEAU_e1000_dev_@@EA ; i_net_dev
	mov	rax, QWORD PTR [rcx+rax*8+56]
	movzx	eax, WORD PTR [rax+8]
	movzx	eax, ax
	mov	QWORD PTR size$3[rsp], rax

; 116  : 			uint8_t status = i_net_dev->rx_desc[i_net_dev->rx_tail]->status;

	mov	rax, QWORD PTR ?i_net_dev@@3PEAU_e1000_dev_@@EA ; i_net_dev
	movzx	eax, WORD PTR [rax+50]
	mov	rcx, QWORD PTR ?i_net_dev@@3PEAU_e1000_dev_@@EA ; i_net_dev
	mov	rax, QWORD PTR [rcx+rax*8+56]
	movzx	eax, BYTE PTR [rax+12]
	mov	BYTE PTR status$1[rsp], al

; 117  : 
; 118  : 			if ((status & 0x1)==0){

	movzx	eax, BYTE PTR status$1[rsp]
	and	eax, 1
	test	eax, eax
	jne	SHORT $LN8@e1000_inte

; 119  : 				break;

	jmp	SHORT $LN9@e1000_inte
$LN8@e1000_inte:

; 120  : 			}
; 121  : 			
; 122  : 			size -= 4;

	mov	rax, QWORD PTR size$3[rsp]
	sub	rax, 4
	mov	QWORD PTR size$3[rsp], rax

; 123  : 
; 124  : 			printf ("E1000 Bytes received -> %d bytes, status 0x%x\n", size, status);

	movzx	eax, BYTE PTR status$1[rsp]
	mov	r8d, eax
	mov	rdx, QWORD PTR size$3[rsp]
	lea	rcx, OFFSET FLAT:$SG3457
	call	?printf@@YAXPEBDZZ			; printf

; 125  : 
; 126  : 			i_net_dev->rx_tail++;

	mov	rax, QWORD PTR ?i_net_dev@@3PEAU_e1000_dev_@@EA ; i_net_dev
	movzx	eax, WORD PTR [rax+50]
	inc	ax
	mov	rcx, QWORD PTR ?i_net_dev@@3PEAU_e1000_dev_@@EA ; i_net_dev
	mov	WORD PTR [rcx+50], ax

; 127  : 			i_net_dev->rx_tail %= E1000_NUM_RX_DESC;

	mov	rax, QWORD PTR ?i_net_dev@@3PEAU_e1000_dev_@@EA ; i_net_dev
	movzx	eax, WORD PTR [rax+50]
	cdq
	and	edx, 31
	add	eax, edx
	and	eax, 31
	sub	eax, edx
	mov	rcx, QWORD PTR ?i_net_dev@@3PEAU_e1000_dev_@@EA ; i_net_dev
	mov	WORD PTR [rcx+50], ax

; 128  : 		}

	jmp	$LN10@e1000_inte
$LN9@e1000_inte:

; 129  : 
; 130  : 		if (i_net_dev->rx_tail == head) {

	mov	rax, QWORD PTR ?i_net_dev@@3PEAU_e1000_dev_@@EA ; i_net_dev
	movzx	eax, WORD PTR [rax+50]
	cmp	eax, DWORD PTR head$2[rsp]
	jne	SHORT $LN7@e1000_inte

; 131  : 			e1000_write_command (REG_RXDESCTAIL, (head + E1000_NUM_RX_DESC - 1) % E1000_NUM_RX_DESC);

	mov	eax, DWORD PTR head$2[rsp]
	add	eax, 31
	xor	edx, edx
	mov	ecx, 32					; 00000020H
	div	ecx
	mov	eax, edx
	mov	edx, eax
	mov	cx, 10264				; 00002818H
	call	?e1000_write_command@@YAXGI@Z		; e1000_write_command

; 132  : 		}else {

	jmp	SHORT $LN6@e1000_inte
$LN7@e1000_inte:

; 133  : 			e1000_write_command (REG_RXDESCTAIL, i_net_dev->rx_tail);

	mov	rax, QWORD PTR ?i_net_dev@@3PEAU_e1000_dev_@@EA ; i_net_dev
	movzx	eax, WORD PTR [rax+50]
	mov	edx, eax
	mov	cx, 10264				; 00002818H
	call	?e1000_write_command@@YAXGI@Z		; e1000_write_command
$LN6@e1000_inte:

; 134  : 		}

	jmp	SHORT $LN5@e1000_inte
$LN11@e1000_inte:

; 135  : 
; 136  : 	} else if (icr & E1000_ICR_TRANSMIT) {

	mov	eax, DWORD PTR icr$[rsp]
	and	eax, 1
	test	eax, eax
	je	SHORT $LN4@e1000_inte

; 137  : 		printf ("E1000 interrupt data transmit\n");

	lea	rcx, OFFSET FLAT:$SG3462
	call	?printf@@YAXPEBDZZ			; printf
	jmp	SHORT $LN3@e1000_inte
$LN4@e1000_inte:

; 138  : 	} else if (icr & E1000_ICR_LINK_CHANGE) {

	mov	eax, DWORD PTR icr$[rsp]
	and	eax, 4
	test	eax, eax
	je	SHORT $LN2@e1000_inte

; 139  : 		printf ("E1000 interrupt link change %s\n", (e1000_read_command(REG_STATUS) & STATUS_LINK_UP) ? "up" : "down");

	mov	cx, 8
	call	?e1000_read_command@@YAIG@Z		; e1000_read_command
	and	eax, -2147483648			; 80000000H
	test	eax, eax
	je	SHORT $LN14@e1000_inte
	lea	rax, OFFSET FLAT:$SG3465
	mov	QWORD PTR tv159[rsp], rax
	jmp	SHORT $LN15@e1000_inte
$LN14@e1000_inte:
	lea	rax, OFFSET FLAT:$SG3466
	mov	QWORD PTR tv159[rsp], rax
$LN15@e1000_inte:
	mov	rdx, QWORD PTR tv159[rsp]
	lea	rcx, OFFSET FLAT:$SG3467
	call	?printf@@YAXPEBDZZ			; printf

; 140  : 	} else {

	jmp	SHORT $LN1@e1000_inte
$LN2@e1000_inte:

; 141  : 		printf ("E1000 unknown interrupt\n");

	lea	rcx, OFFSET FLAT:$SG3469
	call	?printf@@YAXPEBDZZ			; printf
$LN1@e1000_inte:
$LN3@e1000_inte:
$LN5@e1000_inte:

; 142  : 	}
; 143  : 	interrupt_end(i_net_dev->e1000_irq);

	mov	rax, QWORD PTR ?i_net_dev@@3PEAU_e1000_dev_@@EA ; i_net_dev
	mov	ecx, DWORD PTR [rax+20]
	call	?interrupt_end@@YAXI@Z			; interrupt_end

; 144  : }

	add	rsp, 72					; 00000048H
	ret	0
?e1000_interrupt_handler@@YAX_KPEAX@Z ENDP		; e1000_interrupt_handler
_TEXT	ENDS
; Function compile flags: /Odtpy
; File e:\xeneva project\xeneva\aurora\aurora\drivers\net\e1000.cpp
_TEXT	SEGMENT
temp$1 = 32
i$2 = 36
mem_base_mac_32$3 = 40
mem_base_mac_8$4 = 48
?e1000_read_mac_address@@YA_NXZ PROC			; e1000_read_mac_address

; 75   : bool e1000_read_mac_address () {

$LN10:
	sub	rsp, 72					; 00000048H

; 76   : 	if (i_net_dev->eerprom_exists) {

	mov	rax, QWORD PTR ?i_net_dev@@3PEAU_e1000_dev_@@EA ; i_net_dev
	movzx	eax, BYTE PTR [rax+16]
	test	eax, eax
	je	$LN7@e1000_read

; 77   : 		printf ("EEPROM exist\n");

	lea	rcx, OFFSET FLAT:$SG3429
	call	?printf@@YAXPEBDZZ			; printf

; 78   : 		uint32_t temp;
; 79   : 		temp = e1000_eerprom_read (0);

	xor	ecx, ecx
	call	?e1000_eerprom_read@@YAIE@Z		; e1000_eerprom_read
	mov	DWORD PTR temp$1[rsp], eax

; 80   : 		i_net_dev->mac[0] = temp & 0xff;

	mov	eax, DWORD PTR temp$1[rsp]
	and	eax, 255				; 000000ffH
	mov	ecx, 1
	imul	rcx, 0
	mov	rdx, QWORD PTR ?i_net_dev@@3PEAU_e1000_dev_@@EA ; i_net_dev
	mov	BYTE PTR [rdx+rcx+24], al

; 81   : 		i_net_dev->mac[1] = temp >> 8;

	mov	eax, DWORD PTR temp$1[rsp]
	shr	eax, 8
	mov	ecx, 1
	imul	rcx, 1
	mov	rdx, QWORD PTR ?i_net_dev@@3PEAU_e1000_dev_@@EA ; i_net_dev
	mov	BYTE PTR [rdx+rcx+24], al

; 82   : 		temp = e1000_eerprom_read (1);

	mov	cl, 1
	call	?e1000_eerprom_read@@YAIE@Z		; e1000_eerprom_read
	mov	DWORD PTR temp$1[rsp], eax

; 83   : 		i_net_dev->mac[2] = temp & 0xff;

	mov	eax, DWORD PTR temp$1[rsp]
	and	eax, 255				; 000000ffH
	mov	ecx, 1
	imul	rcx, 2
	mov	rdx, QWORD PTR ?i_net_dev@@3PEAU_e1000_dev_@@EA ; i_net_dev
	mov	BYTE PTR [rdx+rcx+24], al

; 84   : 		i_net_dev->mac[3] = temp >> 8;

	mov	eax, DWORD PTR temp$1[rsp]
	shr	eax, 8
	mov	ecx, 1
	imul	rcx, 3
	mov	rdx, QWORD PTR ?i_net_dev@@3PEAU_e1000_dev_@@EA ; i_net_dev
	mov	BYTE PTR [rdx+rcx+24], al

; 85   : 		temp = e1000_eerprom_read (2);

	mov	cl, 2
	call	?e1000_eerprom_read@@YAIE@Z		; e1000_eerprom_read
	mov	DWORD PTR temp$1[rsp], eax

; 86   : 		i_net_dev->mac[4] = temp & 0xff;

	mov	eax, DWORD PTR temp$1[rsp]
	and	eax, 255				; 000000ffH
	mov	ecx, 1
	imul	rcx, 4
	mov	rdx, QWORD PTR ?i_net_dev@@3PEAU_e1000_dev_@@EA ; i_net_dev
	mov	BYTE PTR [rdx+rcx+24], al

; 87   : 		i_net_dev->mac[5] = temp >> 8;

	mov	eax, DWORD PTR temp$1[rsp]
	shr	eax, 8
	mov	ecx, 1
	imul	rcx, 5
	mov	rdx, QWORD PTR ?i_net_dev@@3PEAU_e1000_dev_@@EA ; i_net_dev
	mov	BYTE PTR [rdx+rcx+24], al

; 88   : 	} else {

	jmp	$LN6@e1000_read
$LN7@e1000_read:

; 89   : 		printf ("Applying memory map\n");

	lea	rcx, OFFSET FLAT:$SG3432
	call	?printf@@YAXPEBDZZ			; printf

; 90   : 		uint8_t * mem_base_mac_8 = (uint8_t*)(i_net_dev->e1000_mem_base + 0x5400);

	mov	rax, QWORD PTR ?i_net_dev@@3PEAU_e1000_dev_@@EA ; i_net_dev
	mov	rax, QWORD PTR [rax+8]
	add	rax, 21504				; 00005400H
	mov	QWORD PTR mem_base_mac_8$4[rsp], rax

; 91   : 		uint32_t * mem_base_mac_32 = (uint32_t*) (i_net_dev->e1000_mem_base + 0x5400);

	mov	rax, QWORD PTR ?i_net_dev@@3PEAU_e1000_dev_@@EA ; i_net_dev
	mov	rax, QWORD PTR [rax+8]
	add	rax, 21504				; 00005400H
	mov	QWORD PTR mem_base_mac_32$3[rsp], rax

; 92   : 		if (mem_base_mac_32[0] != 0) {

	mov	eax, 4
	imul	rax, 0
	mov	rcx, QWORD PTR mem_base_mac_32$3[rsp]
	cmp	DWORD PTR [rcx+rax], 0
	je	SHORT $LN5@e1000_read

; 93   : 			for (int i = 0; i < 6; i++) {

	mov	DWORD PTR i$2[rsp], 0
	jmp	SHORT $LN4@e1000_read
$LN3@e1000_read:
	mov	eax, DWORD PTR i$2[rsp]
	inc	eax
	mov	DWORD PTR i$2[rsp], eax
$LN4@e1000_read:
	cmp	DWORD PTR i$2[rsp], 6
	jge	SHORT $LN2@e1000_read

; 94   : 				i_net_dev->mac[i] = mem_base_mac_8[i];

	movsxd	rax, DWORD PTR i$2[rsp]
	movsxd	rcx, DWORD PTR i$2[rsp]
	mov	rdx, QWORD PTR ?i_net_dev@@3PEAU_e1000_dev_@@EA ; i_net_dev
	mov	r8, QWORD PTR mem_base_mac_8$4[rsp]
	movzx	eax, BYTE PTR [r8+rax]
	mov	BYTE PTR [rdx+rcx+24], al

; 95   : 			}

	jmp	SHORT $LN3@e1000_read
$LN2@e1000_read:
	jmp	SHORT $LN1@e1000_read
$LN5@e1000_read:

; 96   : 		}else {
; 97   : 			return false;

	xor	al, al
	jmp	SHORT $LN8@e1000_read
$LN1@e1000_read:
$LN6@e1000_read:

; 98   : 		}
; 99   : 	}
; 100  : 
; 101  : 	return true;

	mov	al, 1
$LN8@e1000_read:

; 102  : }

	add	rsp, 72					; 00000048H
	ret	0
?e1000_read_mac_address@@YA_NXZ ENDP			; e1000_read_mac_address
_TEXT	ENDS
; Function compile flags: /Odtpy
; File e:\xeneva project\xeneva\aurora\aurora\drivers\net\e1000.cpp
_TEXT	SEGMENT
data$ = 32
tmp$ = 36
addr$ = 64
?e1000_eerprom_read@@YAIE@Z PROC			; e1000_eerprom_read

; 59   : uint32_t e1000_eerprom_read (uint8_t addr) {

$LN9:
	mov	BYTE PTR [rsp+8], cl
	sub	rsp, 56					; 00000038H

; 60   : 	
; 61   : 	uint16_t data = 0;

	xor	eax, eax
	mov	WORD PTR data$[rsp], ax

; 62   : 	uint32_t tmp = 0;

	mov	DWORD PTR tmp$[rsp], 0

; 63   : 	if (i_net_dev->eerprom_exists) {

	mov	rax, QWORD PTR ?i_net_dev@@3PEAU_e1000_dev_@@EA ; i_net_dev
	movzx	eax, BYTE PTR [rax+16]
	test	eax, eax
	je	SHORT $LN6@e1000_eerp

; 64   : 		e1000_write_command (REG_EEPROM, (1) | ((uint32_t)(addr) << 8));

	movzx	eax, BYTE PTR addr$[rsp]
	shl	eax, 8
	or	eax, 1
	mov	edx, eax
	mov	cx, 20
	call	?e1000_write_command@@YAXGI@Z		; e1000_write_command
$LN5@e1000_eerp:

; 65   : 		while (! ((tmp = e1000_read_command (REG_EEPROM)) & (1 << 4)));

	mov	cx, 20
	call	?e1000_read_command@@YAIG@Z		; e1000_read_command
	mov	DWORD PTR tmp$[rsp], eax
	mov	eax, DWORD PTR tmp$[rsp]
	and	eax, 16
	test	eax, eax
	jne	SHORT $LN4@e1000_eerp
	jmp	SHORT $LN5@e1000_eerp
$LN4@e1000_eerp:

; 66   : 	} else {

	jmp	SHORT $LN3@e1000_eerp
$LN6@e1000_eerp:

; 67   : 		e1000_write_command ( REG_EEPROM, (1) | ((uint32_t)(addr) << 2));

	movzx	eax, BYTE PTR addr$[rsp]
	shl	eax, 2
	or	eax, 1
	mov	edx, eax
	mov	cx, 20
	call	?e1000_write_command@@YAXGI@Z		; e1000_write_command
$LN2@e1000_eerp:

; 68   : 		while (!((tmp = e1000_read_command (REG_EEPROM)) & (1 << 1)));

	mov	cx, 20
	call	?e1000_read_command@@YAIG@Z		; e1000_read_command
	mov	DWORD PTR tmp$[rsp], eax
	mov	eax, DWORD PTR tmp$[rsp]
	and	eax, 2
	test	eax, eax
	jne	SHORT $LN1@e1000_eerp
	jmp	SHORT $LN2@e1000_eerp
$LN1@e1000_eerp:
$LN3@e1000_eerp:

; 69   : 	}
; 70   : 	data = (uint16_t)((tmp >> 16) & 0xFFFF);

	mov	eax, DWORD PTR tmp$[rsp]
	shr	eax, 16
	and	eax, 65535				; 0000ffffH
	mov	WORD PTR data$[rsp], ax

; 71   : 	return data;

	movzx	eax, WORD PTR data$[rsp]

; 72   : }

	add	rsp, 56					; 00000038H
	ret	0
?e1000_eerprom_read@@YAIE@Z ENDP			; e1000_eerprom_read
_TEXT	ENDS
; Function compile flags: /Odtpy
; File e:\xeneva project\xeneva\aurora\aurora\drivers\net\e1000.cpp
_TEXT	SEGMENT
i$1 = 32
val$ = 36
?e1000_detect_eeprom@@YA_NXZ PROC			; e1000_detect_eeprom

; 42   : bool e1000_detect_eeprom () {

$LN8:
	sub	rsp, 56					; 00000038H

; 43   : 	
; 44   : 	uint32_t val = 0;

	mov	DWORD PTR val$[rsp], 0

; 45   : 	e1000_write_command (REG_EEPROM, 0x1);

	mov	edx, 1
	mov	cx, 20
	call	?e1000_write_command@@YAXGI@Z		; e1000_write_command

; 46   : 
; 47   : 	for (int i = 0; i < 1000 && ! i_net_dev->eerprom_exists; i++) {

	mov	DWORD PTR i$1[rsp], 0
	jmp	SHORT $LN5@e1000_dete
$LN4@e1000_dete:
	mov	eax, DWORD PTR i$1[rsp]
	inc	eax
	mov	DWORD PTR i$1[rsp], eax
$LN5@e1000_dete:
	cmp	DWORD PTR i$1[rsp], 1000		; 000003e8H
	jge	SHORT $LN3@e1000_dete
	mov	rax, QWORD PTR ?i_net_dev@@3PEAU_e1000_dev_@@EA ; i_net_dev
	movzx	eax, BYTE PTR [rax+16]
	test	eax, eax
	jne	SHORT $LN3@e1000_dete

; 48   : 		val = e1000_read_command (REG_EEPROM);

	mov	cx, 20
	call	?e1000_read_command@@YAIG@Z		; e1000_read_command
	mov	DWORD PTR val$[rsp], eax

; 49   : 		if (val & 0x10)

	mov	eax, DWORD PTR val$[rsp]
	and	eax, 16
	test	eax, eax
	je	SHORT $LN2@e1000_dete

; 50   : 			i_net_dev->eerprom_exists = true;

	mov	rax, QWORD PTR ?i_net_dev@@3PEAU_e1000_dev_@@EA ; i_net_dev
	mov	BYTE PTR [rax+16], 1

; 51   : 		else

	jmp	SHORT $LN1@e1000_dete
$LN2@e1000_dete:

; 52   : 			i_net_dev->eerprom_exists = false;

	mov	rax, QWORD PTR ?i_net_dev@@3PEAU_e1000_dev_@@EA ; i_net_dev
	mov	BYTE PTR [rax+16], 0
$LN1@e1000_dete:

; 53   : 	}

	jmp	SHORT $LN4@e1000_dete
$LN3@e1000_dete:

; 54   : 
; 55   : 	return i_net_dev->eerprom_exists;

	mov	rax, QWORD PTR ?i_net_dev@@3PEAU_e1000_dev_@@EA ; i_net_dev
	movzx	eax, BYTE PTR [rax+16]

; 56   : }

	add	rsp, 56					; 00000038H
	ret	0
?e1000_detect_eeprom@@YA_NXZ ENDP			; e1000_detect_eeprom
_TEXT	ENDS
; Function compile flags: /Odtpy
; File e:\xeneva project\xeneva\aurora\aurora\drivers\net\e1000.cpp
_TEXT	SEGMENT
p_address$ = 48
p_value$ = 56
?e1000_write_command@@YAXGI@Z PROC			; e1000_write_command

; 34   : void e1000_write_command (uint16_t p_address, uint32_t p_value) {

$LN5:
	mov	DWORD PTR [rsp+16], edx
	mov	WORD PTR [rsp+8], cx
	sub	rsp, 40					; 00000028H

; 35   : 	if (i_net_dev->e1000_base != 0) {

	mov	rax, QWORD PTR ?i_net_dev@@3PEAU_e1000_dev_@@EA ; i_net_dev
	cmp	QWORD PTR [rax], 0
	je	SHORT $LN2@e1000_writ

; 36   : 		x64_outportd (i_net_dev->e1000_base, p_address);

	movzx	eax, WORD PTR p_address$[rsp]
	mov	edx, eax
	mov	rax, QWORD PTR ?i_net_dev@@3PEAU_e1000_dev_@@EA ; i_net_dev
	movzx	ecx, WORD PTR [rax]
	call	x64_outportd

; 37   : 		x64_outportd (i_net_dev->e1000_base + 4, p_value);  //4

	mov	rax, QWORD PTR ?i_net_dev@@3PEAU_e1000_dev_@@EA ; i_net_dev
	mov	rax, QWORD PTR [rax]
	add	rax, 4
	mov	edx, DWORD PTR p_value$[rsp]
	movzx	ecx, ax
	call	x64_outportd

; 38   : 	}else

	jmp	SHORT $LN1@e1000_writ
$LN2@e1000_writ:

; 39   : 		*(uint32_t*)(i_net_dev->e1000_mem_base + p_address) = p_value;

	movzx	eax, WORD PTR p_address$[rsp]
	mov	rcx, QWORD PTR ?i_net_dev@@3PEAU_e1000_dev_@@EA ; i_net_dev
	mov	rcx, QWORD PTR [rcx+8]
	mov	edx, DWORD PTR p_value$[rsp]
	mov	DWORD PTR [rax+rcx], edx
$LN1@e1000_writ:

; 40   : }

	add	rsp, 40					; 00000028H
	ret	0
?e1000_write_command@@YAXGI@Z ENDP			; e1000_write_command
_TEXT	ENDS
; Function compile flags: /Odtpy
; File e:\xeneva project\xeneva\aurora\aurora\drivers\net\e1000.cpp
_TEXT	SEGMENT
io_data$1 = 32
p_address$ = 64
?e1000_read_command@@YAIG@Z PROC			; e1000_read_command

; 24   : uint32_t e1000_read_command (uint16_t p_address) {

$LN5:
	mov	WORD PTR [rsp+8], cx
	sub	rsp, 56					; 00000038H

; 25   : 	if (i_net_dev->e1000_base != 0) {

	mov	rax, QWORD PTR ?i_net_dev@@3PEAU_e1000_dev_@@EA ; i_net_dev
	cmp	QWORD PTR [rax], 0
	je	SHORT $LN2@e1000_read

; 26   : 		x64_outportd (i_net_dev->e1000_base,p_address);

	movzx	eax, WORD PTR p_address$[rsp]
	mov	edx, eax
	mov	rax, QWORD PTR ?i_net_dev@@3PEAU_e1000_dev_@@EA ; i_net_dev
	movzx	ecx, WORD PTR [rax]
	call	x64_outportd

; 27   : 		char *io_data = (char*)(i_net_dev->e1000_base + 4);

	mov	rax, QWORD PTR ?i_net_dev@@3PEAU_e1000_dev_@@EA ; i_net_dev
	mov	rax, QWORD PTR [rax]
	add	rax, 4
	mov	QWORD PTR io_data$1[rsp], rax

; 28   : 		return x64_inportd ((uint16_t)io_data);

	movzx	ecx, WORD PTR io_data$1[rsp]
	call	x64_inportd
	jmp	SHORT $LN3@e1000_read

; 29   : 	}else 

	jmp	SHORT $LN1@e1000_read
$LN2@e1000_read:

; 30   : 		return *(uint32_t*)(i_net_dev->e1000_mem_base + p_address);

	movzx	eax, WORD PTR p_address$[rsp]
	mov	rcx, QWORD PTR ?i_net_dev@@3PEAU_e1000_dev_@@EA ; i_net_dev
	mov	rcx, QWORD PTR [rcx+8]
	mov	eax, DWORD PTR [rax+rcx]
$LN1@e1000_read:
$LN3@e1000_read:

; 31   : 
; 32   : }

	add	rsp, 56					; 00000038H
	ret	0
?e1000_read_command@@YAIG@Z ENDP			; e1000_read_command
_TEXT	ENDS
; Function compile flags: /Odtpy
; File e:\xeneva project\xeneva\aurora\aurora\drivers\net\e1000.cpp
_TEXT	SEGMENT
cur$ = 32
head$ = 36
data$ = 64
size$ = 72
?e1000_send_packet@@YAXPEAX_K@Z PROC			; e1000_send_packet

; 210  : void e1000_send_packet (void* data, size_t size) {

$LN8:
	mov	QWORD PTR [rsp+16], rdx
	mov	QWORD PTR [rsp+8], rcx
	sub	rsp, 56					; 00000038H

; 211  : 	x64_cli();

	call	x64_cli

; 212  : 	uint32_t cur, head;
; 213  : 	
; 214  : 	cur = e1000_read_command (REG_TXDESCTAIL) % E1000_NUM_TX_DESC; //i_net_dev->tx_tail;

	mov	cx, 14360				; 00003818H
	call	?e1000_read_command@@YAIG@Z		; e1000_read_command
	xor	edx, edx
	mov	ecx, 8
	div	ecx
	mov	eax, edx
	mov	DWORD PTR cur$[rsp], eax

; 215  : 	printf ("CUR Tx tail -> %d\n", cur);

	mov	edx, DWORD PTR cur$[rsp]
	lea	rcx, OFFSET FLAT:$SG3503
	call	?printf@@YAXPEBDZZ			; printf

; 216  : 	i_net_dev->tx_tail++;

	mov	rax, QWORD PTR ?i_net_dev@@3PEAU_e1000_dev_@@EA ; i_net_dev
	movzx	eax, WORD PTR [rax+48]
	inc	ax
	mov	rcx, QWORD PTR ?i_net_dev@@3PEAU_e1000_dev_@@EA ; i_net_dev
	mov	WORD PTR [rcx+48], ax

; 217  : 	i_net_dev->tx_tail %= E1000_NUM_TX_DESC;

	mov	rax, QWORD PTR ?i_net_dev@@3PEAU_e1000_dev_@@EA ; i_net_dev
	movzx	eax, WORD PTR [rax+48]
	cdq
	and	edx, 7
	add	eax, edx
	and	eax, 7
	sub	eax, edx
	mov	rcx, QWORD PTR ?i_net_dev@@3PEAU_e1000_dev_@@EA ; i_net_dev
	mov	WORD PTR [rcx+48], ax

; 218  : 
; 219  : 	head = e1000_read_command(REG_TXDESCHEAD);

	mov	cx, 14352				; 00003810H
	call	?e1000_read_command@@YAIG@Z		; e1000_read_command
	mov	DWORD PTR head$[rsp], eax

; 220  : 	if (i_net_dev->tx_tail == head) {

	mov	rax, QWORD PTR ?i_net_dev@@3PEAU_e1000_dev_@@EA ; i_net_dev
	movzx	eax, WORD PTR [rax+48]
	cmp	eax, DWORD PTR head$[rsp]
	jne	SHORT $LN5@e1000_send

; 221  : 		i_net_dev->tx_tail = cur;

	mov	rax, QWORD PTR ?i_net_dev@@3PEAU_e1000_dev_@@EA ; i_net_dev
	movzx	ecx, WORD PTR cur$[rsp]
	mov	WORD PTR [rax+48], cx

; 222  : 		return;

	jmp	$LN6@e1000_send
$LN5@e1000_send:

; 223  : 	}
; 224  : 
; 225  : 	if (size > 2048) {  //max buffer size 2048 (2KB)

	cmp	QWORD PTR size$[rsp], 2048		; 00000800H
	jbe	SHORT $LN4@e1000_send

; 226  : 		size = 2048;

	mov	QWORD PTR size$[rsp], 2048		; 00000800H
$LN4@e1000_send:

; 227  : 	}
; 228  : 
; 229  : 	
; 230  : 
; 231  : 	i_net_dev->tx_desc[cur]->cmd = CMD_EOP | CMD_IFCS | CMD_RS | CMD_RPS | CMD_IDE;

	mov	eax, DWORD PTR cur$[rsp]
	mov	rcx, QWORD PTR ?i_net_dev@@3PEAU_e1000_dev_@@EA ; i_net_dev
	mov	rax, QWORD PTR [rcx+rax*8+312]
	mov	BYTE PTR [rax+11], 155			; 0000009bH

; 232  : 	i_net_dev->tx_desc[cur]->length = size;

	mov	eax, DWORD PTR cur$[rsp]
	mov	rcx, QWORD PTR ?i_net_dev@@3PEAU_e1000_dev_@@EA ; i_net_dev
	mov	rax, QWORD PTR [rcx+rax*8+312]
	movzx	ecx, WORD PTR size$[rsp]
	mov	WORD PTR [rax+8], cx

; 233  : 	i_net_dev->tx_desc[cur]->addr = (uint64_t)pmmngr_alloc(); //(i_net_dev->tx_desc_base + (cur * 2048));

	call	?pmmngr_alloc@@YAPEAXXZ			; pmmngr_alloc
	mov	ecx, DWORD PTR cur$[rsp]
	mov	rdx, QWORD PTR ?i_net_dev@@3PEAU_e1000_dev_@@EA ; i_net_dev
	mov	rcx, QWORD PTR [rdx+rcx*8+312]
	mov	QWORD PTR [rcx], rax

; 234  : 	e1000_write_command(REG_TXDESCTAIL, i_net_dev->tx_tail);

	mov	rax, QWORD PTR ?i_net_dev@@3PEAU_e1000_dev_@@EA ; i_net_dev
	movzx	eax, WORD PTR [rax+48]
	mov	edx, eax
	mov	cx, 14360				; 00003818H
	call	?e1000_write_command@@YAXGI@Z		; e1000_write_command

; 235  : 	memcpy ((void*)i_net_dev->tx_desc[cur]->addr, data, size);

	mov	eax, DWORD PTR cur$[rsp]
	mov	rcx, QWORD PTR ?i_net_dev@@3PEAU_e1000_dev_@@EA ; i_net_dev
	mov	rax, QWORD PTR [rcx+rax*8+312]
	mov	r8d, DWORD PTR size$[rsp]
	mov	rdx, QWORD PTR data$[rsp]
	mov	rcx, QWORD PTR [rax]
	call	memcpy

; 236  : 	printf ("TX Next tail -> %d\n", e1000_read_command (REG_TXDESCTAIL) % E1000_NUM_TX_DESC);

	mov	cx, 14360				; 00003818H
	call	?e1000_read_command@@YAIG@Z		; e1000_read_command
	xor	edx, edx
	mov	ecx, 8
	div	ecx
	mov	eax, edx
	mov	edx, eax
	lea	rcx, OFFSET FLAT:$SG3508
	call	?printf@@YAXPEBDZZ			; printf

; 237  : 	x64_sti();

	call	x64_sti
$LN3@e1000_send:

; 238  : 	for(;;) {
; 239  : 		if (i_net_dev->tx_desc[cur]->status) {

	mov	eax, DWORD PTR cur$[rsp]
	mov	rcx, QWORD PTR ?i_net_dev@@3PEAU_e1000_dev_@@EA ; i_net_dev
	mov	rax, QWORD PTR [rcx+rax*8+312]
	movzx	eax, BYTE PTR [rax+12]
	movzx	eax, al
	test	eax, eax
	je	SHORT $LN1@e1000_send

; 240  : 			printf ("Transmit status ->%x\n", i_net_dev->tx_desc[cur]->status);

	mov	eax, DWORD PTR cur$[rsp]
	mov	rcx, QWORD PTR ?i_net_dev@@3PEAU_e1000_dev_@@EA ; i_net_dev
	mov	rax, QWORD PTR [rcx+rax*8+312]
	movzx	eax, BYTE PTR [rax+12]
	movzx	eax, al
	mov	edx, eax
	lea	rcx, OFFSET FLAT:$SG3513
	call	?printf@@YAXPEBDZZ			; printf

; 241  : 			printf ("Transmitted\n");

	lea	rcx, OFFSET FLAT:$SG3514
	call	?printf@@YAXPEBDZZ			; printf

; 242  : 			break;

	jmp	SHORT $LN2@e1000_send
$LN1@e1000_send:

; 243  : 		}
; 244  : 	}

	jmp	SHORT $LN3@e1000_send
$LN2@e1000_send:
$LN6@e1000_send:

; 245  : }

	add	rsp, 56					; 00000038H
	ret	0
?e1000_send_packet@@YAXPEAX_K@Z ENDP			; e1000_send_packet
_TEXT	ENDS
; Function compile flags: /Odtpy
; File e:\xeneva project\xeneva\aurora\aurora\drivers\net\e1000.cpp
_TEXT	SEGMENT
pci_status$ = 48
i$1 = 52
bus$ = 56
command$ = 60
dev$ = 64
func$ = 72
i$2 = 76
i$3 = 80
cmmd$ = 84
dev_$ = 88
?e1000_initialize@@YAXXZ PROC				; e1000_initialize

; 300  : void e1000_initialize () {

$LN19:
	sub	rsp, 104				; 00000068H

; 301  : 	int func, dev_, bus = 0;

	mov	DWORD PTR bus$[rsp], 0

; 302  : 	pci_device_info *dev = (pci_device_info*)pmmngr_alloc();

	call	?pmmngr_alloc@@YAPEAXXZ			; pmmngr_alloc
	mov	QWORD PTR dev$[rsp], rax

; 303  : 	if (!pci_find_device_class (0x02,0x00, dev,&bus, &dev_, &func)) {

	lea	rax, QWORD PTR func$[rsp]
	mov	QWORD PTR [rsp+40], rax
	lea	rax, QWORD PTR dev_$[rsp]
	mov	QWORD PTR [rsp+32], rax
	lea	r9, QWORD PTR bus$[rsp]
	mov	r8, QWORD PTR dev$[rsp]
	xor	edx, edx
	mov	cl, 2
	call	?pci_find_device_class@@YA_NEEPEATpci_device_info@@PEAH11@Z ; pci_find_device_class
	movzx	eax, al
	test	eax, eax
	jne	SHORT $LN16@e1000_init

; 304  : 		printf ("Intel Ethernet not found\n");

	lea	rcx, OFFSET FLAT:$SG3560
	call	?printf@@YAXPEBDZZ			; printf

; 305  : 		return;

	jmp	$LN17@e1000_init
$LN16@e1000_init:

; 306  : 	}
; 307  : 
; 308  : 	x64_cli ();

	call	x64_cli

; 309  : 
; 310  : 	uint16_t command = 0;

	xor	eax, eax
	mov	WORD PTR command$[rsp], ax

; 311  : 	read_config_16 (0,bus,dev_,func,0x4,&command);

	lea	rax, QWORD PTR command$[rsp]
	mov	QWORD PTR [rsp+40], rax
	mov	DWORD PTR [rsp+32], 4
	mov	r9d, DWORD PTR func$[rsp]
	mov	r8d, DWORD PTR dev_$[rsp]
	mov	edx, DWORD PTR bus$[rsp]
	xor	ecx, ecx
	call	?read_config_16@@YAXGHHHHPEAG@Z		; read_config_16

; 312  : 	if (((command >> 10) & 0xff) != 0) {

	movzx	eax, WORD PTR command$[rsp]
	sar	eax, 10
	and	eax, 255				; 000000ffH
	test	eax, eax
	je	SHORT $LN15@e1000_init

; 313  : 		printf ("E1000 INterrupt Disabled in PCI ConfigSpace\n");

	lea	rcx, OFFSET FLAT:$SG3563
	call	?printf@@YAXPEBDZZ			; printf
$LN15@e1000_init:

; 314  : 	}
; 315  : 
; 316  : 	i_net_dev = (e1000_dev*)malloc(sizeof(e1000_dev));

	mov	ecx, 376				; 00000178H
	call	?malloc@@YAPEAXI@Z			; malloc
	mov	QWORD PTR ?i_net_dev@@3PEAU_e1000_dev_@@EA, rax ; i_net_dev

; 317  :     
; 318  :     i_net_dev->e1000_mem_base = dev->device.nonBridge.baseAddress[1] & ~0xf;

	mov	eax, 4
	imul	rax, 1
	mov	rcx, QWORD PTR dev$[rsp]
	mov	eax, DWORD PTR [rcx+rax+16]
	and	eax, -16				; fffffff0H
	mov	eax, eax
	mov	rcx, QWORD PTR ?i_net_dev@@3PEAU_e1000_dev_@@EA ; i_net_dev
	mov	QWORD PTR [rcx+8], rax

; 319  : 
; 320  : 	for (int i = 0; i < 6; i++) {

	mov	DWORD PTR i$1[rsp], 0
	jmp	SHORT $LN14@e1000_init
$LN13@e1000_init:
	mov	eax, DWORD PTR i$1[rsp]
	inc	eax
	mov	DWORD PTR i$1[rsp], eax
$LN14@e1000_init:
	cmp	DWORD PTR i$1[rsp], 6
	jge	SHORT $LN12@e1000_init

; 321  : 		if ( dev->device.nonBridge.baseAddress[i] & 1){

	movsxd	rax, DWORD PTR i$1[rsp]
	mov	rcx, QWORD PTR dev$[rsp]
	mov	eax, DWORD PTR [rcx+rax*4+16]
	and	eax, 1
	test	eax, eax
	je	SHORT $LN11@e1000_init

; 322  : 			  //TODO:Auto search  4
; 323  : 			
; 324  : 	        i_net_dev->e1000_base = dev->device.nonBridge.baseAddress[i] & ~3; 

	movsxd	rax, DWORD PTR i$1[rsp]
	mov	rcx, QWORD PTR dev$[rsp]
	mov	eax, DWORD PTR [rcx+rax*4+16]
	and	eax, -4					; fffffffcH
	mov	eax, eax
	mov	rcx, QWORD PTR ?i_net_dev@@3PEAU_e1000_dev_@@EA ; i_net_dev
	mov	QWORD PTR [rcx], rax

; 325  : 			break;

	jmp	SHORT $LN12@e1000_init
$LN11@e1000_init:

; 326  : 		}
; 327  : 	}

	jmp	SHORT $LN13@e1000_init
$LN12@e1000_init:

; 328  : 	i_net_dev->e1000_irq = dev->device.nonBridge.interruptLine;

	mov	rax, QWORD PTR dev$[rsp]
	movzx	eax, BYTE PTR [rax+60]
	mov	rcx, QWORD PTR ?i_net_dev@@3PEAU_e1000_dev_@@EA ; i_net_dev
	mov	DWORD PTR [rcx+20], eax

; 329  : 	bool pci_status = pci_alloc_msi (func, dev_, bus, e1000_interrupt_handler);

	lea	r9, OFFSET FLAT:?e1000_interrupt_handler@@YAX_KPEAX@Z ; e1000_interrupt_handler
	mov	r8d, DWORD PTR bus$[rsp]
	mov	edx, DWORD PTR dev_$[rsp]
	mov	ecx, DWORD PTR func$[rsp]
	call	?pci_alloc_msi@@YA_NHHHP6AX_KPEAX@Z@Z	; pci_alloc_msi
	mov	BYTE PTR pci_status$[rsp], al

; 330  : 	if (pci_status) {

	movzx	eax, BYTE PTR pci_status$[rsp]
	test	eax, eax
	je	SHORT $LN10@e1000_init

; 331  : 		printf ("E1000 Supports MSI\n");

	lea	rcx, OFFSET FLAT:$SG3573
	call	?printf@@YAXPEBDZZ			; printf
$LN10@e1000_init:

; 332  : 	}
; 333  : 	if (!pci_status) {

	movzx	eax, BYTE PTR pci_status$[rsp]
	test	eax, eax
	jne	$LN9@e1000_init

; 334  : 		if (dev->device.nonBridge.interruptLine != 255) {

	mov	rax, QWORD PTR dev$[rsp]
	movzx	eax, BYTE PTR [rax+60]
	cmp	eax, 255				; 000000ffH
	je	$LN8@e1000_init

; 335  : 			printf ("E1000 legacy irq -> %d, pin -> %d\n", dev->device.nonBridge.interruptLine, dev->device.nonBridge.interruptPin);

	mov	rax, QWORD PTR dev$[rsp]
	movzx	eax, BYTE PTR [rax+61]
	mov	rcx, QWORD PTR dev$[rsp]
	movzx	ecx, BYTE PTR [rcx+60]
	mov	r8d, eax
	mov	edx, ecx
	lea	rcx, OFFSET FLAT:$SG3576
	call	?printf@@YAXPEBDZZ			; printf

; 336  : 			write_config_8 (0,bus,dev_,func,0x3C, 10);

	mov	BYTE PTR [rsp+40], 10
	mov	DWORD PTR [rsp+32], 60			; 0000003cH
	mov	r9d, DWORD PTR func$[rsp]
	mov	r8d, DWORD PTR dev_$[rsp]
	mov	edx, DWORD PTR bus$[rsp]
	xor	ecx, ecx
	call	?write_config_8@@YAXGHHHHE@Z		; write_config_8

; 337  : 			read_config_8 (0,bus, dev_, func, 0x3C,&dev->device.all.interruptLine);

	mov	rax, QWORD PTR dev$[rsp]
	add	rax, 60					; 0000003cH
	mov	QWORD PTR [rsp+40], rax
	mov	DWORD PTR [rsp+32], 60			; 0000003cH
	mov	r9d, DWORD PTR func$[rsp]
	mov	r8d, DWORD PTR dev_$[rsp]
	mov	edx, DWORD PTR bus$[rsp]
	xor	ecx, ecx
	call	?read_config_8@@YAXGHHHHPEAE@Z		; read_config_8

; 338  : 			interrupt_set (10, e1000_interrupt_handler,dev->device.nonBridge.interruptLine);

	mov	rax, QWORD PTR dev$[rsp]
	movzx	r8d, BYTE PTR [rax+60]
	lea	rdx, OFFSET FLAT:?e1000_interrupt_handler@@YAX_KPEAX@Z ; e1000_interrupt_handler
	mov	ecx, 10
	call	?interrupt_set@@YAX_KP6AX0PEAX@ZE@Z	; interrupt_set
$LN8@e1000_init:
$LN9@e1000_init:

; 339  : 		}
; 340  : 	}
; 341  : 	
; 342  : 
; 343  : 	e1000_write_command (REG_IMC, UINT32_MAX);

	mov	edx, -1					; ffffffffH
	mov	cx, 216					; 000000d8H
	call	?e1000_write_command@@YAXGI@Z		; e1000_write_command

; 344  : 	e1000_read_command (REG_ICR);

	mov	cx, 192					; 000000c0H
	call	?e1000_read_command@@YAIG@Z		; e1000_read_command

; 345  : 	e1000_reset();

	call	?e1000_reset@@YAXXZ			; e1000_reset

; 346  : 	e1000_write_command (REG_CTRL, ECTRL_SLU | (2<<8));

	mov	edx, 576				; 00000240H
	xor	ecx, ecx
	call	?e1000_write_command@@YAXGI@Z		; e1000_write_command

; 347  : 	uint32_t cmmd = e1000_read_command (REG_CTRL);

	xor	ecx, ecx
	call	?e1000_read_command@@YAIG@Z		; e1000_read_command
	mov	DWORD PTR cmmd$[rsp], eax

; 348  : 	cmmd &= ~(1UL << 26UL);

	mov	eax, DWORD PTR cmmd$[rsp]
	btr	eax, 26
	mov	DWORD PTR cmmd$[rsp], eax

; 349  : 	cmmd &= ~(1UL << 31UL);

	mov	eax, DWORD PTR cmmd$[rsp]
	btr	eax, 31
	mov	DWORD PTR cmmd$[rsp], eax

; 350  : 	e1000_detect_eeprom();

	call	?e1000_detect_eeprom@@YA_NXZ		; e1000_detect_eeprom

; 351  : 	
; 352  : 
; 353  : 	for (int i = 0; i < 128; i++)

	mov	DWORD PTR i$2[rsp], 0
	jmp	SHORT $LN7@e1000_init
$LN6@e1000_init:
	mov	eax, DWORD PTR i$2[rsp]
	inc	eax
	mov	DWORD PTR i$2[rsp], eax
$LN7@e1000_init:
	cmp	DWORD PTR i$2[rsp], 128			; 00000080H
	jge	SHORT $LN5@e1000_init

; 354  : 		e1000_write_command (REG_MTA + (i * 4), 0);

	mov	eax, DWORD PTR i$2[rsp]
	lea	eax, DWORD PTR [rax*4+20992]
	xor	edx, edx
	movzx	ecx, ax
	call	?e1000_write_command@@YAXGI@Z		; e1000_write_command
	jmp	SHORT $LN6@e1000_init
$LN5@e1000_init:

; 355  : 
; 356  : 	//!Initialize all statistical counters as per spec section 14.3
; 357  : 	for (int i = 0; i < 64; i++) {

	mov	DWORD PTR i$3[rsp], 0
	jmp	SHORT $LN4@e1000_init
$LN3@e1000_init:
	mov	eax, DWORD PTR i$3[rsp]
	inc	eax
	mov	DWORD PTR i$3[rsp], eax
$LN4@e1000_init:
	cmp	DWORD PTR i$3[rsp], 64			; 00000040H
	jge	SHORT $LN2@e1000_init

; 358  : 		e1000_write_command (REG_CRCERRS + (i * 4), 0);

	mov	eax, DWORD PTR i$3[rsp]
	lea	eax, DWORD PTR [rax*4+16384]
	xor	edx, edx
	movzx	ecx, ax
	call	?e1000_write_command@@YAXGI@Z		; e1000_write_command

; 359  : 	}

	jmp	SHORT $LN3@e1000_init
$LN2@e1000_init:

; 360  : 	
; 361  : 	//printf ("Scanning MSI support for e1000\n");
; 362  : 	//pci_print_capabilities(func, dev_, bus);
; 363  : 
; 364  : 	e1000_rx_init ();

	call	?e1000_rx_init@@YAXXZ			; e1000_rx_init

; 365  : 	e1000_tx_init ();

	call	?e1000_tx_init@@YAXXZ			; e1000_tx_init

; 366  : 
; 367  : 	e1000_write_command (0x000E0, 0);

	xor	edx, edx
	mov	cx, 224					; 000000e0H
	call	?e1000_write_command@@YAXGI@Z		; e1000_write_command

; 368  : 	e1000_write_command (0x00C8, (1<<0) | (1<<1) | (1<<2) | (1<<3) | 
; 369  : 		(1<<4) | (1<<6) | (1<<7) | (1<<9) | (1<<10) | (1<<13) | (1<<14) | (1<<15) | (1<<16) | 
; 370  : 		(1<<17) | (1<<20) | (1<<21) | (1<<22) | (1<<24) | (1<<25));

	mov	edx, 57927391				; 0373e6dfH
	mov	cx, 200					; 000000c8H
	call	?e1000_write_command@@YAXGI@Z		; e1000_write_command

; 371  : 	e1000_write_command (REG_IMASK,  E1000_IMS_LSC | 
; 372  : 		                            E1000_IMS_RXO |
; 373  : 									E1000_IMS_RXT |
; 374  : 									E1000_IMS_TXQE |
; 375  : 									E1000_IMS_TXDW);

	mov	edx, 199				; 000000c7H
	mov	cx, 208					; 000000d0H
	call	?e1000_write_command@@YAXGI@Z		; e1000_write_command

; 376  : 
; 377  : 
; 378  : 	//e1000_setup_interrupt ();
; 379  : 
; 380  :     e1000_read_command (0xC0);

	mov	cx, 192					; 000000c0H
	call	?e1000_read_command@@YAIG@Z		; e1000_read_command

; 381  : 	
; 382  : 	//! Initialize the Network Manager (NetHW)
; 383  : 	nethw_initialize ();

	call	?nethw_initialize@@YAXXZ		; nethw_initialize

; 384  : 
; 385  : 	if (e1000_read_mac_address()) {

	call	?e1000_read_mac_address@@YA_NXZ		; e1000_read_mac_address
	movzx	eax, al
	test	eax, eax
	je	SHORT $LN1@e1000_init

; 386  : 		//! Set the MAC address code
; 387  : 	    nethw_set_mac (i_net_dev->mac);

	mov	rax, QWORD PTR ?i_net_dev@@3PEAU_e1000_dev_@@EA ; i_net_dev
	add	rax, 24
	mov	rcx, rax
	call	?nethw_set_mac@@YAXPEAE@Z		; nethw_set_mac
$LN1@e1000_init:

; 388  : 	}
; 389  : 	printf ("e1000 setup completed\n");

	lea	rcx, OFFSET FLAT:$SG3587
	call	?printf@@YAXPEBDZZ			; printf

; 390  : 	x64_sti();

	call	x64_sti
$LN17@e1000_init:

; 391  : }

	add	rsp, 104				; 00000068H
	ret	0
?e1000_initialize@@YAXXZ ENDP				; e1000_initialize
_TEXT	ENDS
END
