; Listing generated by Microsoft (R) Optimizing Compiler Version 17.00.50727.1 

include listing.inc

INCLUDELIB LIBCMT
INCLUDELIB OLDNAMES

PUBLIC	?i_net_dev@@3PEAU_e1000_dev_@@EA		; i_net_dev
_BSS	SEGMENT
?i_net_dev@@3PEAU_e1000_dev_@@EA DQ 01H DUP (?)		; i_net_dev
_BSS	ENDS
CONST	SEGMENT
$SG3359	DB	'EEPROM exist', 0aH, 00H
	ORG $+2
$SG3362	DB	'Applying memory map', 0aH, 00H
	ORG $+3
$SG3377	DB	'E1000 Interrupt fired', 0aH, 00H
	ORG $+1
$SG3387	DB	'E1000 Bytes received -> %d bytes, status 0x%x', 0aH, 00H
	ORG $+1
$SG3392	DB	'E1000 interrupt data transmit', 0aH, 00H
	ORG $+1
$SG3395	DB	'up', 00H
	ORG $+1
$SG3396	DB	'down', 00H
	ORG $+3
$SG3518	DB	':%x', 00H
$SG3397	DB	'E1000 interrupt link change %s', 0aH, 00H
$SG3399	DB	'E1000 unknown interrupt', 0aH, 00H
	ORG $+3
$SG3519	DB	0aH, 00H
	ORG $+2
$SG3413	DB	'E1000 RX Descriptor HI -> %x, LO -> %x', 0aH, 00H
$SG3427	DB	'E1000 TX_DESC_HI -> %x, LO -> %x', 0aH, 00H
	ORG $+6
$SG3437	DB	'CUR Tx tail -> %d', 0aH, 00H
	ORG $+5
$SG3442	DB	'TX Next tail -> %d', 0aH, 00H
	ORG $+4
$SG3447	DB	'Transmit status ->%x', 0aH, 00H
	ORG $+2
$SG3448	DB	'Transmitted', 0aH, 00H
	ORG $+3
$SG3459	DB	'E1000 New Packet received #3', 0aH, 00H
	ORG $+2
$SG3502	DB	'E1000: Setting up interrupt line -> %d', 0aH, 00H
$SG3512	DB	'E1000 MAC address received', 0aH, 00H
	ORG $+4
$SG3513	DB	'E1000 MAC Address: ', 00H
CONST	ENDS
PUBLIC	?e1000_initialize@@YAXXZ			; e1000_initialize
PUBLIC	?e1000_send_packet@@YAXPEAX_K@Z			; e1000_send_packet
PUBLIC	?e1000_read_command@@YAIG@Z			; e1000_read_command
PUBLIC	?e1000_write_command@@YAXGI@Z			; e1000_write_command
PUBLIC	?e1000_detect_eeprom@@YA_NXZ			; e1000_detect_eeprom
PUBLIC	?e1000_eerprom_read@@YAIE@Z			; e1000_eerprom_read
PUBLIC	?e1000_read_mac_address@@YA_NXZ			; e1000_read_mac_address
PUBLIC	?e1000_interrupt_handler@@YAX_KPEAX@Z		; e1000_interrupt_handler
PUBLIC	?e1000_rx_init@@YAXXZ				; e1000_rx_init
PUBLIC	?e1000_tx_init@@YAXXZ				; e1000_tx_init
PUBLIC	?e1000_setup_interrupt@@YAXXZ			; e1000_setup_interrupt
PUBLIC	?e1000_handle_receive@@YAXXZ			; e1000_handle_receive
PUBLIC	?e1000_reset@@YAXXZ				; e1000_reset
EXTRN	x64_cli:PROC
EXTRN	x64_sti:PROC
EXTRN	x64_inportd:PROC
EXTRN	x64_outportd:PROC
EXTRN	?inportd@@YAIG@Z:PROC				; inportd
EXTRN	?interrupt_end@@YAXI@Z:PROC			; interrupt_end
EXTRN	?interrupt_set@@YAX_KP6AX0PEAX@ZE@Z:PROC	; interrupt_set
EXTRN	?pci_find_device_class@@YA_NEEPEATpci_device_info@@PEAH11@Z:PROC ; pci_find_device_class
EXTRN	?pci_print_capabilities@@YAXPEATpci_device_info@@@Z:PROC ; pci_print_capabilities
EXTRN	?pmmngr_alloc@@YAPEAXXZ:PROC			; pmmngr_alloc
EXTRN	?memset@@YAXPEAXEI@Z:PROC			; memset
EXTRN	memcpy:PROC
EXTRN	?printf@@YAXPEBDZZ:PROC				; printf
EXTRN	?malloc@@YAPEAX_K@Z:PROC			; malloc
pdata	SEGMENT
$pdata$?e1000_initialize@@YAXXZ DD imagerel $LN19
	DD	imagerel $LN19+654
	DD	imagerel $unwind$?e1000_initialize@@YAXXZ
$pdata$?e1000_send_packet@@YAXPEAX_K@Z DD imagerel $LN8
	DD	imagerel $LN8+455
	DD	imagerel $unwind$?e1000_send_packet@@YAXPEAX_K@Z
$pdata$?e1000_read_command@@YAIG@Z DD imagerel $LN3
	DD	imagerel $LN3+65
	DD	imagerel $unwind$?e1000_read_command@@YAIG@Z
$pdata$?e1000_write_command@@YAXGI@Z DD imagerel $LN3
	DD	imagerel $LN3+66
	DD	imagerel $unwind$?e1000_write_command@@YAXGI@Z
$pdata$?e1000_detect_eeprom@@YA_NXZ DD imagerel $LN8
	DD	imagerel $LN8+137
	DD	imagerel $unwind$?e1000_detect_eeprom@@YA_NXZ
$pdata$?e1000_eerprom_read@@YAIE@Z DD imagerel $LN9
	DD	imagerel $LN9+163
	DD	imagerel $unwind$?e1000_eerprom_read@@YAIE@Z
$pdata$?e1000_read_mac_address@@YA_NXZ DD imagerel $LN10
	DD	imagerel $LN10+390
	DD	imagerel $unwind$?e1000_read_mac_address@@YA_NXZ
$pdata$?e1000_interrupt_handler@@YAX_KPEAX@Z DD imagerel $LN16
	DD	imagerel $LN16+475
	DD	imagerel $unwind$?e1000_interrupt_handler@@YAX_KPEAX@Z
$pdata$?e1000_rx_init@@YAXXZ DD imagerel $LN6
	DD	imagerel $LN6+316
	DD	imagerel $unwind$?e1000_rx_init@@YAXXZ
$pdata$?e1000_tx_init@@YAXXZ DD imagerel $LN6
	DD	imagerel $LN6+334
	DD	imagerel $unwind$?e1000_tx_init@@YAXXZ
$pdata$?e1000_setup_interrupt@@YAXXZ DD imagerel $LN3
	DD	imagerel $LN3+46
	DD	imagerel $unwind$?e1000_setup_interrupt@@YAXXZ
$pdata$?e1000_handle_receive@@YAXXZ DD imagerel $LN6
	DD	imagerel $LN6+223
	DD	imagerel $unwind$?e1000_handle_receive@@YAXXZ
$pdata$?e1000_reset@@YAXXZ DD imagerel $LN21
	DD	imagerel $LN21+341
	DD	imagerel $unwind$?e1000_reset@@YAXXZ
pdata	ENDS
xdata	SEGMENT
$unwind$?e1000_initialize@@YAXXZ DD 010401H
	DD	0c204H
$unwind$?e1000_send_packet@@YAXPEAX_K@Z DD 010e01H
	DD	0620eH
$unwind$?e1000_read_command@@YAIG@Z DD 010901H
	DD	06209H
$unwind$?e1000_write_command@@YAXGI@Z DD 010d01H
	DD	0420dH
$unwind$?e1000_detect_eeprom@@YA_NXZ DD 010401H
	DD	06204H
$unwind$?e1000_eerprom_read@@YAIE@Z DD 010801H
	DD	06208H
$unwind$?e1000_read_mac_address@@YA_NXZ DD 010401H
	DD	08204H
$unwind$?e1000_interrupt_handler@@YAX_KPEAX@Z DD 010e01H
	DD	0820eH
$unwind$?e1000_rx_init@@YAXXZ DD 010401H
	DD	06204H
$unwind$?e1000_tx_init@@YAXXZ DD 010401H
	DD	06204H
$unwind$?e1000_setup_interrupt@@YAXXZ DD 010401H
	DD	04204H
$unwind$?e1000_handle_receive@@YAXXZ DD 010401H
	DD	06204H
$unwind$?e1000_reset@@YAXXZ DD 010401H
	DD	08204H
xdata	ENDS
; Function compile flags: /Odtp
; File e:\xeneva project\xeneva\aurora\aurora\drivers\net\e1000.cpp
_TEXT	SEGMENT
i$1 = 32
i$2 = 36
i$3 = 40
i$4 = 44
i$5 = 48
i$6 = 52
?e1000_reset@@YAXXZ PROC				; e1000_reset

; 247  : void e1000_reset () {

$LN21:
	sub	rsp, 72					; 00000048H

; 248  : 	e1000_write_command (REG_CTRL, (1<<31));

	mov	edx, -2147483648			; 80000000H
	xor	ecx, ecx
	call	?e1000_write_command@@YAXGI@Z		; e1000_write_command

; 249  : 	for (int i = 0; i < 1000; i++)

	mov	DWORD PTR i$1[rsp], 0
	jmp	SHORT $LN18@e1000_rese
$LN17@e1000_rese:
	mov	eax, DWORD PTR i$1[rsp]
	inc	eax
	mov	DWORD PTR i$1[rsp], eax
$LN18@e1000_rese:
	cmp	DWORD PTR i$1[rsp], 1000		; 000003e8H
	jge	SHORT $LN16@e1000_rese

; 250  : 		;

	jmp	SHORT $LN17@e1000_rese
$LN16@e1000_rese:

; 251  : 
; 252  : 	//! Reset the hardware guide from MINIX3
; 253  : 	e1000_write_command (REG_CTRL, (1 << 26));

	mov	edx, 67108864				; 04000000H
	xor	ecx, ecx
	call	?e1000_write_command@@YAXGI@Z		; e1000_write_command

; 254  : 	for (int i = 0; i < 1000; i++)

	mov	DWORD PTR i$2[rsp], 0
	jmp	SHORT $LN15@e1000_rese
$LN14@e1000_rese:
	mov	eax, DWORD PTR i$2[rsp]
	inc	eax
	mov	DWORD PTR i$2[rsp], eax
$LN15@e1000_rese:
	cmp	DWORD PTR i$2[rsp], 1000		; 000003e8H
	jge	SHORT $LN13@e1000_rese

; 255  : 		;

	jmp	SHORT $LN14@e1000_rese
$LN13@e1000_rese:

; 256  : 	e1000_write_command (REG_CTRL, (1<<0));

	mov	edx, 1
	xor	ecx, ecx
	call	?e1000_write_command@@YAXGI@Z		; e1000_write_command

; 257  : 
; 258  : 	e1000_write_command (REG_CTRL, (1<<3));

	mov	edx, 8
	xor	ecx, ecx
	call	?e1000_write_command@@YAXGI@Z		; e1000_write_command

; 259  : 	for (int i = 0; i < 1000; i++)

	mov	DWORD PTR i$3[rsp], 0
	jmp	SHORT $LN12@e1000_rese
$LN11@e1000_rese:
	mov	eax, DWORD PTR i$3[rsp]
	inc	eax
	mov	DWORD PTR i$3[rsp], eax
$LN12@e1000_rese:
	cmp	DWORD PTR i$3[rsp], 1000		; 000003e8H
	jge	SHORT $LN10@e1000_rese

; 260  : 		;

	jmp	SHORT $LN11@e1000_rese
$LN10@e1000_rese:

; 261  : 	e1000_write_command (REG_CTRL, (1<<6));

	mov	edx, 64					; 00000040H
	xor	ecx, ecx
	call	?e1000_write_command@@YAXGI@Z		; e1000_write_command

; 262  : 	for (int i = 0; i < 1000; i++)

	mov	DWORD PTR i$4[rsp], 0
	jmp	SHORT $LN9@e1000_rese
$LN8@e1000_rese:
	mov	eax, DWORD PTR i$4[rsp]
	inc	eax
	mov	DWORD PTR i$4[rsp], eax
$LN9@e1000_rese:
	cmp	DWORD PTR i$4[rsp], 1000		; 000003e8H
	jge	SHORT $LN7@e1000_rese

; 263  : 		;

	jmp	SHORT $LN8@e1000_rese
$LN7@e1000_rese:

; 264  : 	e1000_write_command (REG_CTRL, (1<<11));

	mov	edx, 2048				; 00000800H
	xor	ecx, ecx
	call	?e1000_write_command@@YAXGI@Z		; e1000_write_command

; 265  : 	e1000_write_command (REG_CTRL, ~(1<<3));

	mov	edx, -9					; fffffff7H
	xor	ecx, ecx
	call	?e1000_write_command@@YAXGI@Z		; e1000_write_command

; 266  : 	for (int i = 0; i < 1000;i++)

	mov	DWORD PTR i$5[rsp], 0
	jmp	SHORT $LN6@e1000_rese
$LN5@e1000_rese:
	mov	eax, DWORD PTR i$5[rsp]
	inc	eax
	mov	DWORD PTR i$5[rsp], eax
$LN6@e1000_rese:
	cmp	DWORD PTR i$5[rsp], 1000		; 000003e8H
	jge	SHORT $LN4@e1000_rese

; 267  : 		;

	jmp	SHORT $LN5@e1000_rese
$LN4@e1000_rese:

; 268  : 	e1000_write_command (REG_CTRL, ~(1<<31));

	mov	edx, 2147483647				; 7fffffffH
	xor	ecx, ecx
	call	?e1000_write_command@@YAXGI@Z		; e1000_write_command

; 269  : 
; 270  : 	e1000_write_command (REG_FCAL, 0);

	xor	edx, edx
	mov	cx, 40					; 00000028H
	call	?e1000_write_command@@YAXGI@Z		; e1000_write_command

; 271  : 	e1000_write_command (REG_FCAH, 0);

	xor	edx, edx
	mov	cx, 44					; 0000002cH
	call	?e1000_write_command@@YAXGI@Z		; e1000_write_command

; 272  : 	e1000_write_command (REG_FCT, 0);

	xor	edx, edx
	mov	cx, 48					; 00000030H
	call	?e1000_write_command@@YAXGI@Z		; e1000_write_command

; 273  : 	e1000_write_command (REG_FCTTV, 0);

	xor	edx, edx
	mov	cx, 10240				; 00002800H
	call	?e1000_write_command@@YAXGI@Z		; e1000_write_command

; 274  : 	//e1000_write_command (REG_CTRL, (1<<30));
; 275  : 
; 276  : 	for (int i = 0; i < 1000; i++)

	mov	DWORD PTR i$6[rsp], 0
	jmp	SHORT $LN3@e1000_rese
$LN2@e1000_rese:
	mov	eax, DWORD PTR i$6[rsp]
	inc	eax
	mov	DWORD PTR i$6[rsp], eax
$LN3@e1000_rese:
	cmp	DWORD PTR i$6[rsp], 1000		; 000003e8H
	jge	SHORT $LN1@e1000_rese

; 277  : 		;

	jmp	SHORT $LN2@e1000_rese
$LN1@e1000_rese:

; 278  : 	
; 279  : 
; 280  : 
; 281  : }

	add	rsp, 72					; 00000048H
	ret	0
?e1000_reset@@YAXXZ ENDP				; e1000_reset
_TEXT	ENDS
; Function compile flags: /Odtp
; File e:\xeneva project\xeneva\aurora\aurora\drivers\net\e1000.cpp
_TEXT	SEGMENT
old_cur$1 = 32
len$2 = 36
buf$3 = 40
?e1000_handle_receive@@YAXXZ PROC			; e1000_handle_receive

; 230  : void e1000_handle_receive () {

$LN6:
	sub	rsp, 56					; 00000038H
$LN3@e1000_hand:

; 231  : 	for(;;) {
; 232  : 	if((i_net_dev->rx_desc[i_net_dev->rx_tail]->status)) {

	mov	rax, QWORD PTR ?i_net_dev@@3PEAU_e1000_dev_@@EA ; i_net_dev
	movzx	eax, WORD PTR [rax+50]
	mov	rcx, QWORD PTR ?i_net_dev@@3PEAU_e1000_dev_@@EA ; i_net_dev
	mov	rax, QWORD PTR [rcx+rax*8+56]
	movzx	eax, BYTE PTR [rax+12]
	movzx	eax, al
	test	eax, eax
	je	$LN1@e1000_hand

; 233  : 		//printf ("E1000 New Packet received #1\n");
; 234  : 		uint8_t *buf = (uint8_t*)i_net_dev->rx_desc[i_net_dev->rx_tail]->addr;

	mov	rax, QWORD PTR ?i_net_dev@@3PEAU_e1000_dev_@@EA ; i_net_dev
	movzx	eax, WORD PTR [rax+50]
	mov	rcx, QWORD PTR ?i_net_dev@@3PEAU_e1000_dev_@@EA ; i_net_dev
	mov	rax, QWORD PTR [rcx+rax*8+56]
	mov	rax, QWORD PTR [rax]
	mov	QWORD PTR buf$3[rsp], rax

; 235  : 		uint16_t len = i_net_dev->rx_desc[i_net_dev->rx_tail]->length;

	mov	rax, QWORD PTR ?i_net_dev@@3PEAU_e1000_dev_@@EA ; i_net_dev
	movzx	eax, WORD PTR [rax+50]
	mov	rcx, QWORD PTR ?i_net_dev@@3PEAU_e1000_dev_@@EA ; i_net_dev
	mov	rax, QWORD PTR [rcx+rax*8+56]
	movzx	eax, WORD PTR [rax+8]
	mov	WORD PTR len$2[rsp], ax

; 236  : 		//printf ("E1000 New Packet received #2\n");
; 237  : 		i_net_dev->rx_desc[i_net_dev->rx_tail]->status = 0;

	mov	rax, QWORD PTR ?i_net_dev@@3PEAU_e1000_dev_@@EA ; i_net_dev
	movzx	eax, WORD PTR [rax+50]
	mov	rcx, QWORD PTR ?i_net_dev@@3PEAU_e1000_dev_@@EA ; i_net_dev
	mov	rax, QWORD PTR [rcx+rax*8+56]
	mov	BYTE PTR [rax+12], 0

; 238  : 		uint16_t old_cur = i_net_dev->rx_tail;

	mov	rax, QWORD PTR ?i_net_dev@@3PEAU_e1000_dev_@@EA ; i_net_dev
	movzx	eax, WORD PTR [rax+50]
	mov	WORD PTR old_cur$1[rsp], ax

; 239  : 		i_net_dev->rx_tail = (i_net_dev->rx_tail + 1) % E1000_NUM_RX_DESC;

	mov	rax, QWORD PTR ?i_net_dev@@3PEAU_e1000_dev_@@EA ; i_net_dev
	movzx	eax, WORD PTR [rax+50]
	inc	eax
	cdq
	and	edx, 31
	add	eax, edx
	and	eax, 31
	sub	eax, edx
	mov	rcx, QWORD PTR ?i_net_dev@@3PEAU_e1000_dev_@@EA ; i_net_dev
	mov	WORD PTR [rcx+50], ax

; 240  : 		e1000_write_command (REG_RXDESCTAIL, old_cur);

	movzx	eax, WORD PTR old_cur$1[rsp]
	mov	edx, eax
	mov	cx, 10264				; 00002818H
	call	?e1000_write_command@@YAXGI@Z		; e1000_write_command

; 241  : 		printf ("E1000 New Packet received #3\n");

	lea	rcx, OFFSET FLAT:$SG3459
	call	?printf@@YAXPEBDZZ			; printf

; 242  : 		break;

	jmp	SHORT $LN2@e1000_hand
$LN1@e1000_hand:

; 243  : 	}
; 244  : 	}

	jmp	$LN3@e1000_hand
$LN2@e1000_hand:

; 245  : }

	add	rsp, 56					; 00000038H
	ret	0
?e1000_handle_receive@@YAXXZ ENDP			; e1000_handle_receive
_TEXT	ENDS
; Function compile flags: /Odtp
; File e:\xeneva project\xeneva\aurora\aurora\drivers\net\e1000.cpp
_TEXT	SEGMENT
?e1000_setup_interrupt@@YAXXZ PROC			; e1000_setup_interrupt

; 187  : void e1000_setup_interrupt () {

$LN3:
	sub	rsp, 40					; 00000028H

; 188  : 	e1000_write_command (0xD8, 0xFFFF);

	mov	edx, 65535				; 0000ffffH
	mov	cx, 216					; 000000d8H
	call	?e1000_write_command@@YAXGI@Z		; e1000_write_command

; 189  : 	e1000_write_command (0xD0, 0xFFFF);

	mov	edx, 65535				; 0000ffffH
	mov	cx, 208					; 000000d0H
	call	?e1000_write_command@@YAXGI@Z		; e1000_write_command

; 190  : 	e1000_read_command (0xc0);

	mov	cx, 192					; 000000c0H
	call	?e1000_read_command@@YAIG@Z		; e1000_read_command

; 191  : }

	add	rsp, 40					; 00000028H
	ret	0
?e1000_setup_interrupt@@YAXXZ ENDP			; e1000_setup_interrupt
_TEXT	ENDS
; Function compile flags: /Odtp
; File e:\xeneva project\xeneva\aurora\aurora\drivers\net\e1000.cpp
_TEXT	SEGMENT
i$1 = 32
tv133 = 36
?e1000_tx_init@@YAXXZ PROC				; e1000_tx_init

; 163  : void e1000_tx_init () {

$LN6:
	sub	rsp, 56					; 00000038H

; 164  : 
; 165  : 	i_net_dev->tx_desc_base = (uint8_t*)pmmngr_alloc();

	call	?pmmngr_alloc@@YAPEAXXZ			; pmmngr_alloc
	mov	rcx, QWORD PTR ?i_net_dev@@3PEAU_e1000_dev_@@EA ; i_net_dev
	mov	QWORD PTR [rcx+40], rax

; 166  : 
; 167  : 	for (int i = 0; i < E1000_NUM_TX_DESC; i++) {

	mov	DWORD PTR i$1[rsp], 0
	jmp	SHORT $LN3@e1000_tx_i
$LN2@e1000_tx_i:
	mov	eax, DWORD PTR i$1[rsp]
	inc	eax
	mov	DWORD PTR i$1[rsp], eax
$LN3@e1000_tx_i:
	cmp	DWORD PTR i$1[rsp], 8
	jge	SHORT $LN1@e1000_tx_i

; 168  : 		i_net_dev->tx_desc[i] = (e1000_tx_desc*)(i_net_dev->tx_desc_base + (i * 16));

	mov	eax, DWORD PTR i$1[rsp]
	imul	eax, 16
	cdqe
	mov	rcx, QWORD PTR ?i_net_dev@@3PEAU_e1000_dev_@@EA ; i_net_dev
	add	rax, QWORD PTR [rcx+40]
	movsxd	rcx, DWORD PTR i$1[rsp]
	mov	rdx, QWORD PTR ?i_net_dev@@3PEAU_e1000_dev_@@EA ; i_net_dev
	mov	QWORD PTR [rdx+rcx*8+312], rax

; 169  : 		i_net_dev->tx_desc[i]->addr = 0;

	movsxd	rax, DWORD PTR i$1[rsp]
	mov	rcx, QWORD PTR ?i_net_dev@@3PEAU_e1000_dev_@@EA ; i_net_dev
	mov	rax, QWORD PTR [rcx+rax*8+312]
	mov	QWORD PTR [rax], 0

; 170  : 		i_net_dev->tx_desc[i]->cmd = 0;

	movsxd	rax, DWORD PTR i$1[rsp]
	mov	rcx, QWORD PTR ?i_net_dev@@3PEAU_e1000_dev_@@EA ; i_net_dev
	mov	rax, QWORD PTR [rcx+rax*8+312]
	mov	BYTE PTR [rax+11], 0

; 171  : 		i_net_dev->tx_desc[i]->status = 0;

	movsxd	rax, DWORD PTR i$1[rsp]
	mov	rcx, QWORD PTR ?i_net_dev@@3PEAU_e1000_dev_@@EA ; i_net_dev
	mov	rax, QWORD PTR [rcx+rax*8+312]
	mov	BYTE PTR [rax+12], 0

; 172  : 	}

	jmp	$LN2@e1000_tx_i
$LN1@e1000_tx_i:

; 173  : 	e1000_write_command (REG_TXDESCHI, (uint32_t)((uint64_t)i_net_dev->tx_desc_base >> 32));

	mov	rax, QWORD PTR ?i_net_dev@@3PEAU_e1000_dev_@@EA ; i_net_dev
	mov	rax, QWORD PTR [rax+40]
	shr	rax, 32					; 00000020H
	mov	edx, eax
	mov	cx, 14340				; 00003804H
	call	?e1000_write_command@@YAXGI@Z		; e1000_write_command

; 174  : 	e1000_write_command (REG_TXDESCLO, (uint32_t)((uint64_t)i_net_dev->tx_desc_base & 0xFFFFFFFF));

	mov	rax, QWORD PTR ?i_net_dev@@3PEAU_e1000_dev_@@EA ; i_net_dev
	mov	ecx, -1					; ffffffffH
	mov	rax, QWORD PTR [rax+40]
	and	rax, rcx
	mov	edx, eax
	mov	cx, 14336				; 00003800H
	call	?e1000_write_command@@YAXGI@Z		; e1000_write_command

; 175  : 	printf ("E1000 TX_DESC_HI -> %x, LO -> %x\n", e1000_read_command(REG_TXDESCHI), e1000_read_command(REG_TXDESCLO));

	mov	cx, 14336				; 00003800H
	call	?e1000_read_command@@YAIG@Z		; e1000_read_command
	mov	DWORD PTR tv133[rsp], eax
	mov	cx, 14340				; 00003804H
	call	?e1000_read_command@@YAIG@Z		; e1000_read_command
	mov	ecx, DWORD PTR tv133[rsp]
	mov	r8d, ecx
	mov	edx, eax
	lea	rcx, OFFSET FLAT:$SG3427
	call	?printf@@YAXPEBDZZ			; printf

; 176  : 
; 177  : 	e1000_write_command (REG_TXDESCLEN, (uint32_t)E1000_NUM_TX_DESC * 16);

	mov	edx, 128				; 00000080H
	mov	cx, 14344				; 00003808H
	call	?e1000_write_command@@YAXGI@Z		; e1000_write_command

; 178  : 
; 179  : 	e1000_write_command (REG_TXDESCHEAD, 0);

	xor	edx, edx
	mov	cx, 14352				; 00003810H
	call	?e1000_write_command@@YAXGI@Z		; e1000_write_command

; 180  : 	e1000_write_command (REG_TXDESCTAIL,0);

	xor	edx, edx
	mov	cx, 14360				; 00003818H
	call	?e1000_write_command@@YAXGI@Z		; e1000_write_command

; 181  : 	i_net_dev->tx_tail = 0;

	xor	eax, eax
	mov	rcx, QWORD PTR ?i_net_dev@@3PEAU_e1000_dev_@@EA ; i_net_dev
	mov	WORD PTR [rcx+48], ax

; 182  : 
; 183  : 
; 184  : 	e1000_write_command (REG_TCTRL, TCTL_EN | TCTL_PSP | TCTL_RTLC );

	mov	edx, 16777226				; 0100000aH
	mov	cx, 1024				; 00000400H
	call	?e1000_write_command@@YAXGI@Z		; e1000_write_command

; 185  : }

	add	rsp, 56					; 00000038H
	ret	0
?e1000_tx_init@@YAXXZ ENDP				; e1000_tx_init
_TEXT	ENDS
; Function compile flags: /Odtp
; File e:\xeneva project\xeneva\aurora\aurora\drivers\net\e1000.cpp
_TEXT	SEGMENT
i$1 = 32
tv129 = 36
?e1000_rx_init@@YAXXZ PROC				; e1000_rx_init

; 138  : void e1000_rx_init () {

$LN6:
	sub	rsp, 56					; 00000038H

; 139  : 
; 140  : 	i_net_dev->rx_desc_base = (uint8_t*)pmmngr_alloc();

	call	?pmmngr_alloc@@YAPEAXXZ			; pmmngr_alloc
	mov	rcx, QWORD PTR ?i_net_dev@@3PEAU_e1000_dev_@@EA ; i_net_dev
	mov	QWORD PTR [rcx+32], rax

; 141  : 
; 142  : 	for (int i = 0; i < E1000_NUM_RX_DESC; i++) {

	mov	DWORD PTR i$1[rsp], 0
	jmp	SHORT $LN3@e1000_rx_i
$LN2@e1000_rx_i:
	mov	eax, DWORD PTR i$1[rsp]
	inc	eax
	mov	DWORD PTR i$1[rsp], eax
$LN3@e1000_rx_i:
	cmp	DWORD PTR i$1[rsp], 32			; 00000020H
	jge	SHORT $LN1@e1000_rx_i

; 143  : 		i_net_dev->rx_desc[i] = (e1000_rx_desc*)(i_net_dev->rx_desc_base + (i * 16));

	mov	eax, DWORD PTR i$1[rsp]
	imul	eax, 16
	cdqe
	mov	rcx, QWORD PTR ?i_net_dev@@3PEAU_e1000_dev_@@EA ; i_net_dev
	add	rax, QWORD PTR [rcx+32]
	movsxd	rcx, DWORD PTR i$1[rsp]
	mov	rdx, QWORD PTR ?i_net_dev@@3PEAU_e1000_dev_@@EA ; i_net_dev
	mov	QWORD PTR [rdx+rcx*8+56], rax

; 144  : 		i_net_dev->rx_desc[i]->addr = (uint64_t)pmmngr_alloc();   //malloc(8192+16);

	call	?pmmngr_alloc@@YAPEAXXZ			; pmmngr_alloc
	movsxd	rcx, DWORD PTR i$1[rsp]
	mov	rdx, QWORD PTR ?i_net_dev@@3PEAU_e1000_dev_@@EA ; i_net_dev
	mov	rcx, QWORD PTR [rdx+rcx*8+56]
	mov	QWORD PTR [rcx], rax

; 145  : 		i_net_dev->rx_desc[i]->status = 0;

	movsxd	rax, DWORD PTR i$1[rsp]
	mov	rcx, QWORD PTR ?i_net_dev@@3PEAU_e1000_dev_@@EA ; i_net_dev
	mov	rax, QWORD PTR [rcx+rax*8+56]
	mov	BYTE PTR [rax+12], 0

; 146  : 	}

	jmp	SHORT $LN2@e1000_rx_i
$LN1@e1000_rx_i:

; 147  : 
; 148  : 	e1000_write_command (REG_RXDESCKHI, (uint32_t)((uint64_t)i_net_dev->rx_desc_base >> 32));

	mov	rax, QWORD PTR ?i_net_dev@@3PEAU_e1000_dev_@@EA ; i_net_dev
	mov	rax, QWORD PTR [rax+32]
	shr	rax, 32					; 00000020H
	mov	edx, eax
	mov	cx, 10244				; 00002804H
	call	?e1000_write_command@@YAXGI@Z		; e1000_write_command

; 149  : 	e1000_write_command (REG_RXDESCLO,(uint32_t)((uint64_t)i_net_dev->rx_desc_base & 0xFFFFFFFF));

	mov	rax, QWORD PTR ?i_net_dev@@3PEAU_e1000_dev_@@EA ; i_net_dev
	mov	ecx, -1					; ffffffffH
	mov	rax, QWORD PTR [rax+32]
	and	rax, rcx
	mov	edx, eax
	mov	cx, 10240				; 00002800H
	call	?e1000_write_command@@YAXGI@Z		; e1000_write_command

; 150  : 
; 151  :     printf ("E1000 RX Descriptor HI -> %x, LO -> %x\n", e1000_read_command(REG_RXDESCKHI), e1000_read_command(REG_RXDESCLO));

	mov	cx, 10240				; 00002800H
	call	?e1000_read_command@@YAIG@Z		; e1000_read_command
	mov	DWORD PTR tv129[rsp], eax
	mov	cx, 10244				; 00002804H
	call	?e1000_read_command@@YAIG@Z		; e1000_read_command
	mov	ecx, DWORD PTR tv129[rsp]
	mov	r8d, ecx
	mov	edx, eax
	lea	rcx, OFFSET FLAT:$SG3413
	call	?printf@@YAXPEBDZZ			; printf

; 152  : 	e1000_write_command (REG_RXDESCLEN, (uint32_t)E1000_NUM_RX_DESC * 16);

	mov	edx, 512				; 00000200H
	mov	cx, 10248				; 00002808H
	call	?e1000_write_command@@YAXGI@Z		; e1000_write_command

; 153  : 
; 154  : 	e1000_write_command(REG_RXDESCHEAD, 0);

	xor	edx, edx
	mov	cx, 10256				; 00002810H
	call	?e1000_write_command@@YAXGI@Z		; e1000_write_command

; 155  : 	e1000_write_command(REG_RXDESCTAIL, E1000_NUM_RX_DESC);

	mov	edx, 32					; 00000020H
	mov	cx, 10264				; 00002818H
	call	?e1000_write_command@@YAXGI@Z		; e1000_write_command

; 156  : 	i_net_dev->rx_tail = 0;

	xor	eax, eax
	mov	rcx, QWORD PTR ?i_net_dev@@3PEAU_e1000_dev_@@EA ; i_net_dev
	mov	WORD PTR [rcx+50], ax

; 157  : 
; 158  : 	e1000_write_command (REG_RCTRL, (1<<16) | (1<<17));

	mov	edx, 196608				; 00030000H
	mov	cx, 256					; 00000100H
	call	?e1000_write_command@@YAXGI@Z		; e1000_write_command

; 159  : 	e1000_write_command (REG_RCTRL, RCTL_EN);

	mov	edx, 2
	mov	cx, 256					; 00000100H
	call	?e1000_write_command@@YAXGI@Z		; e1000_write_command

; 160  : }

	add	rsp, 56					; 00000038H
	ret	0
?e1000_rx_init@@YAXXZ ENDP				; e1000_rx_init
_TEXT	ENDS
; Function compile flags: /Odtp
; File e:\xeneva project\xeneva\aurora\aurora\drivers\net\e1000.cpp
_TEXT	SEGMENT
status$1 = 32
head$2 = 36
icr$ = 40
size$3 = 48
tv159 = 56
v$ = 80
p$ = 88
?e1000_interrupt_handler@@YAX_KPEAX@Z PROC		; e1000_interrupt_handler

; 95   : void e1000_interrupt_handler (size_t v, void* p) {

$LN16:
	mov	QWORD PTR [rsp+16], rdx
	mov	QWORD PTR [rsp+8], rcx
	sub	rsp, 72					; 00000048H

; 96   : 	printf ("E1000 Interrupt fired\n");

	lea	rcx, OFFSET FLAT:$SG3377
	call	?printf@@YAXPEBDZZ			; printf

; 97   : 	//apic_local_eoi();
; 98   : 	uint32_t icr = e1000_read_command (REG_ICR);

	mov	cx, 192					; 000000c0H
	call	?e1000_read_command@@YAIG@Z		; e1000_read_command
	mov	DWORD PTR icr$[rsp], eax

; 99   : 
; 100  : 	//e1000_write_command (REG_IMASK, 0x1);
; 101  : 	if (icr & E1000_ICR_RECEIVE) {

	mov	eax, DWORD PTR icr$[rsp]
	and	eax, 128				; 00000080H
	test	eax, eax
	je	$LN11@e1000_inte

; 102  : 
; 103  : 		uint32_t head = inportd (REG_RXDESCHEAD);

	mov	cx, 10256				; 00002810H
	call	?inportd@@YAIG@Z			; inportd
	mov	DWORD PTR head$2[rsp], eax
$LN10@e1000_inte:

; 104  : 
; 105  : 		while (i_net_dev->rx_tail != head){

	mov	rax, QWORD PTR ?i_net_dev@@3PEAU_e1000_dev_@@EA ; i_net_dev
	movzx	eax, WORD PTR [rax+50]
	cmp	eax, DWORD PTR head$2[rsp]
	je	$LN9@e1000_inte

; 106  : 			size_t size = i_net_dev->rx_desc[i_net_dev->rx_tail]->length;

	mov	rax, QWORD PTR ?i_net_dev@@3PEAU_e1000_dev_@@EA ; i_net_dev
	movzx	eax, WORD PTR [rax+50]
	mov	rcx, QWORD PTR ?i_net_dev@@3PEAU_e1000_dev_@@EA ; i_net_dev
	mov	rax, QWORD PTR [rcx+rax*8+56]
	movzx	eax, WORD PTR [rax+8]
	movzx	eax, ax
	mov	QWORD PTR size$3[rsp], rax

; 107  : 			uint8_t status = i_net_dev->rx_desc[i_net_dev->rx_tail]->status;

	mov	rax, QWORD PTR ?i_net_dev@@3PEAU_e1000_dev_@@EA ; i_net_dev
	movzx	eax, WORD PTR [rax+50]
	mov	rcx, QWORD PTR ?i_net_dev@@3PEAU_e1000_dev_@@EA ; i_net_dev
	mov	rax, QWORD PTR [rcx+rax*8+56]
	movzx	eax, BYTE PTR [rax+12]
	mov	BYTE PTR status$1[rsp], al

; 108  : 
; 109  : 			if ((status & 0x1)==0){

	movzx	eax, BYTE PTR status$1[rsp]
	and	eax, 1
	test	eax, eax
	jne	SHORT $LN8@e1000_inte

; 110  : 				break;

	jmp	SHORT $LN9@e1000_inte
$LN8@e1000_inte:

; 111  : 			}
; 112  : 			
; 113  : 			size -= 4;

	mov	rax, QWORD PTR size$3[rsp]
	sub	rax, 4
	mov	QWORD PTR size$3[rsp], rax

; 114  : 
; 115  : 			printf ("E1000 Bytes received -> %d bytes, status 0x%x\n", size, status);

	movzx	eax, BYTE PTR status$1[rsp]
	mov	r8d, eax
	mov	rdx, QWORD PTR size$3[rsp]
	lea	rcx, OFFSET FLAT:$SG3387
	call	?printf@@YAXPEBDZZ			; printf

; 116  : 
; 117  : 			i_net_dev->rx_tail++;

	mov	rax, QWORD PTR ?i_net_dev@@3PEAU_e1000_dev_@@EA ; i_net_dev
	movzx	eax, WORD PTR [rax+50]
	inc	ax
	mov	rcx, QWORD PTR ?i_net_dev@@3PEAU_e1000_dev_@@EA ; i_net_dev
	mov	WORD PTR [rcx+50], ax

; 118  : 			i_net_dev->rx_tail %= E1000_NUM_RX_DESC;

	mov	rax, QWORD PTR ?i_net_dev@@3PEAU_e1000_dev_@@EA ; i_net_dev
	movzx	eax, WORD PTR [rax+50]
	cdq
	and	edx, 31
	add	eax, edx
	and	eax, 31
	sub	eax, edx
	mov	rcx, QWORD PTR ?i_net_dev@@3PEAU_e1000_dev_@@EA ; i_net_dev
	mov	WORD PTR [rcx+50], ax

; 119  : 		}

	jmp	$LN10@e1000_inte
$LN9@e1000_inte:

; 120  : 
; 121  : 		if (i_net_dev->rx_tail == head) {

	mov	rax, QWORD PTR ?i_net_dev@@3PEAU_e1000_dev_@@EA ; i_net_dev
	movzx	eax, WORD PTR [rax+50]
	cmp	eax, DWORD PTR head$2[rsp]
	jne	SHORT $LN7@e1000_inte

; 122  : 			e1000_write_command (REG_RXDESCTAIL, (head + E1000_NUM_RX_DESC - 1) % E1000_NUM_RX_DESC);

	mov	eax, DWORD PTR head$2[rsp]
	add	eax, 31
	xor	edx, edx
	mov	ecx, 32					; 00000020H
	div	ecx
	mov	eax, edx
	mov	edx, eax
	mov	cx, 10264				; 00002818H
	call	?e1000_write_command@@YAXGI@Z		; e1000_write_command

; 123  : 		}else {

	jmp	SHORT $LN6@e1000_inte
$LN7@e1000_inte:

; 124  : 			e1000_write_command (REG_RXDESCTAIL, i_net_dev->rx_tail);

	mov	rax, QWORD PTR ?i_net_dev@@3PEAU_e1000_dev_@@EA ; i_net_dev
	movzx	eax, WORD PTR [rax+50]
	mov	edx, eax
	mov	cx, 10264				; 00002818H
	call	?e1000_write_command@@YAXGI@Z		; e1000_write_command
$LN6@e1000_inte:

; 125  : 		}

	jmp	SHORT $LN5@e1000_inte
$LN11@e1000_inte:

; 126  : 
; 127  : 	} else if (icr & E1000_ICR_TRANSMIT) {

	mov	eax, DWORD PTR icr$[rsp]
	and	eax, 1
	test	eax, eax
	je	SHORT $LN4@e1000_inte

; 128  : 		printf ("E1000 interrupt data transmit\n");

	lea	rcx, OFFSET FLAT:$SG3392
	call	?printf@@YAXPEBDZZ			; printf
	jmp	SHORT $LN3@e1000_inte
$LN4@e1000_inte:

; 129  : 	} else if (icr & E1000_ICR_LINK_CHANGE) {

	mov	eax, DWORD PTR icr$[rsp]
	and	eax, 4
	test	eax, eax
	je	SHORT $LN2@e1000_inte

; 130  : 		printf ("E1000 interrupt link change %s\n", (e1000_read_command(REG_STATUS) & STATUS_LINK_UP) ? "up" : "down");

	mov	cx, 8
	call	?e1000_read_command@@YAIG@Z		; e1000_read_command
	and	eax, -2147483648			; 80000000H
	test	eax, eax
	je	SHORT $LN14@e1000_inte
	lea	rax, OFFSET FLAT:$SG3395
	mov	QWORD PTR tv159[rsp], rax
	jmp	SHORT $LN15@e1000_inte
$LN14@e1000_inte:
	lea	rax, OFFSET FLAT:$SG3396
	mov	QWORD PTR tv159[rsp], rax
$LN15@e1000_inte:
	mov	rdx, QWORD PTR tv159[rsp]
	lea	rcx, OFFSET FLAT:$SG3397
	call	?printf@@YAXPEBDZZ			; printf

; 131  : 	} else {

	jmp	SHORT $LN1@e1000_inte
$LN2@e1000_inte:

; 132  : 		printf ("E1000 unknown interrupt\n");

	lea	rcx, OFFSET FLAT:$SG3399
	call	?printf@@YAXPEBDZZ			; printf
$LN1@e1000_inte:
$LN3@e1000_inte:
$LN5@e1000_inte:

; 133  : 	}
; 134  : 	interrupt_end(i_net_dev->e1000_irq);

	mov	rax, QWORD PTR ?i_net_dev@@3PEAU_e1000_dev_@@EA ; i_net_dev
	mov	ecx, DWORD PTR [rax+20]
	call	?interrupt_end@@YAXI@Z			; interrupt_end

; 135  : }

	add	rsp, 72					; 00000048H
	ret	0
?e1000_interrupt_handler@@YAX_KPEAX@Z ENDP		; e1000_interrupt_handler
_TEXT	ENDS
; Function compile flags: /Odtp
; File e:\xeneva project\xeneva\aurora\aurora\drivers\net\e1000.cpp
_TEXT	SEGMENT
temp$1 = 32
i$2 = 36
mem_base_mac_32$3 = 40
mem_base_mac_8$4 = 48
?e1000_read_mac_address@@YA_NXZ PROC			; e1000_read_mac_address

; 66   : bool e1000_read_mac_address () {

$LN10:
	sub	rsp, 72					; 00000048H

; 67   : 	if (i_net_dev->eerprom_exists) {

	mov	rax, QWORD PTR ?i_net_dev@@3PEAU_e1000_dev_@@EA ; i_net_dev
	movzx	eax, BYTE PTR [rax+16]
	test	eax, eax
	je	$LN7@e1000_read

; 68   : 		printf ("EEPROM exist\n");

	lea	rcx, OFFSET FLAT:$SG3359
	call	?printf@@YAXPEBDZZ			; printf

; 69   : 		uint32_t temp;
; 70   : 		temp = e1000_eerprom_read (0);

	xor	ecx, ecx
	call	?e1000_eerprom_read@@YAIE@Z		; e1000_eerprom_read
	mov	DWORD PTR temp$1[rsp], eax

; 71   : 		i_net_dev->mac[0] = temp & 0xff;

	mov	eax, DWORD PTR temp$1[rsp]
	and	eax, 255				; 000000ffH
	mov	ecx, 1
	imul	rcx, 0
	mov	rdx, QWORD PTR ?i_net_dev@@3PEAU_e1000_dev_@@EA ; i_net_dev
	mov	BYTE PTR [rdx+rcx+24], al

; 72   : 		i_net_dev->mac[1] = temp >> 8;

	mov	eax, DWORD PTR temp$1[rsp]
	shr	eax, 8
	mov	ecx, 1
	imul	rcx, 1
	mov	rdx, QWORD PTR ?i_net_dev@@3PEAU_e1000_dev_@@EA ; i_net_dev
	mov	BYTE PTR [rdx+rcx+24], al

; 73   : 		temp = e1000_eerprom_read (1);

	mov	cl, 1
	call	?e1000_eerprom_read@@YAIE@Z		; e1000_eerprom_read
	mov	DWORD PTR temp$1[rsp], eax

; 74   : 		i_net_dev->mac[2] = temp & 0xff;

	mov	eax, DWORD PTR temp$1[rsp]
	and	eax, 255				; 000000ffH
	mov	ecx, 1
	imul	rcx, 2
	mov	rdx, QWORD PTR ?i_net_dev@@3PEAU_e1000_dev_@@EA ; i_net_dev
	mov	BYTE PTR [rdx+rcx+24], al

; 75   : 		i_net_dev->mac[3] = temp >> 8;

	mov	eax, DWORD PTR temp$1[rsp]
	shr	eax, 8
	mov	ecx, 1
	imul	rcx, 3
	mov	rdx, QWORD PTR ?i_net_dev@@3PEAU_e1000_dev_@@EA ; i_net_dev
	mov	BYTE PTR [rdx+rcx+24], al

; 76   : 		temp = e1000_eerprom_read (2);

	mov	cl, 2
	call	?e1000_eerprom_read@@YAIE@Z		; e1000_eerprom_read
	mov	DWORD PTR temp$1[rsp], eax

; 77   : 		i_net_dev->mac[4] = temp & 0xff;

	mov	eax, DWORD PTR temp$1[rsp]
	and	eax, 255				; 000000ffH
	mov	ecx, 1
	imul	rcx, 4
	mov	rdx, QWORD PTR ?i_net_dev@@3PEAU_e1000_dev_@@EA ; i_net_dev
	mov	BYTE PTR [rdx+rcx+24], al

; 78   : 		i_net_dev->mac[5] = temp >> 8;

	mov	eax, DWORD PTR temp$1[rsp]
	shr	eax, 8
	mov	ecx, 1
	imul	rcx, 5
	mov	rdx, QWORD PTR ?i_net_dev@@3PEAU_e1000_dev_@@EA ; i_net_dev
	mov	BYTE PTR [rdx+rcx+24], al

; 79   : 	} else {

	jmp	$LN6@e1000_read
$LN7@e1000_read:

; 80   : 		printf ("Applying memory map\n");

	lea	rcx, OFFSET FLAT:$SG3362
	call	?printf@@YAXPEBDZZ			; printf

; 81   : 		uint8_t * mem_base_mac_8 = (uint8_t*)(i_net_dev->e1000_mem_base + 0x5400);

	mov	rax, QWORD PTR ?i_net_dev@@3PEAU_e1000_dev_@@EA ; i_net_dev
	mov	rax, QWORD PTR [rax+8]
	add	rax, 21504				; 00005400H
	mov	QWORD PTR mem_base_mac_8$4[rsp], rax

; 82   : 		uint32_t * mem_base_mac_32 = (uint32_t*) (i_net_dev->e1000_mem_base + 0x5400);

	mov	rax, QWORD PTR ?i_net_dev@@3PEAU_e1000_dev_@@EA ; i_net_dev
	mov	rax, QWORD PTR [rax+8]
	add	rax, 21504				; 00005400H
	mov	QWORD PTR mem_base_mac_32$3[rsp], rax

; 83   : 		if (mem_base_mac_32[0] != 0) {

	mov	eax, 4
	imul	rax, 0
	mov	rcx, QWORD PTR mem_base_mac_32$3[rsp]
	cmp	DWORD PTR [rcx+rax], 0
	je	SHORT $LN5@e1000_read

; 84   : 			for (int i = 0; i < 6; i++) {

	mov	DWORD PTR i$2[rsp], 0
	jmp	SHORT $LN4@e1000_read
$LN3@e1000_read:
	mov	eax, DWORD PTR i$2[rsp]
	inc	eax
	mov	DWORD PTR i$2[rsp], eax
$LN4@e1000_read:
	cmp	DWORD PTR i$2[rsp], 6
	jge	SHORT $LN2@e1000_read

; 85   : 				i_net_dev->mac[i] = mem_base_mac_8[i];

	movsxd	rax, DWORD PTR i$2[rsp]
	movsxd	rcx, DWORD PTR i$2[rsp]
	mov	rdx, QWORD PTR ?i_net_dev@@3PEAU_e1000_dev_@@EA ; i_net_dev
	mov	r8, QWORD PTR mem_base_mac_8$4[rsp]
	movzx	eax, BYTE PTR [r8+rax]
	mov	BYTE PTR [rdx+rcx+24], al

; 86   : 			}

	jmp	SHORT $LN3@e1000_read
$LN2@e1000_read:
	jmp	SHORT $LN1@e1000_read
$LN5@e1000_read:

; 87   : 		}else {
; 88   : 			return false;

	xor	al, al
	jmp	SHORT $LN8@e1000_read
$LN1@e1000_read:
$LN6@e1000_read:

; 89   : 		}
; 90   : 	}
; 91   : 
; 92   : 	return true;

	mov	al, 1
$LN8@e1000_read:

; 93   : }

	add	rsp, 72					; 00000048H
	ret	0
?e1000_read_mac_address@@YA_NXZ ENDP			; e1000_read_mac_address
_TEXT	ENDS
; Function compile flags: /Odtp
; File e:\xeneva project\xeneva\aurora\aurora\drivers\net\e1000.cpp
_TEXT	SEGMENT
data$ = 32
tmp$ = 36
addr$ = 64
?e1000_eerprom_read@@YAIE@Z PROC			; e1000_eerprom_read

; 50   : uint32_t e1000_eerprom_read (uint8_t addr) {

$LN9:
	mov	BYTE PTR [rsp+8], cl
	sub	rsp, 56					; 00000038H

; 51   : 	
; 52   : 	uint16_t data = 0;

	xor	eax, eax
	mov	WORD PTR data$[rsp], ax

; 53   : 	uint32_t tmp = 0;

	mov	DWORD PTR tmp$[rsp], 0

; 54   : 	if (i_net_dev->eerprom_exists) {

	mov	rax, QWORD PTR ?i_net_dev@@3PEAU_e1000_dev_@@EA ; i_net_dev
	movzx	eax, BYTE PTR [rax+16]
	test	eax, eax
	je	SHORT $LN6@e1000_eerp

; 55   : 		e1000_write_command (REG_EEPROM, (1) | ((uint32_t)(addr) << 8));

	movzx	eax, BYTE PTR addr$[rsp]
	shl	eax, 8
	or	eax, 1
	mov	edx, eax
	mov	cx, 20
	call	?e1000_write_command@@YAXGI@Z		; e1000_write_command
$LN5@e1000_eerp:

; 56   : 		while (! ((tmp = e1000_read_command (REG_EEPROM)) & (1 << 4)));

	mov	cx, 20
	call	?e1000_read_command@@YAIG@Z		; e1000_read_command
	mov	DWORD PTR tmp$[rsp], eax
	mov	eax, DWORD PTR tmp$[rsp]
	and	eax, 16
	test	eax, eax
	jne	SHORT $LN4@e1000_eerp
	jmp	SHORT $LN5@e1000_eerp
$LN4@e1000_eerp:

; 57   : 	} else {

	jmp	SHORT $LN3@e1000_eerp
$LN6@e1000_eerp:

; 58   : 		e1000_write_command ( REG_EEPROM, (1) | ((uint32_t)(addr) << 2));

	movzx	eax, BYTE PTR addr$[rsp]
	shl	eax, 2
	or	eax, 1
	mov	edx, eax
	mov	cx, 20
	call	?e1000_write_command@@YAXGI@Z		; e1000_write_command
$LN2@e1000_eerp:

; 59   : 		while (!((tmp = e1000_read_command (REG_EEPROM)) & (1 << 1)));

	mov	cx, 20
	call	?e1000_read_command@@YAIG@Z		; e1000_read_command
	mov	DWORD PTR tmp$[rsp], eax
	mov	eax, DWORD PTR tmp$[rsp]
	and	eax, 2
	test	eax, eax
	jne	SHORT $LN1@e1000_eerp
	jmp	SHORT $LN2@e1000_eerp
$LN1@e1000_eerp:
$LN3@e1000_eerp:

; 60   : 	}
; 61   : 	data = (uint16_t)((tmp >> 16) & 0xFFFF);

	mov	eax, DWORD PTR tmp$[rsp]
	shr	eax, 16
	and	eax, 65535				; 0000ffffH
	mov	WORD PTR data$[rsp], ax

; 62   : 	return data;

	movzx	eax, WORD PTR data$[rsp]

; 63   : }

	add	rsp, 56					; 00000038H
	ret	0
?e1000_eerprom_read@@YAIE@Z ENDP			; e1000_eerprom_read
_TEXT	ENDS
; Function compile flags: /Odtp
; File e:\xeneva project\xeneva\aurora\aurora\drivers\net\e1000.cpp
_TEXT	SEGMENT
i$1 = 32
val$ = 36
?e1000_detect_eeprom@@YA_NXZ PROC			; e1000_detect_eeprom

; 33   : bool e1000_detect_eeprom () {

$LN8:
	sub	rsp, 56					; 00000038H

; 34   : 	
; 35   : 	uint32_t val = 0;

	mov	DWORD PTR val$[rsp], 0

; 36   : 	e1000_write_command (REG_EEPROM, 0x1);

	mov	edx, 1
	mov	cx, 20
	call	?e1000_write_command@@YAXGI@Z		; e1000_write_command

; 37   : 
; 38   : 	for (int i = 0; i < 1000 && ! i_net_dev->eerprom_exists; i++) {

	mov	DWORD PTR i$1[rsp], 0
	jmp	SHORT $LN5@e1000_dete
$LN4@e1000_dete:
	mov	eax, DWORD PTR i$1[rsp]
	inc	eax
	mov	DWORD PTR i$1[rsp], eax
$LN5@e1000_dete:
	cmp	DWORD PTR i$1[rsp], 1000		; 000003e8H
	jge	SHORT $LN3@e1000_dete
	mov	rax, QWORD PTR ?i_net_dev@@3PEAU_e1000_dev_@@EA ; i_net_dev
	movzx	eax, BYTE PTR [rax+16]
	test	eax, eax
	jne	SHORT $LN3@e1000_dete

; 39   : 		val = e1000_read_command (REG_EEPROM);

	mov	cx, 20
	call	?e1000_read_command@@YAIG@Z		; e1000_read_command
	mov	DWORD PTR val$[rsp], eax

; 40   : 		if (val & 0x10)

	mov	eax, DWORD PTR val$[rsp]
	and	eax, 16
	test	eax, eax
	je	SHORT $LN2@e1000_dete

; 41   : 			i_net_dev->eerprom_exists = true;

	mov	rax, QWORD PTR ?i_net_dev@@3PEAU_e1000_dev_@@EA ; i_net_dev
	mov	BYTE PTR [rax+16], 1

; 42   : 		else

	jmp	SHORT $LN1@e1000_dete
$LN2@e1000_dete:

; 43   : 			i_net_dev->eerprom_exists = false;

	mov	rax, QWORD PTR ?i_net_dev@@3PEAU_e1000_dev_@@EA ; i_net_dev
	mov	BYTE PTR [rax+16], 0
$LN1@e1000_dete:

; 44   : 	}

	jmp	SHORT $LN4@e1000_dete
$LN3@e1000_dete:

; 45   : 
; 46   : 	return i_net_dev->eerprom_exists;

	mov	rax, QWORD PTR ?i_net_dev@@3PEAU_e1000_dev_@@EA ; i_net_dev
	movzx	eax, BYTE PTR [rax+16]

; 47   : }

	add	rsp, 56					; 00000038H
	ret	0
?e1000_detect_eeprom@@YA_NXZ ENDP			; e1000_detect_eeprom
_TEXT	ENDS
; Function compile flags: /Odtp
; File e:\xeneva project\xeneva\aurora\aurora\drivers\net\e1000.cpp
_TEXT	SEGMENT
p_address$ = 48
p_value$ = 56
?e1000_write_command@@YAXGI@Z PROC			; e1000_write_command

; 28   : void e1000_write_command (uint16_t p_address, uint32_t p_value) {

$LN3:
	mov	DWORD PTR [rsp+16], edx
	mov	WORD PTR [rsp+8], cx
	sub	rsp, 40					; 00000028H

; 29   : 	x64_outportd (i_net_dev->e1000_base, p_address);

	movzx	eax, WORD PTR p_address$[rsp]
	mov	edx, eax
	mov	rax, QWORD PTR ?i_net_dev@@3PEAU_e1000_dev_@@EA ; i_net_dev
	movzx	ecx, WORD PTR [rax]
	call	x64_outportd

; 30   : 	x64_outportd (i_net_dev->e1000_base + 4, p_value);  //4

	mov	rax, QWORD PTR ?i_net_dev@@3PEAU_e1000_dev_@@EA ; i_net_dev
	mov	rax, QWORD PTR [rax]
	add	rax, 4
	mov	edx, DWORD PTR p_value$[rsp]
	movzx	ecx, ax
	call	x64_outportd

; 31   : }

	add	rsp, 40					; 00000028H
	ret	0
?e1000_write_command@@YAXGI@Z ENDP			; e1000_write_command
_TEXT	ENDS
; Function compile flags: /Odtp
; File e:\xeneva project\xeneva\aurora\aurora\drivers\net\e1000.cpp
_TEXT	SEGMENT
io_data$ = 32
p_address$ = 64
?e1000_read_command@@YAIG@Z PROC			; e1000_read_command

; 22   : uint32_t e1000_read_command (uint16_t p_address) {

$LN3:
	mov	WORD PTR [rsp+8], cx
	sub	rsp, 56					; 00000038H

; 23   : 	x64_outportd (i_net_dev->e1000_base,p_address);

	movzx	eax, WORD PTR p_address$[rsp]
	mov	edx, eax
	mov	rax, QWORD PTR ?i_net_dev@@3PEAU_e1000_dev_@@EA ; i_net_dev
	movzx	ecx, WORD PTR [rax]
	call	x64_outportd

; 24   : 	char *io_data = (char*)(i_net_dev->e1000_base + 4);

	mov	rax, QWORD PTR ?i_net_dev@@3PEAU_e1000_dev_@@EA ; i_net_dev
	mov	rax, QWORD PTR [rax]
	add	rax, 4
	mov	QWORD PTR io_data$[rsp], rax

; 25   : 	return x64_inportd ((uint16_t)io_data);

	movzx	ecx, WORD PTR io_data$[rsp]
	call	x64_inportd

; 26   : }

	add	rsp, 56					; 00000038H
	ret	0
?e1000_read_command@@YAIG@Z ENDP			; e1000_read_command
_TEXT	ENDS
; Function compile flags: /Odtp
; File e:\xeneva project\xeneva\aurora\aurora\drivers\net\e1000.cpp
_TEXT	SEGMENT
cur$ = 32
head$ = 36
data$ = 64
size$ = 72
?e1000_send_packet@@YAXPEAX_K@Z PROC			; e1000_send_packet

; 193  : void e1000_send_packet (void* data, size_t size) {

$LN8:
	mov	QWORD PTR [rsp+16], rdx
	mov	QWORD PTR [rsp+8], rcx
	sub	rsp, 56					; 00000038H

; 194  : 	x64_cli();

	call	x64_cli

; 195  : 	uint32_t cur, head;
; 196  : 	
; 197  : 	cur = e1000_read_command (REG_TXDESCTAIL) % E1000_NUM_TX_DESC; //i_net_dev->tx_tail;

	mov	cx, 14360				; 00003818H
	call	?e1000_read_command@@YAIG@Z		; e1000_read_command
	xor	edx, edx
	mov	ecx, 8
	div	ecx
	mov	eax, edx
	mov	DWORD PTR cur$[rsp], eax

; 198  : 	printf ("CUR Tx tail -> %d\n", cur);

	mov	edx, DWORD PTR cur$[rsp]
	lea	rcx, OFFSET FLAT:$SG3437
	call	?printf@@YAXPEBDZZ			; printf

; 199  : 	i_net_dev->tx_tail++;

	mov	rax, QWORD PTR ?i_net_dev@@3PEAU_e1000_dev_@@EA ; i_net_dev
	movzx	eax, WORD PTR [rax+48]
	inc	ax
	mov	rcx, QWORD PTR ?i_net_dev@@3PEAU_e1000_dev_@@EA ; i_net_dev
	mov	WORD PTR [rcx+48], ax

; 200  : 	i_net_dev->tx_tail %= E1000_NUM_TX_DESC;

	mov	rax, QWORD PTR ?i_net_dev@@3PEAU_e1000_dev_@@EA ; i_net_dev
	movzx	eax, WORD PTR [rax+48]
	cdq
	and	edx, 7
	add	eax, edx
	and	eax, 7
	sub	eax, edx
	mov	rcx, QWORD PTR ?i_net_dev@@3PEAU_e1000_dev_@@EA ; i_net_dev
	mov	WORD PTR [rcx+48], ax

; 201  : 
; 202  : 	head = e1000_read_command(REG_TXDESCHEAD);

	mov	cx, 14352				; 00003810H
	call	?e1000_read_command@@YAIG@Z		; e1000_read_command
	mov	DWORD PTR head$[rsp], eax

; 203  : 	if (i_net_dev->tx_tail == head) {

	mov	rax, QWORD PTR ?i_net_dev@@3PEAU_e1000_dev_@@EA ; i_net_dev
	movzx	eax, WORD PTR [rax+48]
	cmp	eax, DWORD PTR head$[rsp]
	jne	SHORT $LN5@e1000_send

; 204  : 		i_net_dev->tx_tail = cur;

	mov	rax, QWORD PTR ?i_net_dev@@3PEAU_e1000_dev_@@EA ; i_net_dev
	movzx	ecx, WORD PTR cur$[rsp]
	mov	WORD PTR [rax+48], cx

; 205  : 		return;

	jmp	$LN6@e1000_send
$LN5@e1000_send:

; 206  : 	}
; 207  : 
; 208  : 	if (size > 2048) {  //max buffer size 2048 (2KB)

	cmp	QWORD PTR size$[rsp], 2048		; 00000800H
	jbe	SHORT $LN4@e1000_send

; 209  : 		size = 2048;

	mov	QWORD PTR size$[rsp], 2048		; 00000800H
$LN4@e1000_send:

; 210  : 	}
; 211  : 
; 212  : 	
; 213  : 
; 214  : 	i_net_dev->tx_desc[cur]->cmd = CMD_EOP | CMD_IFCS | CMD_RS | CMD_RPS | CMD_IDE;

	mov	eax, DWORD PTR cur$[rsp]
	mov	rcx, QWORD PTR ?i_net_dev@@3PEAU_e1000_dev_@@EA ; i_net_dev
	mov	rax, QWORD PTR [rcx+rax*8+312]
	mov	BYTE PTR [rax+11], 155			; 0000009bH

; 215  : 	i_net_dev->tx_desc[cur]->length = size;

	mov	eax, DWORD PTR cur$[rsp]
	mov	rcx, QWORD PTR ?i_net_dev@@3PEAU_e1000_dev_@@EA ; i_net_dev
	mov	rax, QWORD PTR [rcx+rax*8+312]
	movzx	ecx, WORD PTR size$[rsp]
	mov	WORD PTR [rax+8], cx

; 216  : 	i_net_dev->tx_desc[cur]->addr = (uint64_t)pmmngr_alloc(); //(i_net_dev->tx_desc_base + (cur * 2048));

	call	?pmmngr_alloc@@YAPEAXXZ			; pmmngr_alloc
	mov	ecx, DWORD PTR cur$[rsp]
	mov	rdx, QWORD PTR ?i_net_dev@@3PEAU_e1000_dev_@@EA ; i_net_dev
	mov	rcx, QWORD PTR [rdx+rcx*8+312]
	mov	QWORD PTR [rcx], rax

; 217  : 	e1000_write_command(REG_TXDESCTAIL, i_net_dev->tx_tail);

	mov	rax, QWORD PTR ?i_net_dev@@3PEAU_e1000_dev_@@EA ; i_net_dev
	movzx	eax, WORD PTR [rax+48]
	mov	edx, eax
	mov	cx, 14360				; 00003818H
	call	?e1000_write_command@@YAXGI@Z		; e1000_write_command

; 218  : 	memcpy ((void*)i_net_dev->tx_desc[cur]->addr, data, size);

	mov	eax, DWORD PTR cur$[rsp]
	mov	rcx, QWORD PTR ?i_net_dev@@3PEAU_e1000_dev_@@EA ; i_net_dev
	mov	rax, QWORD PTR [rcx+rax*8+312]
	mov	r8d, DWORD PTR size$[rsp]
	mov	rdx, QWORD PTR data$[rsp]
	mov	rcx, QWORD PTR [rax]
	call	memcpy

; 219  : 	printf ("TX Next tail -> %d\n", e1000_read_command (REG_TXDESCTAIL) % E1000_NUM_TX_DESC);

	mov	cx, 14360				; 00003818H
	call	?e1000_read_command@@YAIG@Z		; e1000_read_command
	xor	edx, edx
	mov	ecx, 8
	div	ecx
	mov	eax, edx
	mov	edx, eax
	lea	rcx, OFFSET FLAT:$SG3442
	call	?printf@@YAXPEBDZZ			; printf

; 220  : 	x64_sti();

	call	x64_sti
$LN3@e1000_send:

; 221  : 	for(;;) {
; 222  : 		if (i_net_dev->tx_desc[cur]->status) {

	mov	eax, DWORD PTR cur$[rsp]
	mov	rcx, QWORD PTR ?i_net_dev@@3PEAU_e1000_dev_@@EA ; i_net_dev
	mov	rax, QWORD PTR [rcx+rax*8+312]
	movzx	eax, BYTE PTR [rax+12]
	movzx	eax, al
	test	eax, eax
	je	SHORT $LN1@e1000_send

; 223  : 			printf ("Transmit status ->%x\n", i_net_dev->tx_desc[cur]->status);

	mov	eax, DWORD PTR cur$[rsp]
	mov	rcx, QWORD PTR ?i_net_dev@@3PEAU_e1000_dev_@@EA ; i_net_dev
	mov	rax, QWORD PTR [rcx+rax*8+312]
	movzx	eax, BYTE PTR [rax+12]
	movzx	eax, al
	mov	edx, eax
	lea	rcx, OFFSET FLAT:$SG3447
	call	?printf@@YAXPEBDZZ			; printf

; 224  : 			printf ("Transmitted\n");

	lea	rcx, OFFSET FLAT:$SG3448
	call	?printf@@YAXPEBDZZ			; printf

; 225  : 			break;

	jmp	SHORT $LN2@e1000_send
$LN1@e1000_send:

; 226  : 		}
; 227  : 	}

	jmp	SHORT $LN3@e1000_send
$LN2@e1000_send:
$LN6@e1000_send:

; 228  : }

	add	rsp, 56					; 00000038H
	ret	0
?e1000_send_packet@@YAXPEAX_K@Z ENDP			; e1000_send_packet
_TEXT	ENDS
; Function compile flags: /Odtp
; File e:\xeneva project\xeneva\aurora\aurora\drivers\net\e1000.cpp
_TEXT	SEGMENT
i$1 = 48
dev$ = 56
i$2 = 64
i$3 = 68
i$4 = 72
bus$ = 76
buf$ = 80
func$ = 88
dev_$ = 92
?e1000_initialize@@YAXXZ PROC				; e1000_initialize

; 284  : void e1000_initialize () {

$LN19:
	sub	rsp, 104				; 00000068H

; 285  : 	int func, dev_, bus = 0;

	mov	DWORD PTR bus$[rsp], 0

; 286  : 	pci_device_info *dev = (pci_device_info*)pmmngr_alloc();

	call	?pmmngr_alloc@@YAPEAXXZ			; pmmngr_alloc
	mov	QWORD PTR dev$[rsp], rax

; 287  : 	if (!pci_find_device_class (0x02,0x00, dev,&bus, &dev_, &func)) {

	lea	rax, QWORD PTR func$[rsp]
	mov	QWORD PTR [rsp+40], rax
	lea	rax, QWORD PTR dev_$[rsp]
	mov	QWORD PTR [rsp+32], rax
	lea	r9, QWORD PTR bus$[rsp]
	mov	r8, QWORD PTR dev$[rsp]
	xor	edx, edx
	mov	cl, 2
	call	?pci_find_device_class@@YA_NEEPEATpci_device_info@@PEAH11@Z ; pci_find_device_class
	movzx	eax, al
	test	eax, eax
	jne	SHORT $LN16@e1000_init

; 288  : 		//printf ("Intel Ethernet not found\n");
; 289  : 		return;

	jmp	$LN17@e1000_init
$LN16@e1000_init:

; 290  : 	}
; 291  : 
; 292  : 	
; 293  : 
; 294  : 	i_net_dev = (e1000_dev*)malloc(sizeof(e1000_dev));

	mov	ecx, 376				; 00000178H
	call	?malloc@@YAPEAX_K@Z			; malloc
	mov	QWORD PTR ?i_net_dev@@3PEAU_e1000_dev_@@EA, rax ; i_net_dev

; 295  :     i_net_dev->e1000_mem_base = dev->device.nonBridge.baseAddress[0] & ~3;

	mov	eax, 4
	imul	rax, 0
	mov	rcx, QWORD PTR dev$[rsp]
	mov	eax, DWORD PTR [rcx+rax+16]
	and	eax, -4					; fffffffcH
	mov	eax, eax
	mov	rcx, QWORD PTR ?i_net_dev@@3PEAU_e1000_dev_@@EA ; i_net_dev
	mov	QWORD PTR [rcx+8], rax

; 296  : 
; 297  : 	for (int i = 0; i < 6; i++) {

	mov	DWORD PTR i$1[rsp], 0
	jmp	SHORT $LN15@e1000_init
$LN14@e1000_init:
	mov	eax, DWORD PTR i$1[rsp]
	inc	eax
	mov	DWORD PTR i$1[rsp], eax
$LN15@e1000_init:
	cmp	DWORD PTR i$1[rsp], 6
	jge	SHORT $LN13@e1000_init

; 298  : 		if ( dev->device.nonBridge.baseAddress[i] & 1) {

	movsxd	rax, DWORD PTR i$1[rsp]
	mov	rcx, QWORD PTR dev$[rsp]
	mov	eax, DWORD PTR [rcx+rax*4+16]
	and	eax, 1
	test	eax, eax
	je	SHORT $LN12@e1000_init

; 299  : 			  //TODO:Auto search  4
; 300  : 	        i_net_dev->e1000_base = dev->device.nonBridge.baseAddress[i] & ~1; 

	movsxd	rax, DWORD PTR i$1[rsp]
	mov	rcx, QWORD PTR dev$[rsp]
	mov	eax, DWORD PTR [rcx+rax*4+16]
	and	eax, -2					; fffffffeH
	mov	eax, eax
	mov	rcx, QWORD PTR ?i_net_dev@@3PEAU_e1000_dev_@@EA ; i_net_dev
	mov	QWORD PTR [rcx], rax

; 301  : 			break;

	jmp	SHORT $LN13@e1000_init
$LN12@e1000_init:

; 302  : 		}
; 303  : 	}

	jmp	SHORT $LN14@e1000_init
$LN13@e1000_init:

; 304  : 
; 305  : 	i_net_dev->e1000_irq = dev->device.nonBridge.interruptLine;

	mov	rax, QWORD PTR dev$[rsp]
	movzx	eax, BYTE PTR [rax+60]
	mov	rcx, QWORD PTR ?i_net_dev@@3PEAU_e1000_dev_@@EA ; i_net_dev
	mov	DWORD PTR [rcx+20], eax

; 306  : 	
; 307  : 	if (dev->device.nonBridge.interruptLine != 255) {

	mov	rax, QWORD PTR dev$[rsp]
	movzx	eax, BYTE PTR [rax+60]
	cmp	eax, 255				; 000000ffH
	je	SHORT $LN11@e1000_init

; 308  : 		printf ("E1000: Setting up interrupt line -> %d\n",dev->device.nonBridge.interruptLine );

	mov	rax, QWORD PTR dev$[rsp]
	movzx	eax, BYTE PTR [rax+60]
	mov	edx, eax
	lea	rcx, OFFSET FLAT:$SG3502
	call	?printf@@YAXPEBDZZ			; printf

; 309  : 		interrupt_set (dev->device.nonBridge.interruptLine, e1000_interrupt_handler,dev->device.nonBridge.interruptLine);

	mov	rax, QWORD PTR dev$[rsp]
	movzx	eax, BYTE PTR [rax+60]
	mov	rcx, QWORD PTR dev$[rsp]
	movzx	r8d, BYTE PTR [rcx+60]
	lea	rdx, OFFSET FLAT:?e1000_interrupt_handler@@YAX_KPEAX@Z ; e1000_interrupt_handler
	mov	ecx, eax
	call	?interrupt_set@@YAX_KP6AX0PEAX@ZE@Z	; interrupt_set
$LN11@e1000_init:

; 310  : 	}
; 311  : 	
; 312  : 	e1000_write_command (REG_IMC, UINT32_MAX);

	mov	edx, -1					; ffffffffH
	mov	cx, 216					; 000000d8H
	call	?e1000_write_command@@YAXGI@Z		; e1000_write_command

; 313  : 	e1000_read_command (REG_ICR);

	mov	cx, 192					; 000000c0H
	call	?e1000_read_command@@YAIG@Z		; e1000_read_command

; 314  : 	e1000_reset();

	call	?e1000_reset@@YAXXZ			; e1000_reset

; 315  : 	e1000_write_command (REG_CTRL, ECTRL_SLU | (1<<8) | (1<<9) | (1<<11));

	mov	edx, 2880				; 00000b40H
	xor	ecx, ecx
	call	?e1000_write_command@@YAXGI@Z		; e1000_write_command

; 316  : 	e1000_detect_eeprom();

	call	?e1000_detect_eeprom@@YA_NXZ		; e1000_detect_eeprom

; 317  : 	
; 318  : 
; 319  : 	for (int i = 0; i < 128; i++)

	mov	DWORD PTR i$4[rsp], 0
	jmp	SHORT $LN10@e1000_init
$LN9@e1000_init:
	mov	eax, DWORD PTR i$4[rsp]
	inc	eax
	mov	DWORD PTR i$4[rsp], eax
$LN10@e1000_init:
	cmp	DWORD PTR i$4[rsp], 128			; 00000080H
	jge	SHORT $LN8@e1000_init

; 320  : 		e1000_write_command (REG_MTA + (i * 4), 0);

	mov	eax, DWORD PTR i$4[rsp]
	lea	eax, DWORD PTR [rax*4+20992]
	xor	edx, edx
	movzx	ecx, ax
	call	?e1000_write_command@@YAXGI@Z		; e1000_write_command
	jmp	SHORT $LN9@e1000_init
$LN8@e1000_init:

; 321  : 
; 322  : 	//!Initialize all statistical counters as per spec section 14.3
; 323  : 	for (int i = 0; i < 64; i++) {

	mov	DWORD PTR i$2[rsp], 0
	jmp	SHORT $LN7@e1000_init
$LN6@e1000_init:
	mov	eax, DWORD PTR i$2[rsp]
	inc	eax
	mov	DWORD PTR i$2[rsp], eax
$LN7@e1000_init:
	cmp	DWORD PTR i$2[rsp], 64			; 00000040H
	jge	SHORT $LN5@e1000_init

; 324  : 		e1000_write_command (REG_CRCERRS + (i * 4), 0);

	mov	eax, DWORD PTR i$2[rsp]
	lea	eax, DWORD PTR [rax*4+16384]
	xor	edx, edx
	movzx	ecx, ax
	call	?e1000_write_command@@YAXGI@Z		; e1000_write_command

; 325  : 	}

	jmp	SHORT $LN6@e1000_init
$LN5@e1000_init:

; 326  : 	
; 327  : 
; 328  : 	if (e1000_read_mac_address()) {

	call	?e1000_read_mac_address@@YA_NXZ		; e1000_read_mac_address
	movzx	eax, al
	test	eax, eax
	je	SHORT $LN4@e1000_init

; 329  : 		printf ("E1000 MAC address received\n");

	lea	rcx, OFFSET FLAT:$SG3512
	call	?printf@@YAXPEBDZZ			; printf

; 330  : 		printf ("E1000 MAC Address: ");

	lea	rcx, OFFSET FLAT:$SG3513
	call	?printf@@YAXPEBDZZ			; printf

; 331  : 		for (int i = 0; i < 6; i++)

	mov	DWORD PTR i$3[rsp], 0
	jmp	SHORT $LN3@e1000_init
$LN2@e1000_init:
	mov	eax, DWORD PTR i$3[rsp]
	inc	eax
	mov	DWORD PTR i$3[rsp], eax
$LN3@e1000_init:
	cmp	DWORD PTR i$3[rsp], 6
	jge	SHORT $LN1@e1000_init

; 332  : 			printf (":%x", i_net_dev->mac[i]);

	movsxd	rax, DWORD PTR i$3[rsp]
	mov	rcx, QWORD PTR ?i_net_dev@@3PEAU_e1000_dev_@@EA ; i_net_dev
	movzx	eax, BYTE PTR [rcx+rax+24]
	mov	edx, eax
	lea	rcx, OFFSET FLAT:$SG3518
	call	?printf@@YAXPEBDZZ			; printf
	jmp	SHORT $LN2@e1000_init
$LN1@e1000_init:

; 333  : 		printf ("\n");

	lea	rcx, OFFSET FLAT:$SG3519
	call	?printf@@YAXPEBDZZ			; printf
$LN4@e1000_init:

; 334  : 	}
; 335  : 
; 336  : 	pci_print_capabilities(dev);

	mov	rcx, QWORD PTR dev$[rsp]
	call	?pci_print_capabilities@@YAXPEATpci_device_info@@@Z ; pci_print_capabilities

; 337  : 
; 338  : 	e1000_rx_init ();

	call	?e1000_rx_init@@YAXXZ			; e1000_rx_init

; 339  : 	e1000_tx_init ();

	call	?e1000_tx_init@@YAXXZ			; e1000_tx_init

; 340  : 
; 341  : 	e1000_write_command (0x000E0, 0);

	xor	edx, edx
	mov	cx, 224					; 000000e0H
	call	?e1000_write_command@@YAXGI@Z		; e1000_write_command

; 342  : 	e1000_write_command (REG_IMASK,  E1000_IMS_LSC | 
; 343  : 		                            E1000_IMS_RXO |
; 344  : 									E1000_IMS_RXT |
; 345  : 									E1000_IMS_TXQE |
; 346  : 									E1000_IMS_TXDW);

	mov	edx, 199				; 000000c7H
	mov	cx, 208					; 000000d0H
	call	?e1000_write_command@@YAXGI@Z		; e1000_write_command

; 347  : 
; 348  : 
; 349  : 	//e1000_setup_interrupt ();
; 350  : 
; 351  :     e1000_read_command (0xC0);

	mov	cx, 192					; 000000c0H
	call	?e1000_read_command@@YAIG@Z		; e1000_read_command

; 352  : 	unsigned char *buf = (unsigned char*)pmmngr_alloc();

	call	?pmmngr_alloc@@YAPEAXXZ			; pmmngr_alloc
	mov	QWORD PTR buf$[rsp], rax

; 353  : 	memset (buf, 'M', 4096);

	mov	r8d, 4096				; 00001000H
	mov	dl, 77					; 0000004dH
	mov	rcx, QWORD PTR buf$[rsp]
	call	?memset@@YAXPEAXEI@Z			; memset

; 354  : 	e1000_send_packet (buf, 2048);

	mov	edx, 2048				; 00000800H
	mov	rcx, QWORD PTR buf$[rsp]
	call	?e1000_send_packet@@YAXPEAX_K@Z		; e1000_send_packet
$LN17@e1000_init:

; 355  : }

	add	rsp, 104				; 00000068H
	ret	0
?e1000_initialize@@YAXXZ ENDP				; e1000_initialize
_TEXT	ENDS
END
