; Listing generated by Microsoft (R) Optimizing Compiler Version 17.00.50727.1 

include listing.inc

INCLUDELIB LIBCMT
INCLUDELIB OLDNAMES

PUBLIC	?part_lba@@3IA					; part_lba
PUBLIC	?fat_begin_lba@@3KA				; fat_begin_lba
PUBLIC	?cluster_begin_lba@@3KA				; cluster_begin_lba
PUBLIC	?sectors_per_cluster@@3EA			; sectors_per_cluster
PUBLIC	?root_dir_first_cluster@@3KA			; root_dir_first_cluster
PUBLIC	?root_sector@@3KA				; root_sector
_BSS	SEGMENT
?part_lba@@3IA DD 01H DUP (?)				; part_lba
?fat_begin_lba@@3KA DD 01H DUP (?)			; fat_begin_lba
?cluster_begin_lba@@3KA DD 01H DUP (?)			; cluster_begin_lba
?sectors_per_cluster@@3EA DB 01H DUP (?)		; sectors_per_cluster
	ALIGN	4

?root_dir_first_cluster@@3KA DD 01H DUP (?)		; root_dir_first_cluster
?root_sector@@3KA DD 01H DUP (?)			; root_sector
_BSS	ENDS
CONST	SEGMENT
$SG3190	DB	'%s             %d bytes', 0aH, 00H
	ORG $+7
$SG3198	DB	'%s             %d bytes', 0aH, 00H
CONST	ENDS
PUBLIC	?initialize_fat32@@YAXXZ			; initialize_fat32
PUBLIC	?fat32_open@@YA?AU_file_@@PEBD@Z		; fat32_open
PUBLIC	?fat32_read_file@@YAXPEAU_file_@@PEAEH@Z	; fat32_read_file
PUBLIC	?fat32_read@@YAXPEAU_file_@@PEAE@Z		; fat32_read
PUBLIC	?fat32_locate_dir@@YA?AU_file_@@PEBD@Z		; fat32_locate_dir
PUBLIC	?cluster_to_sector32@@YA_K_K@Z			; cluster_to_sector32
PUBLIC	?to_dos_file_name32@@YAXPEBDPEADI@Z		; to_dos_file_name32
PUBLIC	?fat32_read_fat@@YAII@Z				; fat32_read_fat
PUBLIC	?fat32_locate_subdir@@YA?AU_file_@@U1@PEBD@Z	; fat32_locate_subdir
PUBLIC	?convert_fat83_32@@YAXPEAU_fat32_dir_@@PEAD@Z	; convert_fat83_32
PUBLIC	?fat32_list_files@@YAXXZ			; fat32_list_files
EXTRN	?strcmp@@YAHPEBD0@Z:PROC			; strcmp
EXTRN	?strcpy@@YAPEADPEADPEBD@Z:PROC			; strcpy
EXTRN	?strlen@@YA_KPEBD@Z:PROC			; strlen
EXTRN	?strchr@@YAPEADPEADH@Z:PROC			; strchr
EXTRN	?memset@@YAXPEAXEI@Z:PROC			; memset
EXTRN	memcpy:PROC
EXTRN	?pmmngr_alloc@@YAPEAXXZ:PROC			; pmmngr_alloc
EXTRN	?pmmngr_free@@YAXPEAX@Z:PROC			; pmmngr_free
EXTRN	?printf@@YAXPEBDZZ:PROC				; printf
EXTRN	?ata_read_28@@YAEIGPEAE@Z:PROC			; ata_read_28
pdata	SEGMENT
$pdata$?initialize_fat32@@YAXXZ DD imagerel $LN3
	DD	imagerel $LN3+176
	DD	imagerel $unwind$?initialize_fat32@@YAXXZ
$pdata$?fat32_open@@YA?AU_file_@@PEBD@Z DD imagerel $LN17
	DD	imagerel $LN17+706
	DD	imagerel $unwind$?fat32_open@@YA?AU_file_@@PEBD@Z
$pdata$?fat32_read_file@@YAXPEAU_file_@@PEAEH@Z DD imagerel $LN7
	DD	imagerel $LN7+101
	DD	imagerel $unwind$?fat32_read_file@@YAXPEAU_file_@@PEAEH@Z
$pdata$?fat32_read@@YAXPEAU_file_@@PEAE@Z DD imagerel $LN8
	DD	imagerel $LN8+189
	DD	imagerel $unwind$?fat32_read@@YAXPEAU_file_@@PEAE@Z
$pdata$?fat32_locate_dir@@YA?AU_file_@@PEBD@Z DD imagerel $LN12
	DD	imagerel $LN12+457
	DD	imagerel $unwind$?fat32_locate_dir@@YA?AU_file_@@PEBD@Z
$pdata$?to_dos_file_name32@@YAXPEBDPEADI@Z DD imagerel $LN23
	DD	imagerel $LN23+511
	DD	imagerel $unwind$?to_dos_file_name32@@YAXPEBDPEADI@Z
$pdata$?fat32_read_fat@@YAII@Z DD imagerel $LN3
	DD	imagerel $LN3+125
	DD	imagerel $unwind$?fat32_read_fat@@YAII@Z
$pdata$?fat32_locate_subdir@@YA?AU_file_@@U1@PEBD@Z DD imagerel $LN12
	DD	imagerel $LN12+411
	DD	imagerel $unwind$?fat32_locate_subdir@@YA?AU_file_@@U1@PEBD@Z
$pdata$?convert_fat83_32@@YAXPEAU_fat32_dir_@@PEAD@Z DD imagerel $LN8
	DD	imagerel $LN8+268
	DD	imagerel $unwind$?convert_fat83_32@@YAXPEAU_fat32_dir_@@PEAD@Z
$pdata$?fat32_list_files@@YAXXZ DD imagerel $LN9
	DD	imagerel $LN9+259
	DD	imagerel $unwind$?fat32_list_files@@YAXXZ
pdata	ENDS
xdata	SEGMENT
$unwind$?initialize_fat32@@YAXXZ DD 010401H
	DD	06204H
$unwind$?fat32_open@@YA?AU_file_@@PEBD@Z DD 041301H
	DD	0590113H
	DD	0600b700cH
$unwind$?fat32_read_file@@YAXPEAU_file_@@PEAEH@Z DD 011301H
	DD	06213H
$unwind$?fat32_read@@YAXPEAU_file_@@PEAE@Z DD 010e01H
	DD	0620eH
$unwind$?fat32_locate_dir@@YA?AU_file_@@PEBD@Z DD 041301H
	DD	0150113H
	DD	0600b700cH
$unwind$?to_dos_file_name32@@YAXPEBDPEADI@Z DD 011301H
	DD	08213H
$unwind$?fat32_read_fat@@YAII@Z DD 020b01H
	DD	049010bH
$unwind$?fat32_locate_subdir@@YA?AU_file_@@U1@PEBD@Z DD 041801H
	DD	0150118H
	DD	060107011H
$unwind$?convert_fat83_32@@YAXPEAU_fat32_dir_@@PEAD@Z DD 010e01H
	DD	0420eH
$unwind$?fat32_list_files@@YAXXZ DD 020701H
	DD	0910107H
xdata	ENDS
; Function compile flags: /Odtp
; File e:\xeneva project\xeneva\aurora\aurora\fs\fat32.cpp
_TEXT	SEGMENT
i$1 = 32
i$2 = 36
dir2$ = 40
dir$ = 48
filename2$ = 56
filename$ = 88
buf$ = 128
buf2$ = 640
?fat32_list_files@@YAXXZ PROC				; fat32_list_files

; 296  : void fat32_list_files() {

$LN9:
	sub	rsp, 1160				; 00000488H

; 297  : 	unsigned char buf[512];
; 298  : 	unsigned char buf2[512];
; 299  : 	char filename[32];
; 300  : 	ata_read_28(root_sector, 1, buf);

	lea	r8, QWORD PTR buf$[rsp]
	mov	dx, 1
	mov	ecx, DWORD PTR ?root_sector@@3KA	; root_sector
	call	?ata_read_28@@YAEIGPEAE@Z		; ata_read_28

; 301  : 	ata_read_28(root_sector + 1, 1, buf2);

	mov	eax, DWORD PTR ?root_sector@@3KA	; root_sector
	inc	eax
	lea	r8, QWORD PTR buf2$[rsp]
	mov	dx, 1
	mov	ecx, eax
	call	?ata_read_28@@YAEIGPEAE@Z		; ata_read_28

; 302  : 	fat32_dir *dir = (fat32_dir*)buf;

	lea	rax, QWORD PTR buf$[rsp]
	mov	QWORD PTR dir$[rsp], rax

; 303  : 	for (int i=0; i < 16; i++) {

	mov	DWORD PTR i$1[rsp], 0
	jmp	SHORT $LN6@fat32_list
$LN5@fat32_list:
	mov	eax, DWORD PTR i$1[rsp]
	inc	eax
	mov	DWORD PTR i$1[rsp], eax
$LN6@fat32_list:
	cmp	DWORD PTR i$1[rsp], 16
	jge	SHORT $LN4@fat32_list

; 304  : 		convert_fat83_32(dir,filename);

	lea	rdx, QWORD PTR filename$[rsp]
	mov	rcx, QWORD PTR dir$[rsp]
	call	?convert_fat83_32@@YAXPEAU_fat32_dir_@@PEAD@Z ; convert_fat83_32

; 305  : 		printf ("%s             %d bytes\n",filename, dir->file_size);

	mov	rax, QWORD PTR dir$[rsp]
	mov	r8d, DWORD PTR [rax+28]
	lea	rdx, QWORD PTR filename$[rsp]
	lea	rcx, OFFSET FLAT:$SG3190
	call	?printf@@YAXPEBDZZ			; printf

; 306  : 		dir++;

	mov	rax, QWORD PTR dir$[rsp]
	add	rax, 32					; 00000020H
	mov	QWORD PTR dir$[rsp], rax

; 307  : 	}

	jmp	SHORT $LN5@fat32_list
$LN4@fat32_list:

; 308  : 
; 309  : 	char filename2[32];
; 310  : 	fat32_dir *dir2 = (fat32_dir*)buf2;

	lea	rax, QWORD PTR buf2$[rsp]
	mov	QWORD PTR dir2$[rsp], rax

; 311  : 	for (int i=0; i < 16; i++) {

	mov	DWORD PTR i$2[rsp], 0
	jmp	SHORT $LN3@fat32_list
$LN2@fat32_list:
	mov	eax, DWORD PTR i$2[rsp]
	inc	eax
	mov	DWORD PTR i$2[rsp], eax
$LN3@fat32_list:
	cmp	DWORD PTR i$2[rsp], 16
	jge	SHORT $LN1@fat32_list

; 312  : 		convert_fat83_32(dir2,filename2);

	lea	rdx, QWORD PTR filename2$[rsp]
	mov	rcx, QWORD PTR dir2$[rsp]
	call	?convert_fat83_32@@YAXPEAU_fat32_dir_@@PEAD@Z ; convert_fat83_32

; 313  : 		printf ("%s             %d bytes\n",filename2, dir2->file_size);

	mov	rax, QWORD PTR dir2$[rsp]
	mov	r8d, DWORD PTR [rax+28]
	lea	rdx, QWORD PTR filename2$[rsp]
	lea	rcx, OFFSET FLAT:$SG3198
	call	?printf@@YAXPEBDZZ			; printf

; 314  : 		dir2++;

	mov	rax, QWORD PTR dir2$[rsp]
	add	rax, 32					; 00000020H
	mov	QWORD PTR dir2$[rsp], rax

; 315  : 	}

	jmp	SHORT $LN2@fat32_list
$LN1@fat32_list:

; 316  : }

	add	rsp, 1160				; 00000488H
	ret	0
?fat32_list_files@@YAXXZ ENDP				; fat32_list_files
_TEXT	ENDS
; Function compile flags: /Odtp
; File e:\xeneva project\xeneva\aurora\aurora\fs\fat32.cpp
_TEXT	SEGMENT
i$ = 0
f$ = 8
p$ = 16
root$ = 48
filename$ = 56
?convert_fat83_32@@YAXPEAU_fat32_dir_@@PEAD@Z PROC	; convert_fat83_32

; 267  : {

$LN8:
	mov	QWORD PTR [rsp+16], rdx
	mov	QWORD PTR [rsp+8], rcx
	sub	rsp, 40					; 00000028H

; 268  : 	char *p;
; 269  : 	char *f = filename;

	mov	rax, QWORD PTR filename$[rsp]
	mov	QWORD PTR f$[rsp], rax

; 270  : 	int i;
; 271  : 
; 272  : 	p = (char*)root->filename;

	mov	rax, QWORD PTR root$[rsp]
	mov	QWORD PTR p$[rsp], rax

; 273  : 	i = 8;

	mov	DWORD PTR i$[rsp], 8
$LN5@convert_fa:

; 274  : 	while ((*p != 0x20) && i)

	mov	rax, QWORD PTR p$[rsp]
	movsx	eax, BYTE PTR [rax]
	cmp	eax, 32					; 00000020H
	je	SHORT $LN4@convert_fa
	cmp	DWORD PTR i$[rsp], 0
	je	SHORT $LN4@convert_fa

; 275  : 	{
; 276  : 		*f++ = *p++;

	mov	rax, QWORD PTR f$[rsp]
	mov	rcx, QWORD PTR p$[rsp]
	movzx	ecx, BYTE PTR [rcx]
	mov	BYTE PTR [rax], cl
	mov	rax, QWORD PTR f$[rsp]
	inc	rax
	mov	QWORD PTR f$[rsp], rax
	mov	rax, QWORD PTR p$[rsp]
	inc	rax
	mov	QWORD PTR p$[rsp], rax

; 277  : 		i--;

	mov	eax, DWORD PTR i$[rsp]
	dec	eax
	mov	DWORD PTR i$[rsp], eax

; 278  : 	}

	jmp	SHORT $LN5@convert_fa
$LN4@convert_fa:

; 279  : 
; 280  : 	*f++ = '.';

	mov	rax, QWORD PTR f$[rsp]
	mov	BYTE PTR [rax], 46			; 0000002eH
	mov	rax, QWORD PTR f$[rsp]
	inc	rax
	mov	QWORD PTR f$[rsp], rax

; 281  : 
; 282  : 	p = (char*)root->ext;

	mov	rax, QWORD PTR root$[rsp]
	add	rax, 8
	mov	QWORD PTR p$[rsp], rax

; 283  : 	i = 3;

	mov	DWORD PTR i$[rsp], 3
$LN3@convert_fa:

; 284  : 	while ((*p != 0x20) && i)

	mov	rax, QWORD PTR p$[rsp]
	movsx	eax, BYTE PTR [rax]
	cmp	eax, 32					; 00000020H
	je	SHORT $LN2@convert_fa
	cmp	DWORD PTR i$[rsp], 0
	je	SHORT $LN2@convert_fa

; 285  : 	{
; 286  : 		*f++ = *p++;

	mov	rax, QWORD PTR f$[rsp]
	mov	rcx, QWORD PTR p$[rsp]
	movzx	ecx, BYTE PTR [rcx]
	mov	BYTE PTR [rax], cl
	mov	rax, QWORD PTR f$[rsp]
	inc	rax
	mov	QWORD PTR f$[rsp], rax
	mov	rax, QWORD PTR p$[rsp]
	inc	rax
	mov	QWORD PTR p$[rsp], rax

; 287  : 		i--;

	mov	eax, DWORD PTR i$[rsp]
	dec	eax
	mov	DWORD PTR i$[rsp], eax

; 288  : 	}

	jmp	SHORT $LN3@convert_fa
$LN2@convert_fa:

; 289  : 
; 290  : 	if (i == 3)

	cmp	DWORD PTR i$[rsp], 3
	jne	SHORT $LN1@convert_fa

; 291  : 		f--;

	mov	rax, QWORD PTR f$[rsp]
	dec	rax
	mov	QWORD PTR f$[rsp], rax
$LN1@convert_fa:

; 292  : 
; 293  : 	*f++ = '\0';

	mov	rax, QWORD PTR f$[rsp]
	mov	BYTE PTR [rax], 0
	mov	rax, QWORD PTR f$[rsp]
	inc	rax
	mov	QWORD PTR f$[rsp], rax

; 294  : }

	add	rsp, 40					; 00000028H
	ret	0
?convert_fat83_32@@YAXPEAU_fat32_dir_@@PEAD@Z ENDP	; convert_fat83_32
_TEXT	ENDS
; Function compile flags: /Odtp
; File e:\xeneva project\xeneva\aurora\aurora\fs\fat32.cpp
_TEXT	SEGMENT
i$1 = 32
pkDir$2 = 40
buf$3 = 48
file$ = 56
name$4 = 120
dos_file_name$ = 136
$T5 = 192
kfile$ = 200
filename$ = 208
?fat32_locate_subdir@@YA?AU_file_@@U1@PEBD@Z PROC	; fat32_locate_subdir

; 207  : FILE fat32_locate_subdir (FILE kfile, const char* filename) {

$LN12:
	mov	QWORD PTR [rsp+24], r8
	mov	QWORD PTR [rsp+16], rdx
	mov	QWORD PTR [rsp+8], rcx
	push	rsi
	push	rdi
	sub	rsp, 168				; 000000a8H

; 208  : 
; 209  : 	FILE file;
; 210  : 
; 211  : 	char dos_file_name[11];
; 212  : 	to_dos_file_name32 (filename, dos_file_name, 11);

	mov	r8d, 11
	lea	rdx, QWORD PTR dos_file_name$[rsp]
	mov	rcx, QWORD PTR filename$[rsp]
	call	?to_dos_file_name32@@YAXPEBDPEADI@Z	; to_dos_file_name32

; 213  : 	//dos_file_name[11] = 0;
; 214  : 
; 215  : 	if (kfile.flags != FILE_FLAG_INVALID) {

	mov	rax, QWORD PTR kfile$[rsp]
	cmp	DWORD PTR [rax+52], 3
	je	$LN9@fat32_loca
$LN8@fat32_loca:

; 216  : 		
; 217  : 		//! read the directory
; 218  : 		while (!kfile.eof) {

	mov	rax, QWORD PTR kfile$[rsp]
	cmp	DWORD PTR [rax+40], 0
	jne	$LN7@fat32_loca

; 219  : 
; 220  : 			//! read 
; 221  : 			unsigned char* buf = (unsigned char*)pmmngr_alloc();

	call	?pmmngr_alloc@@YAPEAXXZ			; pmmngr_alloc
	mov	QWORD PTR buf$3[rsp], rax

; 222  : 			fat32_read (&kfile, buf);

	mov	rdx, QWORD PTR buf$3[rsp]
	mov	rcx, QWORD PTR kfile$[rsp]
	call	?fat32_read@@YAXPEAU_file_@@PEAE@Z	; fat32_read

; 223  : 			//! set directory
; 224  : 			fat32_dir* pkDir = (fat32_dir*)buf;

	mov	rax, QWORD PTR buf$3[rsp]
	mov	QWORD PTR pkDir$2[rsp], rax

; 225  : 
; 226  : 			//! 16 entries
; 227  : 			for (unsigned int i = 0; i < 16; i++) {

	mov	DWORD PTR i$1[rsp], 0
	jmp	SHORT $LN6@fat32_loca
$LN5@fat32_loca:
	mov	eax, DWORD PTR i$1[rsp]
	inc	eax
	mov	DWORD PTR i$1[rsp], eax
$LN6@fat32_loca:
	cmp	DWORD PTR i$1[rsp], 16
	jae	$LN4@fat32_loca

; 228  : 
; 229  : 				//! get current filename;
; 230  : 				char name[11];
; 231  : 				memcpy (name, pkDir->filename, 11);

	mov	rax, QWORD PTR pkDir$2[rsp]
	mov	r8d, 11
	mov	rdx, rax
	lea	rcx, QWORD PTR name$4[rsp]
	call	memcpy

; 232  : 				//name[11] = 0;
; 233  : 
; 234  : 				if (strcmp (name, dos_file_name) == 0) {

	lea	rdx, QWORD PTR dos_file_name$[rsp]
	lea	rcx, QWORD PTR name$4[rsp]
	call	?strcmp@@YAHPEBD0@Z			; strcmp
	test	eax, eax
	jne	$LN3@fat32_loca

; 235  : 
; 236  : 					//! found file
; 237  : 					strcpy (file.filename, filename);

	mov	rdx, QWORD PTR filename$[rsp]
	lea	rcx, QWORD PTR file$[rsp]
	call	?strcpy@@YAPEADPEADPEBD@Z		; strcpy

; 238  : 					file.id = 0;

	mov	DWORD PTR file$[rsp+32], 0

; 239  : 					file.start_cluster = pkDir->first_cluster;

	mov	rax, QWORD PTR pkDir$2[rsp]
	movzx	eax, WORD PTR [rax+26]
	mov	DWORD PTR file$[rsp+48], eax

; 240  : 					file.size = pkDir->file_size;

	mov	rax, QWORD PTR pkDir$2[rsp]
	mov	eax, DWORD PTR [rax+28]
	mov	DWORD PTR file$[rsp+36], eax

; 241  : 					file.eof = 0;

	mov	DWORD PTR file$[rsp+40], 0

; 242  : 					file.status = FILE_STATUS_FOUND;

	mov	DWORD PTR file$[rsp+56], 1

; 243  : 					//! set file type
; 244  : 					if (pkDir->attrib == 0x10)

	mov	rax, QWORD PTR pkDir$2[rsp]
	movzx	eax, BYTE PTR [rax+11]
	cmp	eax, 16
	jne	SHORT $LN2@fat32_loca

; 245  : 						file.flags = FILE_FLAG_DIRECTORY;

	mov	DWORD PTR file$[rsp+52], 1

; 246  : 					else

	jmp	SHORT $LN1@fat32_loca
$LN2@fat32_loca:

; 247  : 						file.flags = FILE_FLAG_GENERAL;

	mov	DWORD PTR file$[rsp+52], 2
$LN1@fat32_loca:

; 248  : 
; 249  : 					//!return file
; 250  : 					return file;

	lea	rax, QWORD PTR file$[rsp]
	mov	rdi, QWORD PTR $T5[rsp]
	mov	rsi, rax
	mov	ecx, 60					; 0000003cH
	rep movsb
	mov	rax, QWORD PTR $T5[rsp]
	jmp	SHORT $LN10@fat32_loca
$LN3@fat32_loca:

; 251  : 				}
; 252  : 
; 253  : 				//! go to next entry
; 254  : 				pkDir++;

	mov	rax, QWORD PTR pkDir$2[rsp]
	add	rax, 32					; 00000020H
	mov	QWORD PTR pkDir$2[rsp], rax

; 255  : 			}

	jmp	$LN5@fat32_loca
$LN4@fat32_loca:

; 256  : 
; 257  : 			//pmmngr_free (buf);
; 258  : 		}

	jmp	$LN8@fat32_loca
$LN7@fat32_loca:
$LN9@fat32_loca:

; 259  : 	}
; 260  : 
; 261  : 	file.flags = FILE_FLAG_INVALID;

	mov	DWORD PTR file$[rsp+52], 3

; 262  : 	return file;

	lea	rax, QWORD PTR file$[rsp]
	mov	rdi, QWORD PTR $T5[rsp]
	mov	rsi, rax
	mov	ecx, 60					; 0000003cH
	rep movsb
	mov	rax, QWORD PTR $T5[rsp]
$LN10@fat32_loca:

; 263  : }

	add	rsp, 168				; 000000a8H
	pop	rdi
	pop	rsi
	ret	0
?fat32_locate_subdir@@YA?AU_file_@@U1@PEBD@Z ENDP	; fat32_locate_subdir
_TEXT	ENDS
; Function compile flags: /Odtp
; File e:\xeneva project\xeneva\aurora\aurora\fs\fat32.cpp
_TEXT	SEGMENT
fat_offset$ = 32
value$ = 36
fat_sector$ = 40
ent_offset$ = 48
buf$ = 64
cluster_index$ = 592
?fat32_read_fat@@YAII@Z PROC				; fat32_read_fat

; 106  : uint32_t fat32_read_fat (uint32_t cluster_index) {

$LN3:
	mov	DWORD PTR [rsp+8], ecx
	sub	rsp, 584				; 00000248H

; 107  : 	auto fat_offset = cluster_index * 4;

	mov	eax, DWORD PTR cluster_index$[rsp]
	shl	eax, 2
	mov	DWORD PTR fat_offset$[rsp], eax

; 108  : 	uint64_t fat_sector = fat_begin_lba + (fat_offset / 512);

	xor	edx, edx
	mov	eax, DWORD PTR fat_offset$[rsp]
	mov	ecx, 512				; 00000200H
	div	ecx
	mov	ecx, DWORD PTR ?fat_begin_lba@@3KA	; fat_begin_lba
	add	ecx, eax
	mov	eax, ecx
	mov	eax, eax
	mov	QWORD PTR fat_sector$[rsp], rax

; 109  : 	size_t ent_offset = fat_offset  % 512;

	xor	edx, edx
	mov	eax, DWORD PTR fat_offset$[rsp]
	mov	ecx, 512				; 00000200H
	div	ecx
	mov	eax, edx
	mov	eax, eax
	mov	QWORD PTR ent_offset$[rsp], rax

; 110  : 	unsigned char buf[512];
; 111  : 	ata_read_28 (fat_sector,1,buf);

	lea	r8, QWORD PTR buf$[rsp]
	mov	dx, 1
	mov	ecx, DWORD PTR fat_sector$[rsp]
	call	?ata_read_28@@YAEIGPEAE@Z		; ata_read_28

; 112  : 	uint32_t value = *(uint32_t*) &buf[ent_offset];

	mov	rax, QWORD PTR ent_offset$[rsp]
	mov	eax, DWORD PTR buf$[rsp+rax]
	mov	DWORD PTR value$[rsp], eax

; 113  : 	return value & 0x0FFFFFFF;

	mov	eax, DWORD PTR value$[rsp]
	and	eax, 268435455				; 0fffffffH

; 114  : }

	add	rsp, 584				; 00000248H
	ret	0
?fat32_read_fat@@YAII@Z ENDP				; fat32_read_fat
_TEXT	ENDS
; Function compile flags: /Odtp
; File e:\xeneva project\xeneva\aurora\aurora\fs\fat32.cpp
_TEXT	SEGMENT
i$ = 32
k$1 = 36
tv132 = 40
tv179 = 44
tv71 = 48
filename$ = 80
fname$ = 88
fname_length$ = 96
?to_dos_file_name32@@YAXPEBDPEADI@Z PROC		; to_dos_file_name32

; 36   : {

$LN23:
	mov	DWORD PTR [rsp+24], r8d
	mov	QWORD PTR [rsp+16], rdx
	mov	QWORD PTR [rsp+8], rcx
	sub	rsp, 72					; 00000048H

; 37   : 	unsigned int i=0;

	mov	DWORD PTR i$[rsp], 0

; 38   : 
; 39   : 	if (fname_length > 11)

	cmp	DWORD PTR fname_length$[rsp], 11
	jbe	SHORT $LN16@to_dos_fil

; 40   : 		return;

	jmp	$LN17@to_dos_fil
$LN16@to_dos_fil:

; 41   : 
; 42   : 	if (!fname || !filename)

	cmp	QWORD PTR fname$[rsp], 0
	je	SHORT $LN14@to_dos_fil
	cmp	QWORD PTR filename$[rsp], 0
	jne	SHORT $LN15@to_dos_fil
$LN14@to_dos_fil:

; 43   : 		return;

	jmp	$LN17@to_dos_fil
$LN15@to_dos_fil:

; 44   : 
; 45   : 	memset (fname, ' ', fname_length);

	mov	r8d, DWORD PTR fname_length$[rsp]
	mov	dl, 32					; 00000020H
	mov	rcx, QWORD PTR fname$[rsp]
	call	?memset@@YAXPEAXEI@Z			; memset

; 46   : 
; 47   : 	for (i=0; i < strlen (filename)-1 && i < fname_length; i++)

	mov	DWORD PTR i$[rsp], 0
	jmp	SHORT $LN13@to_dos_fil
$LN12@to_dos_fil:
	mov	eax, DWORD PTR i$[rsp]
	inc	eax
	mov	DWORD PTR i$[rsp], eax
$LN13@to_dos_fil:
	mov	eax, DWORD PTR i$[rsp]
	mov	QWORD PTR tv71[rsp], rax
	mov	rcx, QWORD PTR filename$[rsp]
	call	?strlen@@YA_KPEBD@Z			; strlen
	dec	rax
	mov	rcx, QWORD PTR tv71[rsp]
	cmp	rcx, rax
	jae	$LN11@to_dos_fil
	mov	eax, DWORD PTR fname_length$[rsp]
	cmp	DWORD PTR i$[rsp], eax
	jae	SHORT $LN11@to_dos_fil

; 48   : 	{
; 49   : 		if (filename[i] == '.' || i==8)

	mov	eax, DWORD PTR i$[rsp]
	mov	rcx, QWORD PTR filename$[rsp]
	movsx	eax, BYTE PTR [rcx+rax]
	cmp	eax, 46					; 0000002eH
	je	SHORT $LN9@to_dos_fil
	cmp	DWORD PTR i$[rsp], 8
	jne	SHORT $LN10@to_dos_fil
$LN9@to_dos_fil:

; 50   : 			break;

	jmp	SHORT $LN11@to_dos_fil
$LN10@to_dos_fil:

; 51   : 
; 52   : 		fname[i] = toupper (filename[i]);

	mov	eax, DWORD PTR i$[rsp]
	mov	rcx, QWORD PTR filename$[rsp]
	movsx	eax, BYTE PTR [rcx+rax]
	cmp	eax, 97					; 00000061H
	jl	SHORT $LN19@to_dos_fil
	mov	eax, DWORD PTR i$[rsp]
	mov	rcx, QWORD PTR filename$[rsp]
	movsx	eax, BYTE PTR [rcx+rax]
	cmp	eax, 122				; 0000007aH
	jg	SHORT $LN19@to_dos_fil
	mov	DWORD PTR tv132[rsp], 1
	jmp	SHORT $LN20@to_dos_fil
$LN19@to_dos_fil:
	mov	DWORD PTR tv132[rsp], 0
$LN20@to_dos_fil:
	mov	eax, DWORD PTR i$[rsp]
	mov	rcx, QWORD PTR filename$[rsp]
	movsx	eax, BYTE PTR [rcx+rax]
	mov	ecx, DWORD PTR tv132[rsp]
	imul	ecx, 32					; 00000020H
	sub	eax, ecx
	mov	ecx, DWORD PTR i$[rsp]
	mov	rdx, QWORD PTR fname$[rsp]
	mov	BYTE PTR [rdx+rcx], al

; 53   : 	}

	jmp	$LN12@to_dos_fil
$LN11@to_dos_fil:

; 54   : 
; 55   : 	if (filename[i] =='.')

	mov	eax, DWORD PTR i$[rsp]
	mov	rcx, QWORD PTR filename$[rsp]
	movsx	eax, BYTE PTR [rcx+rax]
	cmp	eax, 46					; 0000002eH
	jne	SHORT $LN8@to_dos_fil

; 56   : 	{
; 57   : 		for (int k=0; k < 3; k++)

	mov	DWORD PTR k$1[rsp], 0
	jmp	SHORT $LN7@to_dos_fil
$LN6@to_dos_fil:
	mov	eax, DWORD PTR k$1[rsp]
	inc	eax
	mov	DWORD PTR k$1[rsp], eax
$LN7@to_dos_fil:
	cmp	DWORD PTR k$1[rsp], 3
	jge	SHORT $LN5@to_dos_fil

; 58   : 		{
; 59   : 			 ++i;

	mov	eax, DWORD PTR i$[rsp]
	inc	eax
	mov	DWORD PTR i$[rsp], eax

; 60   : 			 if (filename[i])

	mov	eax, DWORD PTR i$[rsp]
	mov	rcx, QWORD PTR filename$[rsp]
	movsx	eax, BYTE PTR [rcx+rax]
	test	eax, eax
	je	SHORT $LN4@to_dos_fil

; 61   : 				 fname[8+k] = filename[i];

	mov	eax, DWORD PTR i$[rsp]
	mov	ecx, DWORD PTR k$1[rsp]
	add	ecx, 8
	movsxd	rcx, ecx
	mov	rdx, QWORD PTR fname$[rsp]
	mov	r8, QWORD PTR filename$[rsp]
	movzx	eax, BYTE PTR [r8+rax]
	mov	BYTE PTR [rdx+rcx], al
$LN4@to_dos_fil:

; 62   : 		}

	jmp	SHORT $LN6@to_dos_fil
$LN5@to_dos_fil:
$LN8@to_dos_fil:

; 63   : 	}
; 64   : 
; 65   : 	for (i = 0; i < 3; i++)

	mov	DWORD PTR i$[rsp], 0
	jmp	SHORT $LN3@to_dos_fil
$LN2@to_dos_fil:
	mov	eax, DWORD PTR i$[rsp]
	inc	eax
	mov	DWORD PTR i$[rsp], eax
$LN3@to_dos_fil:
	cmp	DWORD PTR i$[rsp], 3
	jae	SHORT $LN1@to_dos_fil

; 66   : 		fname[8+i] = toupper (fname[8+i]);

	mov	eax, DWORD PTR i$[rsp]
	add	eax, 8
	mov	eax, eax
	mov	rcx, QWORD PTR fname$[rsp]
	movsx	eax, BYTE PTR [rcx+rax]
	cmp	eax, 97					; 00000061H
	jl	SHORT $LN21@to_dos_fil
	mov	eax, DWORD PTR i$[rsp]
	add	eax, 8
	mov	eax, eax
	mov	rcx, QWORD PTR fname$[rsp]
	movsx	eax, BYTE PTR [rcx+rax]
	cmp	eax, 122				; 0000007aH
	jg	SHORT $LN21@to_dos_fil
	mov	DWORD PTR tv179[rsp], 1
	jmp	SHORT $LN22@to_dos_fil
$LN21@to_dos_fil:
	mov	DWORD PTR tv179[rsp], 0
$LN22@to_dos_fil:
	mov	eax, DWORD PTR i$[rsp]
	add	eax, 8
	mov	eax, eax
	mov	rcx, QWORD PTR fname$[rsp]
	movsx	eax, BYTE PTR [rcx+rax]
	mov	ecx, DWORD PTR tv179[rsp]
	imul	ecx, 32					; 00000020H
	sub	eax, ecx
	mov	ecx, DWORD PTR i$[rsp]
	add	ecx, 8
	mov	ecx, ecx
	mov	rdx, QWORD PTR fname$[rsp]
	mov	BYTE PTR [rdx+rcx], al
	jmp	SHORT $LN2@to_dos_fil
$LN1@to_dos_fil:
$LN17@to_dos_fil:

; 67   : }

	add	rsp, 72					; 00000048H
	ret	0
?to_dos_file_name32@@YAXPEBDPEADI@Z ENDP		; to_dos_file_name32
_TEXT	ENDS
; Function compile flags: /Odtp
; File e:\xeneva project\xeneva\aurora\aurora\fs\fat32.cpp
_TEXT	SEGMENT
cluster$ = 8
?cluster_to_sector32@@YA_K_K@Z PROC			; cluster_to_sector32

; 28   : {

	mov	QWORD PTR [rsp+8], rcx

; 29   : 	return cluster_begin_lba + (cluster - 2) * sectors_per_cluster ;

	mov	eax, DWORD PTR ?cluster_begin_lba@@3KA	; cluster_begin_lba
	mov	rcx, QWORD PTR cluster$[rsp]
	sub	rcx, 2
	movzx	edx, BYTE PTR ?sectors_per_cluster@@3EA	; sectors_per_cluster
	imul	rcx, rdx
	add	rax, rcx

; 30   : }

	ret	0
?cluster_to_sector32@@YA_K_K@Z ENDP			; cluster_to_sector32
_TEXT	ENDS
; Function compile flags: /Odtp
; File e:\xeneva project\xeneva\aurora\aurora\fs\fat32.cpp
_TEXT	SEGMENT
sector$1 = 32
i$2 = 36
dirent$ = 40
buf$ = 48
file$ = 56
dos_file_name$ = 120
name$3 = 136
$T4 = 192
dir$ = 200
?fat32_locate_dir@@YA?AU_file_@@PEBD@Z PROC		; fat32_locate_dir

; 157  : FILE fat32_locate_dir (const char* dir) {

$LN12:
	mov	QWORD PTR [rsp+16], rdx
	mov	QWORD PTR [rsp+8], rcx
	push	rsi
	push	rdi
	sub	rsp, 168				; 000000a8H

; 158  :     
; 159  : 	FILE file;
; 160  : 	unsigned char* buf;
; 161  : 	fat32_dir *dirent;
; 162  : 
; 163  : 	char dos_file_name[11];
; 164  : 	to_dos_file_name32 (dir, dos_file_name, 11);

	mov	r8d, 11
	lea	rdx, QWORD PTR dos_file_name$[rsp]
	mov	rcx, QWORD PTR dir$[rsp]
	call	?to_dos_file_name32@@YAXPEBDPEADI@Z	; to_dos_file_name32

; 165  : 	//dos_file_name[11]=0;
; 166  : 
; 167  : 	for (unsigned int sector = 0; sector < 14; sector++) {

	mov	DWORD PTR sector$1[rsp], 0
	jmp	SHORT $LN9@fat32_loca
$LN8@fat32_loca:
	mov	eax, DWORD PTR sector$1[rsp]
	inc	eax
	mov	DWORD PTR sector$1[rsp], eax
$LN9@fat32_loca:
	cmp	DWORD PTR sector$1[rsp], 14
	jae	$LN7@fat32_loca

; 168  : 		buf = (unsigned char*)pmmngr_alloc ();

	call	?pmmngr_alloc@@YAPEAXXZ			; pmmngr_alloc
	mov	QWORD PTR buf$[rsp], rax

; 169  : 		ata_read_28 (root_sector + sector,1, buf);

	mov	eax, DWORD PTR sector$1[rsp]
	mov	ecx, DWORD PTR ?root_sector@@3KA	; root_sector
	add	ecx, eax
	mov	eax, ecx
	mov	r8, QWORD PTR buf$[rsp]
	mov	dx, 1
	mov	ecx, eax
	call	?ata_read_28@@YAEIGPEAE@Z		; ata_read_28

; 170  : 		dirent = (fat32_dir*)buf;

	mov	rax, QWORD PTR buf$[rsp]
	mov	QWORD PTR dirent$[rsp], rax

; 171  : 		for (int i=0; i < 16; i++) {

	mov	DWORD PTR i$2[rsp], 0
	jmp	SHORT $LN6@fat32_loca
$LN5@fat32_loca:
	mov	eax, DWORD PTR i$2[rsp]
	inc	eax
	mov	DWORD PTR i$2[rsp], eax
$LN6@fat32_loca:
	cmp	DWORD PTR i$2[rsp], 16
	jge	$LN4@fat32_loca

; 172  : 			
; 173  : 			char name[11];
; 174  : 			memcpy (name, dirent->filename, 11);

	mov	rax, QWORD PTR dirent$[rsp]
	mov	r8d, 11
	mov	rdx, rax
	lea	rcx, QWORD PTR name$3[rsp]
	call	memcpy

; 175  : 			//name[11] = 0;
; 176  : 
; 177  : 			if (strcmp (dos_file_name, name) == 0) {

	lea	rdx, QWORD PTR name$3[rsp]
	lea	rcx, QWORD PTR dos_file_name$[rsp]
	call	?strcmp@@YAHPEBD0@Z			; strcmp
	test	eax, eax
	jne	$LN3@fat32_loca

; 178  : 				//kprintf ("File found\n");
; 179  : 				strcpy (file.filename, dir);

	mov	rdx, QWORD PTR dir$[rsp]
	lea	rcx, QWORD PTR file$[rsp]
	call	?strcpy@@YAPEADPEADPEBD@Z		; strcpy

; 180  : 				file.id = 0;

	mov	DWORD PTR file$[rsp+32], 0

; 181  : 				file.start_cluster = dirent->first_cluster;

	mov	rax, QWORD PTR dirent$[rsp]
	movzx	eax, WORD PTR [rax+26]
	mov	DWORD PTR file$[rsp+48], eax

; 182  : 				file.size = dirent->file_size;

	mov	rax, QWORD PTR dirent$[rsp]
	mov	eax, DWORD PTR [rax+28]
	mov	DWORD PTR file$[rsp+36], eax

; 183  : 				file.eof = 0;

	mov	DWORD PTR file$[rsp+40], 0

; 184  : 				file.status = FILE_STATUS_FOUND;

	mov	DWORD PTR file$[rsp+56], 1

; 185  : 
; 186  : 				if (dirent->attrib == 0x10)

	mov	rax, QWORD PTR dirent$[rsp]
	movzx	eax, BYTE PTR [rax+11]
	cmp	eax, 16
	jne	SHORT $LN2@fat32_loca

; 187  : 					file.flags = FILE_FLAG_DIRECTORY;

	mov	DWORD PTR file$[rsp+52], 1

; 188  : 				else

	jmp	SHORT $LN1@fat32_loca
$LN2@fat32_loca:

; 189  : 					file.flags = FILE_FLAG_GENERAL;

	mov	DWORD PTR file$[rsp+52], 2
$LN1@fat32_loca:

; 190  : 				
; 191  : 				pmmngr_free(buf);

	mov	rcx, QWORD PTR buf$[rsp]
	call	?pmmngr_free@@YAXPEAX@Z			; pmmngr_free

; 192  : 				return file;

	lea	rax, QWORD PTR file$[rsp]
	mov	rdi, QWORD PTR $T4[rsp]
	mov	rsi, rax
	mov	ecx, 60					; 0000003cH
	rep movsb
	mov	rax, QWORD PTR $T4[rsp]
	jmp	SHORT $LN10@fat32_loca
$LN3@fat32_loca:

; 193  : 			}
; 194  : 			dirent++;

	mov	rax, QWORD PTR dirent$[rsp]
	add	rax, 32					; 00000020H
	mov	QWORD PTR dirent$[rsp], rax

; 195  : 		}

	jmp	$LN5@fat32_loca
$LN4@fat32_loca:

; 196  : 		pmmngr_free(buf);		

	mov	rcx, QWORD PTR buf$[rsp]
	call	?pmmngr_free@@YAXPEAX@Z			; pmmngr_free

; 197  : 	}

	jmp	$LN8@fat32_loca
$LN7@fat32_loca:

; 198  : 
; 199  : 	file.status = FILE_FLAG_INVALID;

	mov	DWORD PTR file$[rsp+56], 3

; 200  : 	file.id = 0;

	mov	DWORD PTR file$[rsp+32], 0

; 201  : 	file.size = 0;

	mov	DWORD PTR file$[rsp+36], 0

; 202  : 	file.eof = 0;

	mov	DWORD PTR file$[rsp+40], 0

; 203  : 	return file;

	lea	rax, QWORD PTR file$[rsp]
	mov	rdi, QWORD PTR $T4[rsp]
	mov	rsi, rax
	mov	ecx, 60					; 0000003cH
	rep movsb
	mov	rax, QWORD PTR $T4[rsp]
$LN10@fat32_loca:

; 204  : }

	add	rsp, 168				; 000000a8H
	pop	rdi
	pop	rsi
	ret	0
?fat32_locate_dir@@YA?AU_file_@@PEBD@Z ENDP		; fat32_locate_dir
_TEXT	ENDS
; Function compile flags: /Odtp
; File e:\xeneva project\xeneva\aurora\aurora\fs\fat32.cpp
_TEXT	SEGMENT
i$1 = 32
value$ = 36
lba$ = 40
file$ = 64
buf$ = 72
?fat32_read@@YAXPEAU_file_@@PEAE@Z PROC			; fat32_read

; 116  : void fat32_read (FILE *file, unsigned char* buf) {

$LN8:
	mov	QWORD PTR [rsp+16], rdx
	mov	QWORD PTR [rsp+8], rcx
	sub	rsp, 56					; 00000038H

; 117  : 
; 118  : 	auto lba = cluster_to_sector32 (file->start_cluster); 

	mov	rax, QWORD PTR file$[rsp]
	mov	eax, DWORD PTR [rax+48]
	mov	ecx, eax
	call	?cluster_to_sector32@@YA_K_K@Z		; cluster_to_sector32
	mov	QWORD PTR lba$[rsp], rax

; 119  : 	/*ata_read_28 (lba, 1, buf);
; 120  : 	ata_read_28 (lba + 1, 1, buf + 512);
; 121  : 	ata_read_28 (lba + 2, 1, buf + 512 + 512);
; 122  : 	ata_read_28 (lba + 3, 1, buf + 512 + 512 + 512);
; 123  : 	ata_read_28 (lba + 4, 1, buf + 512 + 512 + 512 + 512);
; 124  : 	ata_read_28 (lba + 5, 1, buf + 512 + 512 + 512 + 512 + 512);
; 125  : 	ata_read_28 (lba + 6, 1, buf + 512 + 512 + 512 + 512 + 512 + 512);
; 126  : 	ata_read_28 (lba + 7, 1, buf + 512 + 512 + 512 + 512 + 512 + 512 + 512);*/
; 127  : 	for (int i = 0; i < 8; i++) {

	mov	DWORD PTR i$1[rsp], 0
	jmp	SHORT $LN5@fat32_read
$LN4@fat32_read:
	mov	eax, DWORD PTR i$1[rsp]
	inc	eax
	mov	DWORD PTR i$1[rsp], eax
$LN5@fat32_read:
	cmp	DWORD PTR i$1[rsp], 8
	jge	SHORT $LN3@fat32_read

; 128  : 		ata_read_28 (lba+i,1,buf);

	movsxd	rax, DWORD PTR i$1[rsp]
	mov	rcx, QWORD PTR lba$[rsp]
	add	rcx, rax
	mov	rax, rcx
	mov	r8, QWORD PTR buf$[rsp]
	mov	dx, 1
	mov	ecx, eax
	call	?ata_read_28@@YAEIGPEAE@Z		; ata_read_28

; 129  : 		buf += 512;

	mov	rax, QWORD PTR buf$[rsp]
	add	rax, 512				; 00000200H
	mov	QWORD PTR buf$[rsp], rax

; 130  : 	}

	jmp	SHORT $LN4@fat32_read
$LN3@fat32_read:

; 131  : 
; 132  : 	//kprintf("Current cluster -> %x\n",file->start_cluster);
; 133  :     uint32_t value = fat32_read_fat (file->start_cluster);

	mov	rax, QWORD PTR file$[rsp]
	mov	ecx, DWORD PTR [rax+48]
	call	?fat32_read_fat@@YAII@Z			; fat32_read_fat
	mov	DWORD PTR value$[rsp], eax

; 134  : 	if (value  >= 0x0FFFFFF8) {

	cmp	DWORD PTR value$[rsp], 268435448	; 0ffffff8H
	jb	SHORT $LN2@fat32_read

; 135  : 	    file->eof = 1;

	mov	rax, QWORD PTR file$[rsp]
	mov	DWORD PTR [rax+40], 1
$LN2@fat32_read:

; 136  : 	}
; 137  : 
; 138  : 	if (value  == 0x0FFFFFF7) {

	cmp	DWORD PTR value$[rsp], 268435447	; 0ffffff7H
	jne	SHORT $LN1@fat32_read

; 139  : 	    file->eof = 1;

	mov	rax, QWORD PTR file$[rsp]
	mov	DWORD PTR [rax+40], 1
$LN1@fat32_read:

; 140  : 	}
; 141  : 
; 142  : 
; 143  : 	file->start_cluster = value;

	mov	rax, QWORD PTR file$[rsp]
	mov	ecx, DWORD PTR value$[rsp]
	mov	DWORD PTR [rax+48], ecx

; 144  : }

	add	rsp, 56					; 00000038H
	ret	0
?fat32_read@@YAXPEAU_file_@@PEAE@Z ENDP			; fat32_read
_TEXT	ENDS
; Function compile flags: /Odtp
; File e:\xeneva project\xeneva\aurora\aurora\fs\fat32.cpp
_TEXT	SEGMENT
i$1 = 32
file$ = 64
buf$ = 72
count$ = 80
?fat32_read_file@@YAXPEAU_file_@@PEAEH@Z PROC		; fat32_read_file

; 147  : void fat32_read_file (FILE *file, unsigned char* buf, int count) {

$LN7:
	mov	DWORD PTR [rsp+24], r8d
	mov	QWORD PTR [rsp+16], rdx
	mov	QWORD PTR [rsp+8], rcx
	sub	rsp, 56					; 00000038H

; 148  : 	for (int i=0; i < count; i+= 8) {

	mov	DWORD PTR i$1[rsp], 0
	jmp	SHORT $LN4@fat32_read
$LN3@fat32_read:
	mov	eax, DWORD PTR i$1[rsp]
	add	eax, 8
	mov	DWORD PTR i$1[rsp], eax
$LN4@fat32_read:
	mov	eax, DWORD PTR count$[rsp]
	cmp	DWORD PTR i$1[rsp], eax
	jge	SHORT $LN2@fat32_read

; 149  : 		fat32_read(file,buf);

	mov	rdx, QWORD PTR buf$[rsp]
	mov	rcx, QWORD PTR file$[rsp]
	call	?fat32_read@@YAXPEAU_file_@@PEAE@Z	; fat32_read

; 150  : 		if(file->eof) {

	mov	rax, QWORD PTR file$[rsp]
	cmp	DWORD PTR [rax+40], 0
	je	SHORT $LN1@fat32_read

; 151  : 			break;

	jmp	SHORT $LN2@fat32_read
$LN1@fat32_read:

; 152  : 		}
; 153  : 		buf += 4096;

	mov	rax, QWORD PTR buf$[rsp]
	add	rax, 4096				; 00001000H
	mov	QWORD PTR buf$[rsp], rax

; 154  : 	}

	jmp	SHORT $LN3@fat32_read
$LN2@fat32_read:

; 155  : }

	add	rsp, 56					; 00000038H
	ret	0
?fat32_read_file@@YAXPEAU_file_@@PEAEH@Z ENDP		; fat32_read_file
_TEXT	ENDS
; Function compile flags: /Odtp
; File e:\xeneva project\xeneva\aurora\aurora\fs\fat32.cpp
_TEXT	SEGMENT
root_dir$ = 32
i$1 = 36
p$ = 40
path$ = 48
pathname$2 = 56
cur_dir$ = 72
ret$3 = 136
$T4 = 200
ret$ = 264
$T5 = 328
$T6 = 388
$T7 = 448
$T8 = 512
$T9 = 576
$T10 = 640
$T11 = 736
filename$ = 744
?fat32_open@@YA?AU_file_@@PEBD@Z PROC			; fat32_open

; 323  : FILE fat32_open (const char* filename) {

$LN17:
	mov	QWORD PTR [rsp+16], rdx
	mov	QWORD PTR [rsp+8], rcx
	push	rsi
	push	rdi
	sub	rsp, 712				; 000002c8H

; 324  : 
; 325  : 	FILE cur_dir;
; 326  : 	char* p = 0;

	mov	QWORD PTR p$[rsp], 0

; 327  : 	bool  root_dir = true;

	mov	BYTE PTR root_dir$[rsp], 1

; 328  : 	char* path = (char*) filename;

	mov	rax, QWORD PTR filename$[rsp]
	mov	QWORD PTR path$[rsp], rax

; 329  : 
; 330  : 	//! any '\'s in path ?
; 331  : 	p = strchr (path, '\\');

	mov	edx, 92					; 0000005cH
	mov	rcx, QWORD PTR path$[rsp]
	call	?strchr@@YAPEADPEADH@Z			; strchr
	mov	QWORD PTR p$[rsp], rax

; 332  : 	if (!p) {

	cmp	QWORD PTR p$[rsp], 0
	jne	$LN14@fat32_open

; 333  : 
; 334  : 		//! nope, must be in root directory, search it
; 335  : 		cur_dir = fat32_locate_dir (path);

	mov	rdx, QWORD PTR path$[rsp]
	lea	rcx, QWORD PTR $T8[rsp]
	call	?fat32_locate_dir@@YA?AU_file_@@PEBD@Z	; fat32_locate_dir
	lea	rcx, QWORD PTR $T6[rsp]
	mov	rdi, rcx
	mov	rsi, rax
	mov	ecx, 60					; 0000003cH
	rep movsb
	lea	rax, QWORD PTR cur_dir$[rsp]
	lea	rcx, QWORD PTR $T6[rsp]
	mov	rdi, rax
	mov	rsi, rcx
	mov	ecx, 60					; 0000003cH
	rep movsb

; 336  : 
; 337  : 		//! found file ?
; 338  : 		if (cur_dir.flags == FILE_FLAG_GENERAL)

	cmp	DWORD PTR cur_dir$[rsp+52], 2
	jne	SHORT $LN13@fat32_open

; 339  : 			return cur_dir;

	lea	rax, QWORD PTR cur_dir$[rsp]
	mov	rdi, QWORD PTR $T11[rsp]
	mov	rsi, rax
	mov	ecx, 60					; 0000003cH
	rep movsb
	mov	rax, QWORD PTR $T11[rsp]
	jmp	$LN15@fat32_open
$LN13@fat32_open:

; 340  : 
; 341  : 		//! unable to find
; 342  : 		FILE ret;
; 343  : 		ret.flags = FILE_FLAG_INVALID;

	mov	DWORD PTR ret$3[rsp+52], 3

; 344  : 		return ret;

	lea	rax, QWORD PTR ret$3[rsp]
	mov	rdi, QWORD PTR $T11[rsp]
	mov	rsi, rax
	mov	ecx, 60					; 0000003cH
	rep movsb
	mov	rax, QWORD PTR $T11[rsp]
	jmp	$LN15@fat32_open
$LN14@fat32_open:

; 345  : 	}
; 346  : 
; 347  : 	//! go to next character after first '\'
; 348  : 	p++;

	mov	rax, QWORD PTR p$[rsp]
	inc	rax
	mov	QWORD PTR p$[rsp], rax
$LN12@fat32_open:

; 349  : 
; 350  : 	while (p) {

	cmp	QWORD PTR p$[rsp], 0
	je	$LN11@fat32_open

; 351  : 
; 352  : 		//! get pathname
; 353  : 		char pathname[16];
; 354  : 		int i=0;

	mov	DWORD PTR i$1[rsp], 0

; 355  : 		for (i=0; i < 16; i++) {

	mov	DWORD PTR i$1[rsp], 0
	jmp	SHORT $LN10@fat32_open
$LN9@fat32_open:
	mov	eax, DWORD PTR i$1[rsp]
	inc	eax
	mov	DWORD PTR i$1[rsp], eax
$LN10@fat32_open:
	cmp	DWORD PTR i$1[rsp], 16
	jge	SHORT $LN8@fat32_open

; 356  : 
; 357  : 			//! if another '\' or end of line is reached, we are done
; 358  : 			if (p[i] == '\\' || p[i]=='\0')

	movsxd	rax, DWORD PTR i$1[rsp]
	mov	rcx, QWORD PTR p$[rsp]
	movsx	eax, BYTE PTR [rcx+rax]
	cmp	eax, 92					; 0000005cH
	je	SHORT $LN6@fat32_open
	movsxd	rax, DWORD PTR i$1[rsp]
	mov	rcx, QWORD PTR p$[rsp]
	movsx	eax, BYTE PTR [rcx+rax]
	test	eax, eax
	jne	SHORT $LN7@fat32_open
$LN6@fat32_open:

; 359  : 				break;

	jmp	SHORT $LN8@fat32_open
$LN7@fat32_open:

; 360  : 
; 361  : 			//! copy character
; 362  : 			pathname[i]=p[i];

	movsxd	rax, DWORD PTR i$1[rsp]
	movsxd	rcx, DWORD PTR i$1[rsp]
	mov	rdx, QWORD PTR p$[rsp]
	movzx	eax, BYTE PTR [rdx+rax]
	mov	BYTE PTR pathname$2[rsp+rcx], al

; 363  : 		}

	jmp	SHORT $LN9@fat32_open
$LN8@fat32_open:

; 364  : 		pathname[i]=0; //null terminate

	movsxd	rax, DWORD PTR i$1[rsp]
	mov	BYTE PTR pathname$2[rsp+rax], 0

; 365  : 
; 366  : 		//! open subdirectory or file
; 367  : 		if (root_dir) {

	movzx	eax, BYTE PTR root_dir$[rsp]
	test	eax, eax
	je	SHORT $LN5@fat32_open

; 368  : 			//! search root dir -- open pathname
; 369  : 			cur_dir = fat32_locate_dir (pathname);

	lea	rdx, QWORD PTR pathname$2[rsp]
	lea	rcx, QWORD PTR $T9[rsp]
	call	?fat32_locate_dir@@YA?AU_file_@@PEBD@Z	; fat32_locate_dir
	lea	rcx, QWORD PTR $T5[rsp]
	mov	rdi, rcx
	mov	rsi, rax
	mov	ecx, 60					; 0000003cH
	rep movsb
	lea	rax, QWORD PTR cur_dir$[rsp]
	lea	rcx, QWORD PTR $T5[rsp]
	mov	rdi, rax
	mov	rsi, rcx
	mov	ecx, 60					; 0000003cH
	rep movsb

; 370  : 			root_dir = false;

	mov	BYTE PTR root_dir$[rsp], 0

; 371  : 		}
; 372  : 		else {

	jmp	SHORT $LN4@fat32_open
$LN5@fat32_open:

; 373  : 			//! search a sub directory instead for pathname
; 374  : 			cur_dir = fat32_locate_subdir (cur_dir, pathname);

	lea	rax, QWORD PTR $T7[rsp]
	lea	rcx, QWORD PTR cur_dir$[rsp]
	mov	rdi, rax
	mov	rsi, rcx
	mov	ecx, 60					; 0000003cH
	rep movsb
	lea	r8, QWORD PTR pathname$2[rsp]
	lea	rdx, QWORD PTR $T7[rsp]
	lea	rcx, QWORD PTR $T10[rsp]
	call	?fat32_locate_subdir@@YA?AU_file_@@U1@PEBD@Z ; fat32_locate_subdir
	lea	rcx, QWORD PTR $T4[rsp]
	mov	rdi, rcx
	mov	rsi, rax
	mov	ecx, 60					; 0000003cH
	rep movsb
	lea	rax, QWORD PTR cur_dir$[rsp]
	lea	rcx, QWORD PTR $T4[rsp]
	mov	rdi, rax
	mov	rsi, rcx
	mov	ecx, 60					; 0000003cH
	rep movsb
$LN4@fat32_open:

; 375  : 		}
; 376  : 
; 377  : 		//! found directory or file?
; 378  : 		if (cur_dir.flags == FILE_FLAG_INVALID)

	cmp	DWORD PTR cur_dir$[rsp+52], 3
	jne	SHORT $LN3@fat32_open

; 379  : 			break;

	jmp	SHORT $LN11@fat32_open
$LN3@fat32_open:

; 380  : 
; 381  : 		//! found file?
; 382  : 		if (cur_dir.flags == FILE_FLAG_GENERAL)

	cmp	DWORD PTR cur_dir$[rsp+52], 2
	jne	SHORT $LN2@fat32_open

; 383  : 			return cur_dir;

	lea	rax, QWORD PTR cur_dir$[rsp]
	mov	rdi, QWORD PTR $T11[rsp]
	mov	rsi, rax
	mov	ecx, 60					; 0000003cH
	rep movsb
	mov	rax, QWORD PTR $T11[rsp]
	jmp	SHORT $LN15@fat32_open
$LN2@fat32_open:

; 384  : 
; 385  : 		//! find next '\'
; 386  : 		p=strchr(p+1, '\\');

	mov	rax, QWORD PTR p$[rsp]
	inc	rax
	mov	edx, 92					; 0000005cH
	mov	rcx, rax
	call	?strchr@@YAPEADPEADH@Z			; strchr
	mov	QWORD PTR p$[rsp], rax

; 387  : 		if (p)

	cmp	QWORD PTR p$[rsp], 0
	je	SHORT $LN1@fat32_open

; 388  : 			p++;

	mov	rax, QWORD PTR p$[rsp]
	inc	rax
	mov	QWORD PTR p$[rsp], rax
$LN1@fat32_open:

; 389  : 	}

	jmp	$LN12@fat32_open
$LN11@fat32_open:

; 390  : 
; 391  : 	//! unable to find
; 392  : 	FILE ret;
; 393  : 	ret.flags = FILE_FLAG_INVALID;

	mov	DWORD PTR ret$[rsp+52], 3

; 394  : 	return ret;

	lea	rax, QWORD PTR ret$[rsp]
	mov	rdi, QWORD PTR $T11[rsp]
	mov	rsi, rax
	mov	ecx, 60					; 0000003cH
	rep movsb
	mov	rax, QWORD PTR $T11[rsp]
$LN15@fat32_open:

; 395  : }

	add	rsp, 712				; 000002c8H
	pop	rdi
	pop	rsi
	ret	0
?fat32_open@@YA?AU_file_@@PEBD@Z ENDP			; fat32_open
_TEXT	ENDS
; Function compile flags: /Odtp
; File e:\xeneva project\xeneva\aurora\aurora\fs\fat32.cpp
_TEXT	SEGMENT
fat32_data$ = 32
buf$ = 40
?initialize_fat32@@YAXXZ PROC				; initialize_fat32

; 73   : void initialize_fat32 () {

$LN3:
	sub	rsp, 56					; 00000038H

; 74   : 
; 75   : 	unsigned char *buf = (unsigned char*)pmmngr_alloc();

	call	?pmmngr_alloc@@YAPEAXXZ			; pmmngr_alloc
	mov	QWORD PTR buf$[rsp], rax

; 76   : 	ata_read_28 (2048,1,buf); //partition_begin_lba = 2048

	mov	r8, QWORD PTR buf$[rsp]
	mov	dx, 1
	mov	ecx, 2048				; 00000800H
	call	?ata_read_28@@YAEIGPEAE@Z		; ata_read_28

; 77   : 
; 78   : 	BPB *fat32_data = (BPB*)buf;

	mov	rax, QWORD PTR buf$[rsp]
	mov	QWORD PTR fat32_data$[rsp], rax

; 79   : 
; 80   : 	part_lba = 2048;

	mov	DWORD PTR ?part_lba@@3IA, 2048		; part_lba, 00000800H

; 81   : 
; 82   : #if 0
; 83   : 	printf ("FAT32 BOOT PARAMETER BLOCK\n");
; 84   : 	printf ("Bytes/Sector -> %d\n", fat32_data->bytes_per_sector);
; 85   : 	printf ("Sectors/Cluster -> %d\n", fat32_data->sectors_per_cluster);
; 86   : 	printf ("Reserved Sectors -> %d\n", fat32_data->reserved_sectors);
; 87   : 	printf ("Number Of FATs -> %d\n", fat32_data->num_fats);
; 88   : 	printf ("Root Base Cluster -> %d\n", fat32_data->info.FAT32.root_dir_cluster);
; 89   : 	printf ("Sector/FAT32 -> %d\n", fat32_data->info.FAT32.sect_per_fat32);
; 90   : 	for (int i=0; i <12; i++) {
; 91   : 		putc(fat32_data->info.FAT32.vol_label[i]);
; 92   : 	}
; 93   : 	for (int i=0; i <9; i++) {
; 94   : 		putc(fat32_data->info.FAT32.sys_id[i]);
; 95   : 	}
; 96   : #endif
; 97   : 
; 98   : 	fat_begin_lba = part_lba + fat32_data->reserved_sectors;

	mov	rax, QWORD PTR fat32_data$[rsp]
	movzx	eax, WORD PTR [rax+14]
	mov	ecx, DWORD PTR ?part_lba@@3IA		; part_lba
	add	ecx, eax
	mov	eax, ecx
	mov	DWORD PTR ?fat_begin_lba@@3KA, eax	; fat_begin_lba

; 99   : 	cluster_begin_lba = part_lba + fat32_data->reserved_sectors + (fat32_data->num_fats * fat32_data->info.FAT32.sect_per_fat32);

	mov	rax, QWORD PTR fat32_data$[rsp]
	movzx	eax, WORD PTR [rax+14]
	mov	ecx, DWORD PTR ?part_lba@@3IA		; part_lba
	add	ecx, eax
	mov	eax, ecx
	mov	rcx, QWORD PTR fat32_data$[rsp]
	movzx	ecx, BYTE PTR [rcx+16]
	mov	rdx, QWORD PTR fat32_data$[rsp]
	imul	ecx, DWORD PTR [rdx+36]
	add	eax, ecx
	mov	DWORD PTR ?cluster_begin_lba@@3KA, eax	; cluster_begin_lba

; 100  : 	sectors_per_cluster = fat32_data->sectors_per_cluster;

	mov	rax, QWORD PTR fat32_data$[rsp]
	movzx	eax, BYTE PTR [rax+13]
	mov	BYTE PTR ?sectors_per_cluster@@3EA, al	; sectors_per_cluster

; 101  : 	root_dir_first_cluster = fat32_data->info.FAT32.root_dir_cluster;

	mov	rax, QWORD PTR fat32_data$[rsp]
	mov	eax, DWORD PTR [rax+44]
	mov	DWORD PTR ?root_dir_first_cluster@@3KA, eax ; root_dir_first_cluster

; 102  : 	root_sector = cluster_to_sector32 (root_dir_first_cluster);

	mov	eax, DWORD PTR ?root_dir_first_cluster@@3KA ; root_dir_first_cluster
	mov	ecx, eax
	call	?cluster_to_sector32@@YA_K_K@Z		; cluster_to_sector32
	mov	DWORD PTR ?root_sector@@3KA, eax	; root_sector

; 103  : }

	add	rsp, 56					; 00000038H
	ret	0
?initialize_fat32@@YAXXZ ENDP				; initialize_fat32
_TEXT	ENDS
END
