; Listing generated by Microsoft (R) Optimizing Compiler Version 17.00.50727.1 

include listing.inc

INCLUDELIB LIBCMT
INCLUDELIB OLDNAMES

CONST	SEGMENT
$SG7301	DB	'Timer fired', 0aH, 00H
	ORG $+3
$SG7314	DB	'shell', 00H
	ORG $+2
$SG7315	DB	'xshell.exe', 00H
	ORG $+1
$SG7316	DB	'dwm3', 00H
	ORG $+7
$SG7317	DB	'dwm3.exe', 00H
CONST	ENDS
PUBLIC	?timer_callback@@YAX_KPEAX@Z			; timer_callback
PUBLIC	?_kmain@@YAXPEAU_KERNEL_BOOT_INFO_@@@Z		; _kmain
EXTRN	?hal_init@@YAXXZ:PROC				; hal_init
EXTRN	?interrupt_end@@YAXI@Z:PROC			; interrupt_end
EXTRN	?pmmngr_init@@YAXPEAU_KERNEL_BOOT_INFO_@@@Z:PROC ; pmmngr_init
EXTRN	?mm_init@@YAXXZ:PROC				; mm_init
EXTRN	?console_initialize@@YAXPEAU_KERNEL_BOOT_INFO_@@@Z:PROC ; console_initialize
EXTRN	?initialize_serial@@YAXXZ:PROC			; initialize_serial
EXTRN	?printf@@YAXPEBDZZ:PROC				; printf
EXTRN	?kybrd_init@@YAXXZ:PROC				; kybrd_init
EXTRN	?initialize_mouse@@YAXXZ:PROC			; initialize_mouse
EXTRN	?ata_initialize@@YAXXZ:PROC			; ata_initialize
EXTRN	?hda_initialize@@YAXXZ:PROC			; hda_initialize
EXTRN	?e1000_initialize@@YAXXZ:PROC			; e1000_initialize
EXTRN	?initialize_rtc@@YAXXZ:PROC			; initialize_rtc
EXTRN	?initialize_acpi@@YAXPEAX@Z:PROC		; initialize_acpi
EXTRN	?initialize_scheduler@@YAXXZ:PROC		; initialize_scheduler
EXTRN	?scheduler_start@@YAXXZ:PROC			; scheduler_start
EXTRN	?message_init@@YAXXZ:PROC			; message_init
EXTRN	?dwm_ipc_init@@YAXXZ:PROC			; dwm_ipc_init
EXTRN	?initialize_vfs@@YAXXZ:PROC			; initialize_vfs
EXTRN	?initialize_screen@@YAXPEAU_KERNEL_BOOT_INFO_@@@Z:PROC ; initialize_screen
EXTRN	?create_process@@YAXPEBDPEADE@Z:PROC		; create_process
EXTRN	?driver_mngr_initialize@@YAXPEAU_KERNEL_BOOT_INFO_@@@Z:PROC ; driver_mngr_initialize
EXTRN	?arp_initialize@@YAXXZ:PROC			; arp_initialize
pdata	SEGMENT
$pdata$?timer_callback@@YAX_KPEAX@Z DD imagerel $LN3
	DD	imagerel $LN3+41
	DD	imagerel $unwind$?timer_callback@@YAX_KPEAX@Z
$pdata$?_kmain@@YAXPEAU_KERNEL_BOOT_INFO_@@@Z DD imagerel $LN5
	DD	imagerel $LN5+196
	DD	imagerel $unwind$?_kmain@@YAXPEAU_KERNEL_BOOT_INFO_@@@Z
pdata	ENDS
xdata	SEGMENT
$unwind$?timer_callback@@YAX_KPEAX@Z DD 010e01H
	DD	0420eH
$unwind$?_kmain@@YAXPEAU_KERNEL_BOOT_INFO_@@@Z DD 010901H
	DD	04209H
xdata	ENDS
; Function compile flags: /Odtp
; File e:\xeneva project\xeneva\aurora\aurora\init.cpp
_TEXT	SEGMENT
info$ = 48
?_kmain@@YAXPEAU_KERNEL_BOOT_INFO_@@@Z PROC		; _kmain

; 97   : void _kmain (KERNEL_BOOT_INFO *info) {

$LN5:
	mov	QWORD PTR [rsp+8], rcx
	sub	rsp, 40					; 00000028H

; 98   : 	hal_init ();

	call	?hal_init@@YAXXZ			; hal_init

; 99   : 	pmmngr_init (info);

	mov	rcx, QWORD PTR info$[rsp]
	call	?pmmngr_init@@YAXPEAU_KERNEL_BOOT_INFO_@@@Z ; pmmngr_init

; 100  : 	mm_init(); 

	call	?mm_init@@YAXXZ				; mm_init

; 101  : 	initialize_serial();

	call	?initialize_serial@@YAXXZ		; initialize_serial

; 102  : 	console_initialize(info);

	mov	rcx, QWORD PTR info$[rsp]
	call	?console_initialize@@YAXPEAU_KERNEL_BOOT_INFO_@@@Z ; console_initialize

; 103  : 
; 104  : 	//!Initialize kernel runtime drivers	
; 105  : 	kybrd_init();

	call	?kybrd_init@@YAXXZ			; kybrd_init

; 106  : 	initialize_acpi (info->acpi_table_pointer);

	mov	rax, QWORD PTR info$[rsp]
	mov	rcx, QWORD PTR [rax+66]
	call	?initialize_acpi@@YAXPEAX@Z		; initialize_acpi

; 107  : 	initialize_rtc();  

	call	?initialize_rtc@@YAXXZ			; initialize_rtc

; 108  : 	hda_initialize();

	call	?hda_initialize@@YAXXZ			; hda_initialize

; 109  : 	e1000_initialize();  //<< receiver not working

	call	?e1000_initialize@@YAXXZ		; e1000_initialize

; 110  :    
; 111  : 
; 112  : 
; 113  :     ata_initialize();

	call	?ata_initialize@@YAXXZ			; ata_initialize

; 114  : 	initialize_vfs();

	call	?initialize_vfs@@YAXXZ			; initialize_vfs

; 115  : 	initialize_screen(info);

	mov	rcx, QWORD PTR info$[rsp]
	call	?initialize_screen@@YAXPEAU_KERNEL_BOOT_INFO_@@@Z ; initialize_screen

; 116  : 	//svga_init (); 
; 117  : 	initialize_mouse();

	call	?initialize_mouse@@YAXXZ		; initialize_mouse

; 118  : 
; 119  : 	message_init ();

	call	?message_init@@YAXXZ			; message_init

; 120  : 	dwm_ipc_init();

	call	?dwm_ipc_init@@YAXXZ			; dwm_ipc_init

; 121  : 
; 122  : 
; 123  : 	
; 124  : 	driver_mngr_initialize(info);

	mov	rcx, QWORD PTR info$[rsp]
	call	?driver_mngr_initialize@@YAXPEAU_KERNEL_BOOT_INFO_@@@Z ; driver_mngr_initialize

; 125  : 	arp_initialize();

	call	?arp_initialize@@YAXXZ			; arp_initialize

; 126  : 
; 127  : #ifdef ARCH_X64
; 128  : 	initialize_scheduler();

	call	?initialize_scheduler@@YAXXZ		; initialize_scheduler

; 129  : 	//create_process ("dwm.exe","dwm",20);
; 130  : 	//! task list should be more than 4 or less than 4 not 
; 131  : 	//create_process ("dwm2.exe", "dwm2", 1);
; 132  : 	create_process ("xshell.exe","shell",1);

	mov	r8b, 1
	lea	rdx, OFFSET FLAT:$SG7314
	lea	rcx, OFFSET FLAT:$SG7315
	call	?create_process@@YAXPEBDPEADE@Z		; create_process

; 133  : 	create_process ("dwm3.exe", "dwm3", 1);

	mov	r8b, 1
	lea	rdx, OFFSET FLAT:$SG7316
	lea	rcx, OFFSET FLAT:$SG7317
	call	?create_process@@YAXPEBDPEADE@Z		; create_process

; 134  : 	scheduler_start();

	call	?scheduler_start@@YAXXZ			; scheduler_start
$LN2@kmain:

; 135  : #endif
; 136  : 	while(1) {

	xor	eax, eax
	cmp	eax, 1
	je	SHORT $LN1@kmain

; 137  : 	}

	jmp	SHORT $LN2@kmain
$LN1@kmain:

; 138  : }

	add	rsp, 40					; 00000028H
	ret	0
?_kmain@@YAXPEAU_KERNEL_BOOT_INFO_@@@Z ENDP		; _kmain
_TEXT	ENDS
; Function compile flags: /Odtp
; File e:\xeneva project\xeneva\aurora\aurora\init.cpp
_TEXT	SEGMENT
v$ = 48
p$ = 56
?timer_callback@@YAX_KPEAX@Z PROC			; timer_callback

; 84   : void timer_callback (size_t v, void* p) {

$LN3:
	mov	QWORD PTR [rsp+16], rdx
	mov	QWORD PTR [rsp+8], rcx
	sub	rsp, 40					; 00000028H

; 85   : 	printf ("Timer fired\n");

	lea	rcx, OFFSET FLAT:$SG7301
	call	?printf@@YAXPEBDZZ			; printf

; 86   : 	interrupt_end(2);

	mov	ecx, 2
	call	?interrupt_end@@YAXI@Z			; interrupt_end

; 87   : }

	add	rsp, 40					; 00000028H
	ret	0
?timer_callback@@YAX_KPEAX@Z ENDP			; timer_callback
_TEXT	ENDS
END
