; Listing generated by Microsoft (R) Optimizing Compiler Version 17.00.50727.1 

include listing.inc

INCLUDELIB LIBCMT
INCLUDELIB OLDNAMES

PUBLIC	_fltused
CONST	SEGMENT
$SG7592	DB	'Multitasking started', 0aH, 00H
	ORG $+2
$SG7606	DB	'/', 00H
	ORG $+6
$SG7609	DB	'/start.wav', 00H
	ORG $+1
$SG7614	DB	'shell', 00H
	ORG $+6
$SG7615	DB	'/xshell.exe', 00H
$SG7616	DB	'quince', 00H
	ORG $+5
$SG7617	DB	'/quince.exe', 00H
$SG7618	DB	'dwm4', 00H
	ORG $+7
$SG7619	DB	'/dwm2.exe', 00H
	ORG $+2
$SG7620	DB	'cnsl', 00H
	ORG $+7
$SG7621	DB	'/cnsl.exe', 00H
CONST	ENDS
_DATA	SEGMENT
_fltused DD	01H
_DATA	ENDS
PUBLIC	??2@YAPEAX_K@Z					; operator new
PUBLIC	??3@YAXPEAX@Z					; operator delete
PUBLIC	??_U@YAPEAX_K@Z					; operator new[]
PUBLIC	?test_thread2@@YAXXZ				; test_thread2
PUBLIC	?_kmain@@YAXXZ					; _kmain
EXTRN	x64_cli:PROC
EXTRN	x64_hlt:PROC
EXTRN	?hal_x86_64_setup_int@@YAXXZ:PROC		; hal_x86_64_setup_int
EXTRN	?hal_init@@YAXXZ:PROC				; hal_init
EXTRN	?pmmngr_init@@YAXPEAU_KERNEL_BOOT_INFO_@@@Z:PROC ; pmmngr_init
EXTRN	?pmmngr_alloc@@YAPEAXXZ:PROC			; pmmngr_alloc
EXTRN	?vmmngr_x86_64_init@@YAXXZ:PROC			; vmmngr_x86_64_init
EXTRN	?map_page@@YA_N_K0E@Z:PROC			; map_page
EXTRN	?mm_init@@YAXPEAU_KERNEL_BOOT_INFO_@@@Z:PROC	; mm_init
EXTRN	?malloc@@YAPEAXI@Z:PROC				; malloc
EXTRN	?mfree@@YAXPEAX@Z:PROC				; mfree
EXTRN	?console_initialize@@YAXPEAU_KERNEL_BOOT_INFO_@@@Z:PROC ; console_initialize
EXTRN	?printf@@YAXPEBDZZ:PROC				; printf
EXTRN	?kybrd_init@@YAXXZ:PROC				; kybrd_init
EXTRN	?initialize_mouse@@YAXXZ:PROC			; initialize_mouse
EXTRN	?ata_initialize@@YAXXZ:PROC			; ata_initialize
EXTRN	?hda_initialize@@YAXXZ:PROC			; hda_initialize
EXTRN	?hda_audio_add_pcm@@YAXPEAEI@Z:PROC		; hda_audio_add_pcm
EXTRN	?e1000_initialize@@YAXXZ:PROC			; e1000_initialize
EXTRN	?initialize_rtc@@YAXXZ:PROC			; initialize_rtc
EXTRN	?initialize_acpi@@YAXPEAX@Z:PROC		; initialize_acpi
EXTRN	?vfs_init@@YAXXZ:PROC				; vfs_init
EXTRN	?vfs_finddir@@YAPEAU_vfs_node_@@PEAD@Z:PROC	; vfs_finddir
EXTRN	?openfs@@YA?AU_vfs_node_@@PEAU1@PEAD@Z:PROC	; openfs
EXTRN	?readfs@@YAXPEAU_vfs_node_@@0PEAEI@Z:PROC	; readfs
EXTRN	?stream_init@@YAXXZ:PROC			; stream_init
EXTRN	?initialize_scheduler@@YAXXZ:PROC		; initialize_scheduler
EXTRN	?scheduler_start@@YAXXZ:PROC			; scheduler_start
EXTRN	?message_init@@YAXXZ:PROC			; message_init
EXTRN	?dwm_ipc_init@@YAXXZ:PROC			; dwm_ipc_init
EXTRN	?initialize_screen@@YAXPEAU_KERNEL_BOOT_INFO_@@@Z:PROC ; initialize_screen
EXTRN	?screen_set_configuration@@YAXII@Z:PROC		; screen_set_configuration
EXTRN	?create_process@@YAXPEBDPEAD@Z:PROC		; create_process
EXTRN	?driver_mngr_initialize@@YAXPEAU_KERNEL_BOOT_INFO_@@@Z:PROC ; driver_mngr_initialize
EXTRN	?initialize_serial@@YAXXZ:PROC			; initialize_serial
EXTRN	?sound_initialize@@YAXXZ:PROC			; sound_initialize
pdata	SEGMENT
$pdata$??2@YAPEAX_K@Z DD imagerel $LN3
	DD	imagerel $LN3+23
	DD	imagerel $unwind$??2@YAPEAX_K@Z
$pdata$??3@YAXPEAX@Z DD imagerel $LN3
	DD	imagerel $LN3+24
	DD	imagerel $unwind$??3@YAXPEAX@Z
$pdata$??_U@YAPEAX_K@Z DD imagerel $LN3
	DD	imagerel $LN3+23
	DD	imagerel $unwind$??_U@YAPEAX_K@Z
$pdata$?test_thread2@@YAXXZ DD imagerel $LN5
	DD	imagerel $LN5+30
	DD	imagerel $unwind$?test_thread2@@YAXXZ
$pdata$?_kmain@@YAXXZ DD imagerel $LN8
	DD	imagerel $LN8+547
	DD	imagerel $unwind$?_kmain@@YAXXZ
pdata	ENDS
xdata	SEGMENT
$unwind$??2@YAPEAX_K@Z DD 010901H
	DD	04209H
$unwind$??3@YAXPEAX@Z DD 010901H
	DD	04209H
$unwind$??_U@YAPEAX_K@Z DD 010901H
	DD	04209H
$unwind$?test_thread2@@YAXXZ DD 010401H
	DD	04204H
$unwind$?_kmain@@YAXXZ DD 040a01H
	DD	033010aH
	DD	060027003H
xdata	ENDS
; Function compile flags: /Odtpy
; File e:\xeneva project\xeneva\aurora\aurora\init.cpp
_TEXT	SEGMENT
i$1 = 32
info$ = 40
node$ = 48
buffer2$ = 56
tv82 = 64
buffer$ = 72
file$ = 80
$T2 = 192
$T3 = 296
?_kmain@@YAXXZ PROC					; _kmain

; 128  : void _kmain () {

$LN8:
	push	rsi
	push	rdi
	sub	rsp, 408				; 00000198H

; 129  : 	KERNEL_BOOT_INFO *info = (KERNEL_BOOT_INFO*)0xFFFFE00000000000;

	mov	rax, -35184372088832			; ffffe00000000000H
	mov	QWORD PTR info$[rsp], rax

; 130  : 
; 131  : 	
; 132  : 	//! Initialize the memory mappings
; 133  : 	pmmngr_init (info);

	mov	rcx, QWORD PTR info$[rsp]
	call	?pmmngr_init@@YAXPEAU_KERNEL_BOOT_INFO_@@@Z ; pmmngr_init

; 134  : 	vmmngr_x86_64_init(); 

	call	?vmmngr_x86_64_init@@YAXXZ		; vmmngr_x86_64_init

; 135  : 	hal_init();

	call	?hal_init@@YAXXZ			; hal_init

; 136  : 	hal_x86_64_setup_int();	

	call	?hal_x86_64_setup_int@@YAXXZ		; hal_x86_64_setup_int

; 137  : 
; 138  :     mm_init(info); 

	mov	rcx, QWORD PTR info$[rsp]
	call	?mm_init@@YAXPEAU_KERNEL_BOOT_INFO_@@@Z	; mm_init

; 139  : 	initialize_serial();

	call	?initialize_serial@@YAXXZ		; initialize_serial

; 140  : 
; 141  : 	ata_initialize();

	call	?ata_initialize@@YAXXZ			; ata_initialize

; 142  : 	vfs_init();

	call	?vfs_init@@YAXXZ			; vfs_init

; 143  : 	initialize_screen(info);

	mov	rcx, QWORD PTR info$[rsp]
	call	?initialize_screen@@YAXPEAU_KERNEL_BOOT_INFO_@@@Z ; initialize_screen

; 144  : 	console_initialize(info);

	mov	rcx, QWORD PTR info$[rsp]
	call	?console_initialize@@YAXPEAU_KERNEL_BOOT_INFO_@@@Z ; console_initialize

; 145  : 	
; 146  : 	screen_set_configuration(info->X_Resolution,info->Y_Resolution);

	mov	rax, QWORD PTR info$[rsp]
	movzx	eax, WORD PTR [rax+70]
	mov	rcx, QWORD PTR info$[rsp]
	movzx	ecx, WORD PTR [rcx+68]
	mov	edx, eax
	call	?screen_set_configuration@@YAXII@Z	; screen_set_configuration

; 147  : 	initialize_rtc(); 

	call	?initialize_rtc@@YAXXZ			; initialize_rtc

; 148  : 
; 149  : 	initialize_acpi (info->acpi_table_pointer);

	mov	rax, QWORD PTR info$[rsp]
	mov	rcx, QWORD PTR [rax+90]
	call	?initialize_acpi@@YAXPEAX@Z		; initialize_acpi

; 150  : 	
; 151  : 	//!Initialize kernel runtime drivers	
; 152  : 	kybrd_init();

	call	?kybrd_init@@YAXXZ			; kybrd_init

; 153  : 	initialize_mouse();

	call	?initialize_mouse@@YAXXZ		; initialize_mouse

; 154  : 	
; 155  : 	for (int i = 0; i < 2*1024*1024/4096; i++)

	mov	DWORD PTR i$1[rsp], 0
	jmp	SHORT $LN5@kmain
$LN4@kmain:
	mov	eax, DWORD PTR i$1[rsp]
	inc	eax
	mov	DWORD PTR i$1[rsp], eax
$LN5@kmain:
	cmp	DWORD PTR i$1[rsp], 512			; 00000200H
	jge	SHORT $LN3@kmain

; 156  : 		map_page((uint64_t)pmmngr_alloc(),0xFFFFF00000000000 + i * 4096, 0);

	mov	eax, DWORD PTR i$1[rsp]
	imul	eax, 4096				; 00001000H
	cdqe
	mov	rcx, 17592186044416			; 0000100000000000H
	sub	rax, rcx
	mov	QWORD PTR tv82[rsp], rax
	call	?pmmngr_alloc@@YAPEAXXZ			; pmmngr_alloc
	xor	r8d, r8d
	mov	rcx, QWORD PTR tv82[rsp]
	mov	rdx, rcx
	mov	rcx, rax
	call	?map_page@@YA_N_K0E@Z			; map_page
	jmp	SHORT $LN4@kmain
$LN3@kmain:

; 157  : 
; 158  : 	vfs_node_t *node = vfs_finddir("/");

	lea	rcx, OFFSET FLAT:$SG7606
	call	?vfs_finddir@@YAPEAU_vfs_node_@@PEAD@Z	; vfs_finddir
	mov	QWORD PTR node$[rsp], rax

; 159  : 	vfs_node_t file = openfs (node, "/start.wav");

	lea	r8, OFFSET FLAT:$SG7609
	mov	rdx, QWORD PTR node$[rsp]
	lea	rcx, QWORD PTR $T3[rsp]
	call	?openfs@@YA?AU_vfs_node_@@PEAU1@PEAD@Z	; openfs
	lea	rcx, QWORD PTR $T2[rsp]
	mov	rdi, rcx
	mov	rsi, rax
	mov	ecx, 104				; 00000068H
	rep movsb
	lea	rax, QWORD PTR file$[rsp]
	lea	rcx, QWORD PTR $T2[rsp]
	mov	rdi, rax
	mov	rsi, rcx
	mov	ecx, 104				; 00000068H
	rep movsb

; 160  : 	unsigned char* buffer = (unsigned char*)0xFFFFF00000000000;

	mov	rax, -17592186044416			; fffff00000000000H
	mov	QWORD PTR buffer$[rsp], rax

; 161  : 	unsigned char* buffer2 = (unsigned char*)(buffer + 44);

	mov	rax, QWORD PTR buffer$[rsp]
	add	rax, 44					; 0000002cH
	mov	QWORD PTR buffer2$[rsp], rax

; 162  : 	readfs (node,&file,buffer2,file.size);

	mov	r9d, DWORD PTR file$[rsp+32]
	mov	r8, QWORD PTR buffer2$[rsp]
	lea	rdx, QWORD PTR file$[rsp]
	mov	rcx, QWORD PTR node$[rsp]
	call	?readfs@@YAXPEAU_vfs_node_@@0PEAEI@Z	; readfs

; 163  : 
; 164  : 	message_init ();

	call	?message_init@@YAXXZ			; message_init

; 165  : 	dwm_ipc_init();

	call	?dwm_ipc_init@@YAXXZ			; dwm_ipc_init

; 166  : 	stream_init ();

	call	?stream_init@@YAXXZ			; stream_init

; 167  : 	driver_mngr_initialize(info);

	mov	rcx, QWORD PTR info$[rsp]
	call	?driver_mngr_initialize@@YAXPEAU_KERNEL_BOOT_INFO_@@@Z ; driver_mngr_initialize

; 168  : 	hda_initialize(); 

	call	?hda_initialize@@YAXXZ			; hda_initialize

; 169  :     hda_audio_add_pcm(buffer2, file.size);

	mov	edx, DWORD PTR file$[rsp+32]
	mov	rcx, QWORD PTR buffer2$[rsp]
	call	?hda_audio_add_pcm@@YAXPEAEI@Z		; hda_audio_add_pcm

; 170  : 
; 171  : 	e1000_initialize();   //<< receiver not working

	call	?e1000_initialize@@YAXXZ		; e1000_initialize

; 172  : 	
; 173  : 	//svga_init();
; 174  : 	sound_initialize();

	call	?sound_initialize@@YAXXZ		; sound_initialize

; 175  : 
; 176  : #ifdef ARCH_X64
; 177  : 	//================================================
; 178  : 	//! Initialize the scheduler here
; 179  : 	//!===============================================
; 180  : 	initialize_scheduler();

	call	?initialize_scheduler@@YAXXZ		; initialize_scheduler

; 181  : 
; 182  : 	create_process ("/xshell.exe","shell");

	lea	rdx, OFFSET FLAT:$SG7614
	lea	rcx, OFFSET FLAT:$SG7615
	call	?create_process@@YAXPEBDPEAD@Z		; create_process

; 183  : 	//! Quince -- The Compositing window manager for Aurora kernel
; 184  : 	//! always put quince in thread id -- > 2
; 185  : 	create_process ("/quince.exe","quince");

	lea	rdx, OFFSET FLAT:$SG7616
	lea	rcx, OFFSET FLAT:$SG7617
	call	?create_process@@YAXPEBDPEAD@Z		; create_process

; 186  : 
; 187  : 	/**=====================================================
; 188  : 	 ** Kernel threads handle some specific callbacks like
; 189  : 	 ** procmngr handles process creation and termination
; 190  : 	 **=====================================================
; 191  : 	 */
; 192  : 	//! Misc programs goes here
; 193  : 	create_process ("/dwm2.exe", "dwm4");

	lea	rdx, OFFSET FLAT:$SG7618
	lea	rcx, OFFSET FLAT:$SG7619
	call	?create_process@@YAXPEBDPEAD@Z		; create_process

; 194  : 	create_process ("/cnsl.exe", "cnsl");

	lea	rdx, OFFSET FLAT:$SG7620
	lea	rcx, OFFSET FLAT:$SG7621
	call	?create_process@@YAXPEBDPEAD@Z		; create_process

; 195  : 	//! Here start the scheduler (multitasking engine)
; 196  : 	
; 197  : 	scheduler_start();

	call	?scheduler_start@@YAXXZ			; scheduler_start
$LN2@kmain:

; 198  : #endif
; 199  : 
; 200  : 	//! Loop forever
; 201  : 	while(1) {

	xor	eax, eax
	cmp	eax, 1
	je	SHORT $LN1@kmain

; 202  : 		//!looping looping
; 203  : 		x64_cli();

	call	x64_cli

; 204  : 		x64_hlt();

	call	x64_hlt

; 205  : 	}

	jmp	SHORT $LN2@kmain
$LN1@kmain:

; 206  : }

	add	rsp, 408				; 00000198H
	pop	rdi
	pop	rsi
	ret	0
?_kmain@@YAXXZ ENDP					; _kmain
_TEXT	ENDS
; Function compile flags: /Odtpy
; File e:\xeneva project\xeneva\aurora\aurora\init.cpp
_TEXT	SEGMENT
?test_thread2@@YAXXZ PROC				; test_thread2

; 112  : void test_thread2 () {

$LN5:
	sub	rsp, 40					; 00000028H

; 113  : 	printf ("Multitasking started\n");

	lea	rcx, OFFSET FLAT:$SG7592
	call	?printf@@YAXPEBDZZ			; printf
$LN2@test_threa:

; 114  : 	while(1) {

	xor	eax, eax
	cmp	eax, 1
	je	SHORT $LN1@test_threa

; 115  : 		//printf ("Multitasking\n");
; 116  : 	}

	jmp	SHORT $LN2@test_threa
$LN1@test_threa:

; 117  : }

	add	rsp, 40					; 00000028H
	ret	0
?test_thread2@@YAXXZ ENDP				; test_thread2
_TEXT	ENDS
; Function compile flags: /Odtpy
; File e:\xeneva project\xeneva\aurora\aurora\init.cpp
_TEXT	SEGMENT
size$ = 48
??_U@YAPEAX_K@Z PROC					; operator new[]

; 102  : void* __cdecl operator new[] (size_t size) {

$LN3:
	mov	QWORD PTR [rsp+8], rcx
	sub	rsp, 40					; 00000028H

; 103  : 	return malloc(size);

	mov	ecx, DWORD PTR size$[rsp]
	call	?malloc@@YAPEAXI@Z			; malloc

; 104  : }

	add	rsp, 40					; 00000028H
	ret	0
??_U@YAPEAX_K@Z ENDP					; operator new[]
_TEXT	ENDS
; Function compile flags: /Odtpy
; File e:\xeneva project\xeneva\aurora\aurora\init.cpp
_TEXT	SEGMENT
p$ = 48
??3@YAXPEAX@Z PROC					; operator delete

; 106  : void __cdecl operator delete (void* p) {

$LN3:
	mov	QWORD PTR [rsp+8], rcx
	sub	rsp, 40					; 00000028H

; 107  : 	mfree(p);

	mov	rcx, QWORD PTR p$[rsp]
	call	?mfree@@YAXPEAX@Z			; mfree

; 108  : }

	add	rsp, 40					; 00000028H
	ret	0
??3@YAXPEAX@Z ENDP					; operator delete
_TEXT	ENDS
; Function compile flags: /Odtpy
; File e:\xeneva project\xeneva\aurora\aurora\init.cpp
_TEXT	SEGMENT
size$ = 48
??2@YAPEAX_K@Z PROC					; operator new

; 98   : void* __cdecl ::operator new(size_t size) {

$LN3:
	mov	QWORD PTR [rsp+8], rcx
	sub	rsp, 40					; 00000028H

; 99   : 	return malloc(size);

	mov	ecx, DWORD PTR size$[rsp]
	call	?malloc@@YAPEAXI@Z			; malloc

; 100  : }

	add	rsp, 40					; 00000028H
	ret	0
??2@YAPEAX_K@Z ENDP					; operator new
_TEXT	ENDS
END
