; Listing generated by Microsoft (R) Optimizing Compiler Version 17.00.50727.1 

include listing.inc

INCLUDELIB LIBCMT
INCLUDELIB OLDNAMES

PUBLIC	?debug@@3P6AXPEBDZZEA				; debug
_BSS	SEGMENT
?debug@@3P6AXPEBDZZEA DQ 01H DUP (?)			; debug
_BSS	ENDS
CONST	SEGMENT
$SG5381	DB	'/zara.wav', 00H
	ORG $+6
$SG5382	DB	'file.size -> %d ', 0aH, 00H
	ORG $+6
$SG5391	DB	'Scheduler Initialized', 0aH, 00H
	ORG $+1
$SG5393	DB	'shell', 00H
	ORG $+2
$SG5394	DB	'/init.exe', 00H
	ORG $+2
$SG5395	DB	'priwm', 00H
	ORG $+6
$SG5396	DB	'/priwm.exe', 00H
CONST	ENDS
PUBLIC	?debug_print@@YAXPEBDZZ				; debug_print
PUBLIC	?_AuMain@@YAXPEAU_KERNEL_BOOT_INFO_@@@Z		; _AuMain
EXTRN	x64_cli:PROC
EXTRN	x64_sti:PROC
EXTRN	x64_hlt:PROC
EXTRN	?AuInitializeCpu@@YAXE@Z:PROC			; AuInitializeCpu
EXTRN	?AuHalInitialize@@YAXXZ:PROC			; AuHalInitialize
EXTRN	?AuPmmngrInit@@YAXPEAU_KERNEL_BOOT_INFO_@@@Z:PROC ; AuPmmngrInit
EXTRN	AuPmmngrAlloc:PROC
EXTRN	p2v:PROC
EXTRN	v2p:PROC
EXTRN	?AuPagingInit@@YAXXZ:PROC			; AuPagingInit
EXTRN	?AuPagingClearLow@@YAXXZ:PROC			; AuPagingClearLow
EXTRN	?AuConsoleInitialize@@YAXPEAU_KERNEL_BOOT_INFO_@@@Z:PROC ; AuConsoleInitialize
EXTRN	printf:PROC
EXTRN	?AuKeyboardInitialize@@YAXXZ:PROC		; AuKeyboardInitialize
EXTRN	?AuInitializeMouse@@YAXXZ:PROC			; AuInitializeMouse
EXTRN	?AuHeapInitialize@@YAXXZ:PROC			; AuHeapInitialize
EXTRN	?ahci_initialize@@YAXXZ:PROC			; ahci_initialize
EXTRN	?AuInitializeRTC@@YAXXZ:PROC			; AuInitializeRTC
EXTRN	?AuInitializeBasicAcpi@@YAXPEAX@Z:PROC		; AuInitializeBasicAcpi
EXTRN	?AuGetNumCPU@@YAEXZ:PROC			; AuGetNumCPU
EXTRN	?AuVFSInit@@YAXXZ:PROC				; AuVFSInit
EXTRN	?AuInitializeScheduler@@YAXXZ:PROC		; AuInitializeScheduler
EXTRN	?AuSchedulerStart@@YAXXZ:PROC			; AuSchedulerStart
EXTRN	?dwm_ipc_init@@YAXXZ:PROC			; dwm_ipc_init
EXTRN	?AuInitializeScreen@@YAXPEAU_KERNEL_BOOT_INFO_@@@Z:PROC ; AuInitializeScreen
EXTRN	?AuCreateProcess@@YAHPEBDPEAD@Z:PROC		; AuCreateProcess
EXTRN	?process_list_initialize@@YAXXZ:PROC		; process_list_initialize
EXTRN	?AuDrvMngrInitialize@@YAXPEAU_KERNEL_BOOT_INFO_@@@Z:PROC ; AuDrvMngrInitialize
EXTRN	?AuInitializeSerial@@YAXXZ:PROC			; AuInitializeSerial
EXTRN	?AuSoundInitialize@@YAXXZ:PROC			; AuSoundInitialize
EXTRN	?AuSoundOutputStart@@YAXXZ:PROC			; AuSoundOutputStart
EXTRN	?AuSoundWrite@@YAXPEAU_vfs_node_@@PEA_KI@Z:PROC	; AuSoundWrite
EXTRN	?pri_loop_init@@YAXXZ:PROC			; pri_loop_init
EXTRN	?AuInitializeShMem@@YAXXZ:PROC			; AuInitializeShMem
EXTRN	?AuSharedDeviceInit@@YAXXZ:PROC			; AuSharedDeviceInit
EXTRN	?ttype_init@@YAXXZ:PROC				; ttype_init
EXTRN	?AuNetInitialize@@YAXXZ:PROC			; AuNetInitialize
EXTRN	?fat32_open@@YA?AU_vfs_node_@@PEAU1@PEAD@Z:PROC	; fat32_open
EXTRN	?fat32_read@@YAXPEAU_vfs_node_@@PEA_K@Z:PROC	; fat32_read
pdata	SEGMENT
$pdata$?debug_print@@YAXPEBDZZ DD imagerel $LN3
	DD	imagerel $LN3+40
	DD	imagerel $unwind$?debug_print@@YAXPEBDZZ
$pdata$?_AuMain@@YAXPEAU_KERNEL_BOOT_INFO_@@@Z DD imagerel $LN7
	DD	imagerel $LN7+471
	DD	imagerel $unwind$?_AuMain@@YAXPEAU_KERNEL_BOOT_INFO_@@@Z
pdata	ENDS
xdata	SEGMENT
$unwind$?debug_print@@YAXPEBDZZ DD 011801H
	DD	04218H
$unwind$?_AuMain@@YAXPEAU_KERNEL_BOOT_INFO_@@@Z DD 040e01H
	DD	02f010eH
	DD	060067007H
xdata	ENDS
; Function compile flags: /Odtpy
; File e:\xeneva project\xeneva\aurora\aurora\init.cpp
_TEXT	SEGMENT
au_status$ = 32
buffer$ = 40
file$ = 48
$T1 = 160
$T2 = 264
info$ = 400
?_AuMain@@YAXPEAU_KERNEL_BOOT_INFO_@@@Z PROC		; _AuMain

; 97   : void _AuMain (KERNEL_BOOT_INFO *info) {

$LN7:
	mov	QWORD PTR [rsp+8], rcx
	push	rsi
	push	rdi
	sub	rsp, 376				; 00000178H

; 98   : 	debug = info->printf_gui;

	mov	rax, QWORD PTR info$[rsp]
	mov	rax, QWORD PTR [rax+106]
	mov	QWORD PTR ?debug@@3P6AXPEBDZZEA, rax	; debug

; 99   : 	//! Initialize the memory mappings
; 100  : 	AuPmmngrInit (info);

	mov	rcx, QWORD PTR info$[rsp]
	call	?AuPmmngrInit@@YAXPEAU_KERNEL_BOOT_INFO_@@@Z ; AuPmmngrInit

; 101  : 	AuPagingInit();

	call	?AuPagingInit@@YAXXZ			; AuPagingInit

; 102  : 	AuHeapInitialize();

	call	?AuHeapInitialize@@YAXXZ		; AuHeapInitialize

; 103  : 	
; 104  : 
; 105  : 	AuInitializeShMem();

	call	?AuInitializeShMem@@YAXXZ		; AuInitializeShMem

; 106  : 	AuHalInitialize();

	call	?AuHalInitialize@@YAXXZ			; AuHalInitialize

; 107  : 
; 108  : 	AuInitializeSerial();

	call	?AuInitializeSerial@@YAXXZ		; AuInitializeSerial

; 109  : 	AuInitializeBasicAcpi (info->acpi_table_pointer);

	mov	rax, QWORD PTR info$[rsp]
	mov	rcx, QWORD PTR [rax+82]
	call	?AuInitializeBasicAcpi@@YAXPEAX@Z	; AuInitializeBasicAcpi

; 110  : 	AuSharedDeviceInit();

	call	?AuSharedDeviceInit@@YAXXZ		; AuSharedDeviceInit

; 111  : 	ahci_initialize();

	call	?ahci_initialize@@YAXXZ			; ahci_initialize

; 112  : 	AuVFSInit();

	call	?AuVFSInit@@YAXXZ			; AuVFSInit

; 113  : 	
; 114  : 	AuInitializeScreen(info);

	mov	rcx, QWORD PTR info$[rsp]
	call	?AuInitializeScreen@@YAXPEAU_KERNEL_BOOT_INFO_@@@Z ; AuInitializeScreen

; 115  : 	AuConsoleInitialize(info);

	mov	rcx, QWORD PTR info$[rsp]
	call	?AuConsoleInitialize@@YAXPEAU_KERNEL_BOOT_INFO_@@@Z ; AuConsoleInitialize

; 116  : 	AuSoundInitialize();

	call	?AuSoundInitialize@@YAXXZ		; AuSoundInitialize

; 117  : 	AuInitializeRTC(); 

	call	?AuInitializeRTC@@YAXXZ			; AuInitializeRTC

; 118  : 
; 119  : 	AuInitializeMouse();

	call	?AuInitializeMouse@@YAXXZ		; AuInitializeMouse

; 120  : 
; 121  : 	AuNetInitialize();

	call	?AuNetInitialize@@YAXXZ			; AuNetInitialize

; 122  : 	
; 123  : 	
; 124  : 	//================================================
; 125  : 	//! Initialize the scheduler here
; 126  : 	//!===============================================
; 127  : 	AuInitializeScheduler();

	call	?AuInitializeScheduler@@YAXXZ		; AuInitializeScheduler

; 128  : 
; 129  : 	//Here we initialise all drivers stuffs
; 130  : 	/* Clear interrupts as scheduler will enable it */
; 131  : 	x64_cli();

	call	x64_cli

; 132  : 	AuDrvMngrInitialize(info);

	mov	rcx, QWORD PTR info$[rsp]
	call	?AuDrvMngrInitialize@@YAXPEAU_KERNEL_BOOT_INFO_@@@Z ; AuDrvMngrInitialize

; 133  : 	//hda_initialize();
; 134  : 	AuKeyboardInitialize();

	call	?AuKeyboardInitialize@@YAXXZ		; AuKeyboardInitialize

; 135  : 	dwm_ipc_init();

	call	?dwm_ipc_init@@YAXXZ			; dwm_ipc_init

; 136  : 	pri_loop_init();

	call	?pri_loop_init@@YAXXZ			; pri_loop_init

; 137  : 
; 138  : 	process_list_initialize();

	call	?process_list_initialize@@YAXXZ		; process_list_initialize

; 139  : 	ttype_init();

	call	?ttype_init@@YAXXZ			; ttype_init

; 140  : 
; 141  : 	/*Initialize other processor */
; 142  : 	AuInitializeCpu(AuGetNumCPU());

	call	?AuGetNumCPU@@YAEXZ			; AuGetNumCPU
	movzx	ecx, al
	call	?AuInitializeCpu@@YAXE@Z		; AuInitializeCpu

; 143  : 
; 144  : 	
; 145  : 	/*Clear the lower half for user space */
; 146  : 	AuPagingClearLow();

	call	?AuPagingClearLow@@YAXXZ		; AuPagingClearLow

; 147  : 
; 148  : 	//AuARPRequestMAC();
; 149  : 	x64_sti();

	call	x64_sti

; 150  : 	vfs_node_t file = fat32_open(NULL, "/zara.wav");

	lea	r8, OFFSET FLAT:$SG5381
	xor	edx, edx
	lea	rcx, QWORD PTR $T2[rsp]
	call	?fat32_open@@YA?AU_vfs_node_@@PEAU1@PEAD@Z ; fat32_open
	lea	rcx, QWORD PTR $T1[rsp]
	mov	rdi, rcx
	mov	rsi, rax
	mov	ecx, 104				; 00000068H
	rep movsb
	lea	rax, QWORD PTR file$[rsp]
	lea	rcx, QWORD PTR $T1[rsp]
	mov	rdi, rax
	mov	rsi, rcx
	mov	ecx, 104				; 00000068H
	rep movsb

; 151  : 	printf ("file.size -> %d \n", file.size);

	mov	edx, DWORD PTR file$[rsp+32]
	lea	rcx, OFFSET FLAT:$SG5382
	call	printf

; 152  : 	uint64_t* buffer = (uint64_t*)p2v((size_t)AuPmmngrAlloc());

	call	AuPmmngrAlloc
	mov	rcx, rax
	call	p2v
	mov	QWORD PTR buffer$[rsp], rax

; 153  : 	fat32_read(&file, (uint64_t*)v2p((size_t)buffer));

	mov	rcx, QWORD PTR buffer$[rsp]
	call	v2p
	mov	rdx, rax
	lea	rcx, QWORD PTR file$[rsp]
	call	?fat32_read@@YAXPEAU_vfs_node_@@PEA_K@Z	; fat32_read

; 154  : 	AuSoundWrite(NULL, buffer, 4096);

	mov	r8d, 4096				; 00001000H
	mov	rdx, QWORD PTR buffer$[rsp]
	xor	ecx, ecx
	call	?AuSoundWrite@@YAXPEAU_vfs_node_@@PEA_KI@Z ; AuSoundWrite

; 155  : 	AuSoundOutputStart();

	call	?AuSoundOutputStart@@YAXXZ		; AuSoundOutputStart
$LN4@AuMain:

; 156  : 	for(;;);

	jmp	SHORT $LN4@AuMain

; 157  : #ifdef ARCH_X64
; 158  : 
; 159  : 	printf ("Scheduler Initialized\n");

	lea	rcx, OFFSET FLAT:$SG5391
	call	printf

; 160  : 	int au_status = 0;

	mov	DWORD PTR au_status$[rsp], 0

; 161  : 
; 162  : 	/* start the sound service manager at id 1 */
; 163  : 	au_status = AuCreateProcess ("/init.exe","shell");

	lea	rdx, OFFSET FLAT:$SG5393
	lea	rcx, OFFSET FLAT:$SG5394
	call	?AuCreateProcess@@YAHPEBDPEAD@Z		; AuCreateProcess
	mov	DWORD PTR au_status$[rsp], eax

; 164  : 
; 165  : 	/* start the compositing window manager at id 3 */
; 166  : 	au_status = AuCreateProcess ("/priwm.exe","priwm");

	lea	rdx, OFFSET FLAT:$SG5395
	lea	rcx, OFFSET FLAT:$SG5396
	call	?AuCreateProcess@@YAHPEBDPEAD@Z		; AuCreateProcess
	mov	DWORD PTR au_status$[rsp], eax

; 167  : 
; 168  : 	//au_status = AuCreateProcess ("/dock.exe", "dock");
; 169  : 	//! Here start the scheduler (multitasking engine)
; 170  : 	AuSchedulerStart();

	call	?AuSchedulerStart@@YAXXZ		; AuSchedulerStart
$LN2@AuMain:

; 171  : #endif
; 172  : 
; 173  : 	//! Loop forever
; 174  : 	while(1) {

	xor	eax, eax
	cmp	eax, 1
	je	SHORT $LN1@AuMain

; 175  : 		//!looping looping
; 176  : 		x64_cli();

	call	x64_cli

; 177  : 		x64_hlt();

	call	x64_hlt

; 178  : 	}

	jmp	SHORT $LN2@AuMain
$LN1@AuMain:

; 179  : }

	add	rsp, 376				; 00000178H
	pop	rdi
	pop	rsi
	ret	0
?_AuMain@@YAXPEAU_KERNEL_BOOT_INFO_@@@Z ENDP		; _AuMain
_TEXT	ENDS
; Function compile flags: /Odtpy
; File e:\xeneva project\xeneva\aurora\aurora\init.cpp
_TEXT	SEGMENT
text$ = 48
?debug_print@@YAXPEBDZZ PROC				; debug_print

; 89   : void debug_print (const char* text, ...) {

$LN3:
	mov	QWORD PTR [rsp+8], rcx
	mov	QWORD PTR [rsp+16], rdx
	mov	QWORD PTR [rsp+24], r8
	mov	QWORD PTR [rsp+32], r9
	sub	rsp, 40					; 00000028H

; 90   : 	debug(text);

	mov	rcx, QWORD PTR text$[rsp]
	call	QWORD PTR ?debug@@3P6AXPEBDZZEA		; debug

; 91   : }

	add	rsp, 40					; 00000028H
	ret	0
?debug_print@@YAXPEBDZZ ENDP				; debug_print
_TEXT	ENDS
END
