; Listing generated by Microsoft (R) Optimizing Compiler Version 17.00.50727.1 

include listing.inc

INCLUDELIB LIBCMT
INCLUDELIB OLDNAMES

PUBLIC	_fltused
CONST	SEGMENT
$SG7533	DB	'Multitasking started', 0aH, 00H
	ORG $+2
$SG7541	DB	'shell', 00H
	ORG $+2
$SG7542	DB	'/xshell.exe', 00H
$SG7543	DB	'quince', 00H
	ORG $+5
$SG7544	DB	'/quince.exe', 00H
	ORG $+4
$SG7546	DB	'procmngr', 00H
	ORG $+3
$SG7547	DB	'dwm4', 00H
	ORG $+7
$SG7548	DB	'/dwm2.exe', 00H
	ORG $+2
$SG7549	DB	'cnsl', 00H
	ORG $+7
$SG7550	DB	'/cnsl.exe', 00H
CONST	ENDS
_DATA	SEGMENT
_fltused DD	01H
_DATA	ENDS
PUBLIC	??2@YAPEAX_K@Z					; operator new
PUBLIC	??3@YAXPEAX@Z					; operator delete
PUBLIC	??_U@YAPEAX_K@Z					; operator new[]
PUBLIC	?test_thread2@@YAXXZ				; test_thread2
PUBLIC	?_kmain@@YAXXZ					; _kmain
EXTRN	x64_cli:PROC
EXTRN	x64_hlt:PROC
EXTRN	x64_read_cr3:PROC
EXTRN	?hal_x86_64_setup_int@@YAXXZ:PROC		; hal_x86_64_setup_int
EXTRN	?hal_init@@YAXXZ:PROC				; hal_init
EXTRN	?pmmngr_init@@YAXPEAU_KERNEL_BOOT_INFO_@@@Z:PROC ; pmmngr_init
EXTRN	?pmmngr_alloc@@YAPEAXXZ:PROC			; pmmngr_alloc
EXTRN	?vmmngr_x86_64_init@@YAXXZ:PROC			; vmmngr_x86_64_init
EXTRN	?mm_init@@YAXPEAU_KERNEL_BOOT_INFO_@@@Z:PROC	; mm_init
EXTRN	?malloc@@YAPEAXI@Z:PROC				; malloc
EXTRN	?mfree@@YAXPEAX@Z:PROC				; mfree
EXTRN	?console_initialize@@YAXPEAU_KERNEL_BOOT_INFO_@@@Z:PROC ; console_initialize
EXTRN	?printf@@YAXPEBDZZ:PROC				; printf
EXTRN	?kybrd_init@@YAXXZ:PROC				; kybrd_init
EXTRN	?initialize_mouse@@YAXXZ:PROC			; initialize_mouse
EXTRN	?ata_initialize@@YAXXZ:PROC			; ata_initialize
EXTRN	?hda_initialize@@YAXXZ:PROC			; hda_initialize
EXTRN	?e1000_initialize@@YAXXZ:PROC			; e1000_initialize
EXTRN	?initialize_rtc@@YAXXZ:PROC			; initialize_rtc
EXTRN	?initialize_acpi@@YAXPEAX@Z:PROC		; initialize_acpi
EXTRN	?vfs_init@@YAXXZ:PROC				; vfs_init
EXTRN	?stream_init@@YAXXZ:PROC			; stream_init
EXTRN	?initialize_scheduler@@YAXXZ:PROC		; initialize_scheduler
EXTRN	?scheduler_start@@YAXXZ:PROC			; scheduler_start
EXTRN	?create_kthread@@YAPEAU_thread_@@P6AXXZ_K1QEADE@Z:PROC ; create_kthread
EXTRN	?message_init@@YAXXZ:PROC			; message_init
EXTRN	?dwm_ipc_init@@YAXXZ:PROC			; dwm_ipc_init
EXTRN	?initialize_screen@@YAXPEAU_KERNEL_BOOT_INFO_@@@Z:PROC ; initialize_screen
EXTRN	?screen_set_configuration@@YAXII@Z:PROC		; screen_set_configuration
EXTRN	?create_process@@YAXPEBDPEAD@Z:PROC		; create_process
EXTRN	?driver_mngr_initialize@@YAXPEAU_KERNEL_BOOT_INFO_@@@Z:PROC ; driver_mngr_initialize
EXTRN	?procmngr_start@@YAXXZ:PROC			; procmngr_start
EXTRN	?initialize_serial@@YAXXZ:PROC			; initialize_serial
pdata	SEGMENT
$pdata$??2@YAPEAX_K@Z DD imagerel $LN3
	DD	imagerel $LN3+23
	DD	imagerel $unwind$??2@YAPEAX_K@Z
$pdata$??3@YAXPEAX@Z DD imagerel $LN3
	DD	imagerel $LN3+24
	DD	imagerel $unwind$??3@YAXPEAX@Z
$pdata$??_U@YAPEAX_K@Z DD imagerel $LN3
	DD	imagerel $LN3+23
	DD	imagerel $unwind$??_U@YAPEAX_K@Z
$pdata$?test_thread2@@YAXXZ DD imagerel $LN5
	DD	imagerel $LN5+30
	DD	imagerel $unwind$?test_thread2@@YAXXZ
$pdata$?_kmain@@YAXXZ DD imagerel $LN5
	DD	imagerel $LN5+338
	DD	imagerel $unwind$?_kmain@@YAXXZ
pdata	ENDS
xdata	SEGMENT
$unwind$??2@YAPEAX_K@Z DD 010901H
	DD	04209H
$unwind$??3@YAXPEAX@Z DD 010901H
	DD	04209H
$unwind$??_U@YAPEAX_K@Z DD 010901H
	DD	04209H
$unwind$?test_thread2@@YAXXZ DD 010401H
	DD	04204H
$unwind$?_kmain@@YAXXZ DD 010401H
	DD	08204H
xdata	ENDS
; Function compile flags: /Odtpy
; File e:\xeneva project\xeneva\aurora\aurora\init.cpp
_TEXT	SEGMENT
info$ = 48
tv84 = 56
?_kmain@@YAXXZ PROC					; _kmain

; 125  : void _kmain () {

$LN5:
	sub	rsp, 72					; 00000048H

; 126  : 	KERNEL_BOOT_INFO *info = (KERNEL_BOOT_INFO*)0xFFFFE00000000000;

	mov	rax, -35184372088832			; ffffe00000000000H
	mov	QWORD PTR info$[rsp], rax

; 127  : 
; 128  : 	
; 129  : 	//! Initialize the memory mappings
; 130  : 	pmmngr_init (info);

	mov	rcx, QWORD PTR info$[rsp]
	call	?pmmngr_init@@YAXPEAU_KERNEL_BOOT_INFO_@@@Z ; pmmngr_init

; 131  : 	vmmngr_x86_64_init(); 

	call	?vmmngr_x86_64_init@@YAXXZ		; vmmngr_x86_64_init

; 132  : 	hal_init();

	call	?hal_init@@YAXXZ			; hal_init

; 133  : 	hal_x86_64_setup_int();	

	call	?hal_x86_64_setup_int@@YAXXZ		; hal_x86_64_setup_int

; 134  : 
; 135  :     mm_init(info); 

	mov	rcx, QWORD PTR info$[rsp]
	call	?mm_init@@YAXPEAU_KERNEL_BOOT_INFO_@@@Z	; mm_init

; 136  : 	initialize_serial();

	call	?initialize_serial@@YAXXZ		; initialize_serial

; 137  : 
; 138  : 	ata_initialize();

	call	?ata_initialize@@YAXXZ			; ata_initialize

; 139  : 	vfs_init();

	call	?vfs_init@@YAXXZ			; vfs_init

; 140  : 	initialize_screen(info);

	mov	rcx, QWORD PTR info$[rsp]
	call	?initialize_screen@@YAXPEAU_KERNEL_BOOT_INFO_@@@Z ; initialize_screen

; 141  : 	console_initialize(info);

	mov	rcx, QWORD PTR info$[rsp]
	call	?console_initialize@@YAXPEAU_KERNEL_BOOT_INFO_@@@Z ; console_initialize

; 142  : 	
; 143  : 	screen_set_configuration(info->X_Resolution,info->Y_Resolution);

	mov	rax, QWORD PTR info$[rsp]
	movzx	eax, WORD PTR [rax+70]
	mov	rcx, QWORD PTR info$[rsp]
	movzx	ecx, WORD PTR [rcx+68]
	mov	edx, eax
	call	?screen_set_configuration@@YAXII@Z	; screen_set_configuration

; 144  : 	initialize_rtc(); 

	call	?initialize_rtc@@YAXXZ			; initialize_rtc

; 145  : 
; 146  : 	initialize_acpi (info->acpi_table_pointer);

	mov	rax, QWORD PTR info$[rsp]
	mov	rcx, QWORD PTR [rax+90]
	call	?initialize_acpi@@YAXPEAX@Z		; initialize_acpi

; 147  : 	
; 148  : 	//!Initialize kernel runtime drivers	
; 149  : 	kybrd_init();

	call	?kybrd_init@@YAXXZ			; kybrd_init

; 150  : 	initialize_mouse();

	call	?initialize_mouse@@YAXXZ		; initialize_mouse

; 151  : 
; 152  : 	message_init ();

	call	?message_init@@YAXXZ			; message_init

; 153  : 	dwm_ipc_init();

	call	?dwm_ipc_init@@YAXXZ			; dwm_ipc_init

; 154  : 	stream_init ();

	call	?stream_init@@YAXXZ			; stream_init

; 155  : 	driver_mngr_initialize(info);

	mov	rcx, QWORD PTR info$[rsp]
	call	?driver_mngr_initialize@@YAXPEAU_KERNEL_BOOT_INFO_@@@Z ; driver_mngr_initialize

; 156  : 	hda_initialize(); 

	call	?hda_initialize@@YAXXZ			; hda_initialize

; 157  : 	e1000_initialize();   //<< receiver not working

	call	?e1000_initialize@@YAXXZ		; e1000_initialize

; 158  : 
; 159  : #ifdef ARCH_X64
; 160  : 	//================================================
; 161  : 	//! Initialize the scheduler here
; 162  : 	//!===============================================
; 163  : 	initialize_scheduler();

	call	?initialize_scheduler@@YAXXZ		; initialize_scheduler

; 164  : 	create_process ("/xshell.exe","shell");

	lea	rdx, OFFSET FLAT:$SG7541
	lea	rcx, OFFSET FLAT:$SG7542
	call	?create_process@@YAXPEBDPEAD@Z		; create_process

; 165  : 
; 166  : 	//! Quince -- The Compositing window manager for Aurora kernel
; 167  : 	//! always put quince in thread id -- > 2
; 168  : 	create_process ("/quince.exe","quince");

	lea	rdx, OFFSET FLAT:$SG7543
	lea	rcx, OFFSET FLAT:$SG7544
	call	?create_process@@YAXPEBDPEAD@Z		; create_process

; 169  : 
; 170  : 	/**=====================================================
; 171  : 	 ** Kernel threads handle some specific callbacks like
; 172  : 	 ** procmngr handles process creation and termination
; 173  : 	 **=====================================================
; 174  : 	 */
; 175  : 	create_kthread (procmngr_start,(uint64_t)pmmngr_alloc(),x64_read_cr3(),"procmngr",0);

	call	x64_read_cr3
	mov	QWORD PTR tv84[rsp], rax
	call	?pmmngr_alloc@@YAPEAXXZ			; pmmngr_alloc
	mov	BYTE PTR [rsp+32], 0
	lea	r9, OFFSET FLAT:$SG7546
	mov	rcx, QWORD PTR tv84[rsp]
	mov	r8, rcx
	mov	rdx, rax
	lea	rcx, OFFSET FLAT:?procmngr_start@@YAXXZ	; procmngr_start
	call	?create_kthread@@YAPEAU_thread_@@P6AXXZ_K1QEADE@Z ; create_kthread

; 176  : 	//! Misc programs goes here
; 177  : 	create_process ("/dwm2.exe", "dwm4");

	lea	rdx, OFFSET FLAT:$SG7547
	lea	rcx, OFFSET FLAT:$SG7548
	call	?create_process@@YAXPEBDPEAD@Z		; create_process

; 178  : 	create_process ("/cnsl.exe", "cnsl");

	lea	rdx, OFFSET FLAT:$SG7549
	lea	rcx, OFFSET FLAT:$SG7550
	call	?create_process@@YAXPEBDPEAD@Z		; create_process

; 179  : 	//! Here start the scheduler (multitasking engine)
; 180  : 	scheduler_start();

	call	?scheduler_start@@YAXXZ			; scheduler_start
$LN2@kmain:

; 181  : #endif
; 182  : 
; 183  : 	//! Loop forever
; 184  : 	while(1) {

	xor	eax, eax
	cmp	eax, 1
	je	SHORT $LN1@kmain

; 185  : 		//!looping looping
; 186  : 		x64_cli();

	call	x64_cli

; 187  : 		x64_hlt();

	call	x64_hlt

; 188  : 	}

	jmp	SHORT $LN2@kmain
$LN1@kmain:

; 189  : }

	add	rsp, 72					; 00000048H
	ret	0
?_kmain@@YAXXZ ENDP					; _kmain
_TEXT	ENDS
; Function compile flags: /Odtpy
; File e:\xeneva project\xeneva\aurora\aurora\init.cpp
_TEXT	SEGMENT
?test_thread2@@YAXXZ PROC				; test_thread2

; 110  : void test_thread2 () {

$LN5:
	sub	rsp, 40					; 00000028H

; 111  : 	printf ("Multitasking started\n");

	lea	rcx, OFFSET FLAT:$SG7533
	call	?printf@@YAXPEBDZZ			; printf
$LN2@test_threa:

; 112  : 	while(1) {

	xor	eax, eax
	cmp	eax, 1
	je	SHORT $LN1@test_threa

; 113  : 		//printf ("Multitasking\n");
; 114  : 	}

	jmp	SHORT $LN2@test_threa
$LN1@test_threa:

; 115  : }

	add	rsp, 40					; 00000028H
	ret	0
?test_thread2@@YAXXZ ENDP				; test_thread2
_TEXT	ENDS
; Function compile flags: /Odtpy
; File e:\xeneva project\xeneva\aurora\aurora\init.cpp
_TEXT	SEGMENT
size$ = 48
??_U@YAPEAX_K@Z PROC					; operator new[]

; 100  : void* __cdecl operator new[] (size_t size) {

$LN3:
	mov	QWORD PTR [rsp+8], rcx
	sub	rsp, 40					; 00000028H

; 101  : 	return malloc(size);

	mov	ecx, DWORD PTR size$[rsp]
	call	?malloc@@YAPEAXI@Z			; malloc

; 102  : }

	add	rsp, 40					; 00000028H
	ret	0
??_U@YAPEAX_K@Z ENDP					; operator new[]
_TEXT	ENDS
; Function compile flags: /Odtpy
; File e:\xeneva project\xeneva\aurora\aurora\init.cpp
_TEXT	SEGMENT
p$ = 48
??3@YAXPEAX@Z PROC					; operator delete

; 104  : void __cdecl operator delete (void* p) {

$LN3:
	mov	QWORD PTR [rsp+8], rcx
	sub	rsp, 40					; 00000028H

; 105  : 	mfree(p);

	mov	rcx, QWORD PTR p$[rsp]
	call	?mfree@@YAXPEAX@Z			; mfree

; 106  : }

	add	rsp, 40					; 00000028H
	ret	0
??3@YAXPEAX@Z ENDP					; operator delete
_TEXT	ENDS
; Function compile flags: /Odtpy
; File e:\xeneva project\xeneva\aurora\aurora\init.cpp
_TEXT	SEGMENT
size$ = 48
??2@YAPEAX_K@Z PROC					; operator new

; 96   : void* __cdecl ::operator new(size_t size) {

$LN3:
	mov	QWORD PTR [rsp+8], rcx
	sub	rsp, 40					; 00000028H

; 97   : 	return malloc(size);

	mov	ecx, DWORD PTR size$[rsp]
	call	?malloc@@YAPEAXI@Z			; malloc

; 98   : }

	add	rsp, 40					; 00000028H
	ret	0
??2@YAPEAX_K@Z ENDP					; operator new
_TEXT	ENDS
END
