; Listing generated by Microsoft (R) Optimizing Compiler Version 17.00.50727.1 

include listing.inc

INCLUDELIB LIBCMT
INCLUDELIB OLDNAMES

PUBLIC	?debug@@3P6AXPEBDZZEA				; debug
_BSS	SEGMENT
?debug@@3P6AXPEBDZZEA DQ 01H DUP (?)			; debug
_BSS	ENDS
CONST	SEGMENT
$SG5401	DB	'Scheduler Initialized', 0aH, 00H
	ORG $+1
$SG5403	DB	'shell', 00H
	ORG $+2
$SG5404	DB	'/init.exe', 00H
	ORG $+2
$SG5405	DB	'priwm', 00H
	ORG $+6
$SG5406	DB	'/priwm.exe', 00H
CONST	ENDS
PUBLIC	?debug_print@@YAXPEBDZZ				; debug_print
PUBLIC	?_AuMain@@YAXPEAU_KERNEL_BOOT_INFO_@@@Z		; _AuMain
EXTRN	x64_cli:PROC
EXTRN	x64_hlt:PROC
EXTRN	?AuInitializeCpu@@YAXE@Z:PROC			; AuInitializeCpu
EXTRN	?AuHalInitialize@@YAXXZ:PROC			; AuHalInitialize
EXTRN	?AuPmmngrInit@@YAXPEAU_KERNEL_BOOT_INFO_@@@Z:PROC ; AuPmmngrInit
EXTRN	?AuPagingInit@@YAXXZ:PROC			; AuPagingInit
EXTRN	?AuPagingClearLow@@YAXXZ:PROC			; AuPagingClearLow
EXTRN	?AuConsoleInitialize@@YAXPEAU_KERNEL_BOOT_INFO_@@@Z:PROC ; AuConsoleInitialize
EXTRN	printf:PROC
EXTRN	?AuKeyboardInitialize@@YAXXZ:PROC		; AuKeyboardInitialize
EXTRN	?AuInitializeMouse@@YAXXZ:PROC			; AuInitializeMouse
EXTRN	?AuHeapInitialize@@YAXXZ:PROC			; AuHeapInitialize
EXTRN	?ahci_initialize@@YAXXZ:PROC			; ahci_initialize
EXTRN	?AuInitializeRTC@@YAXXZ:PROC			; AuInitializeRTC
EXTRN	?AuInitializeBasicAcpi@@YAXPEAX@Z:PROC		; AuInitializeBasicAcpi
EXTRN	?AuGetNumCPU@@YAEXZ:PROC			; AuGetNumCPU
EXTRN	?AuVFSInit@@YAXXZ:PROC				; AuVFSInit
EXTRN	?AuInitializeScheduler@@YAXXZ:PROC		; AuInitializeScheduler
EXTRN	?AuSchedulerStart@@YAXXZ:PROC			; AuSchedulerStart
EXTRN	?AuPointDevInitialize@@YAXXZ:PROC		; AuPointDevInitialize
EXTRN	?AuInitializeScreen@@YAXPEAU_KERNEL_BOOT_INFO_@@@Z:PROC ; AuInitializeScreen
EXTRN	?AuSysLibInitialize@@YAXXZ:PROC			; AuSysLibInitialize
EXTRN	?AuCreateProcess@@YAHPEBDPEAD@Z:PROC		; AuCreateProcess
EXTRN	?process_list_initialize@@YAXXZ:PROC		; process_list_initialize
EXTRN	?AuDrvMngrInitialize@@YAXPEAU_KERNEL_BOOT_INFO_@@@Z:PROC ; AuDrvMngrInitialize
EXTRN	?AuInitializeSerial@@YAXXZ:PROC			; AuInitializeSerial
EXTRN	?AuSoundInitialize@@YAXXZ:PROC			; AuSoundInitialize
EXTRN	?pri_loop_init@@YAXXZ:PROC			; pri_loop_init
EXTRN	?AuInitializeShMem@@YAXXZ:PROC			; AuInitializeShMem
EXTRN	?AuSharedDeviceInit@@YAXXZ:PROC			; AuSharedDeviceInit
EXTRN	?ttype_init@@YAXXZ:PROC				; ttype_init
EXTRN	?AuNetInitialize@@YAXXZ:PROC			; AuNetInitialize
pdata	SEGMENT
$pdata$?debug_print@@YAXPEBDZZ DD imagerel $LN3
	DD	imagerel $LN3+40
	DD	imagerel $unwind$?debug_print@@YAXPEBDZZ
$pdata$?_AuMain@@YAXPEAU_KERNEL_BOOT_INFO_@@@Z DD imagerel $LN5
	DD	imagerel $LN5+292
	DD	imagerel $unwind$?_AuMain@@YAXPEAU_KERNEL_BOOT_INFO_@@@Z
pdata	ENDS
xdata	SEGMENT
$unwind$?debug_print@@YAXPEBDZZ DD 011801H
	DD	04218H
$unwind$?_AuMain@@YAXPEAU_KERNEL_BOOT_INFO_@@@Z DD 010901H
	DD	06209H
xdata	ENDS
; Function compile flags: /Odtpy
; File e:\xeneva project\xeneva\aurora\aurora\init.cpp
_TEXT	SEGMENT
au_status$ = 32
info$ = 64
?_AuMain@@YAXPEAU_KERNEL_BOOT_INFO_@@@Z PROC		; _AuMain

; 98   : void _AuMain (KERNEL_BOOT_INFO *info) {

$LN5:
	mov	QWORD PTR [rsp+8], rcx
	sub	rsp, 56					; 00000038H

; 99   : 	debug = info->printf_gui;

	mov	rax, QWORD PTR info$[rsp]
	mov	rax, QWORD PTR [rax+106]
	mov	QWORD PTR ?debug@@3P6AXPEBDZZEA, rax	; debug

; 100  : 	//! Initialize the memory mappings
; 101  : 	AuPmmngrInit (info);

	mov	rcx, QWORD PTR info$[rsp]
	call	?AuPmmngrInit@@YAXPEAU_KERNEL_BOOT_INFO_@@@Z ; AuPmmngrInit

; 102  : 	AuPagingInit();

	call	?AuPagingInit@@YAXXZ			; AuPagingInit

; 103  : 	AuHeapInitialize();

	call	?AuHeapInitialize@@YAXXZ		; AuHeapInitialize

; 104  : 
; 105  : 	AuInitializeShMem();

	call	?AuInitializeShMem@@YAXXZ		; AuInitializeShMem

; 106  : 	AuHalInitialize();

	call	?AuHalInitialize@@YAXXZ			; AuHalInitialize

; 107  : 
; 108  : 	AuInitializeSerial();

	call	?AuInitializeSerial@@YAXXZ		; AuInitializeSerial

; 109  : 	AuInitializeBasicAcpi (info->acpi_table_pointer);

	mov	rax, QWORD PTR info$[rsp]
	mov	rcx, QWORD PTR [rax+82]
	call	?AuInitializeBasicAcpi@@YAXPEAX@Z	; AuInitializeBasicAcpi

; 110  : 	AuSharedDeviceInit();

	call	?AuSharedDeviceInit@@YAXXZ		; AuSharedDeviceInit

; 111  : 	ahci_initialize();

	call	?ahci_initialize@@YAXXZ			; ahci_initialize

; 112  : 	AuVFSInit();

	call	?AuVFSInit@@YAXXZ			; AuVFSInit

; 113  : 	
; 114  : 	AuInitializeScreen(info);

	mov	rcx, QWORD PTR info$[rsp]
	call	?AuInitializeScreen@@YAXPEAU_KERNEL_BOOT_INFO_@@@Z ; AuInitializeScreen

; 115  : 	AuConsoleInitialize(info);

	mov	rcx, QWORD PTR info$[rsp]
	call	?AuConsoleInitialize@@YAXPEAU_KERNEL_BOOT_INFO_@@@Z ; AuConsoleInitialize

; 116  : 	AuSoundInitialize();

	call	?AuSoundInitialize@@YAXXZ		; AuSoundInitialize

; 117  : 	AuInitializeRTC(); 

	call	?AuInitializeRTC@@YAXXZ			; AuInitializeRTC

; 118  : 
; 119  : 	AuInitializeMouse();

	call	?AuInitializeMouse@@YAXXZ		; AuInitializeMouse

; 120  : 	AuNetInitialize();

	call	?AuNetInitialize@@YAXXZ			; AuNetInitialize

; 121  : 	
; 122  : 	/***************************************************
; 123  : 	 * PHASE - 2
; 124  : 	 ***************************************************
; 125  : 	 */
; 126  : 
; 127  : 
; 128  : 	//================================================
; 129  : 	//! Initialize the scheduler here
; 130  : 	//!===============================================
; 131  : 	AuInitializeScheduler();

	call	?AuInitializeScheduler@@YAXXZ		; AuInitializeScheduler

; 132  : 
; 133  : 	//Here we initialise all drivers stuffs
; 134  : 	/* Clear interrupts as scheduler will enable it */
; 135  : 	x64_cli();

	call	x64_cli

; 136  : 	AuDrvMngrInitialize(info);

	mov	rcx, QWORD PTR info$[rsp]
	call	?AuDrvMngrInitialize@@YAXPEAU_KERNEL_BOOT_INFO_@@@Z ; AuDrvMngrInitialize

; 137  : 	
; 138  : 	// Load system known libraries for usermode processes
; 139  : 	AuSysLibInitialize();

	call	?AuSysLibInitialize@@YAXXZ		; AuSysLibInitialize

; 140  : 
; 141  : 
; 142  : 	AuKeyboardInitialize();

	call	?AuKeyboardInitialize@@YAXXZ		; AuKeyboardInitialize

; 143  : 	AuPointDevInitialize();

	call	?AuPointDevInitialize@@YAXXZ		; AuPointDevInitialize

; 144  : 	
; 145  : 	// Initialize main ipc manager
; 146  : 	pri_loop_init();

	call	?pri_loop_init@@YAXXZ			; pri_loop_init

; 147  : 
; 148  : 	// Initialize the process list
; 149  : 	process_list_initialize();

	call	?process_list_initialize@@YAXXZ		; process_list_initialize

; 150  : 	ttype_init();

	call	?ttype_init@@YAXXZ			; ttype_init

; 151  : 
; 152  : 	/*Initialize other processor */
; 153  : 	AuInitializeCpu(AuGetNumCPU());	

	call	?AuGetNumCPU@@YAEXZ			; AuGetNumCPU
	movzx	ecx, al
	call	?AuInitializeCpu@@YAXE@Z		; AuInitializeCpu

; 154  : 
; 155  : 	/*Clear the lower half for user space */
; 156  : 	AuPagingClearLow();

	call	?AuPagingClearLow@@YAXXZ		; AuPagingClearLow

; 157  : 
; 158  : 
; 159  : #ifdef ARCH_X64
; 160  : 
; 161  : 	printf ("Scheduler Initialized\n");

	lea	rcx, OFFSET FLAT:$SG5401
	call	printf

; 162  : 	int au_status = 0;

	mov	DWORD PTR au_status$[rsp], 0

; 163  : 
; 164  : 	/* start the sound service manager at id 1 */
; 165  : 	au_status = AuCreateProcess ("/init.exe","shell");

	lea	rdx, OFFSET FLAT:$SG5403
	lea	rcx, OFFSET FLAT:$SG5404
	call	?AuCreateProcess@@YAHPEBDPEAD@Z		; AuCreateProcess
	mov	DWORD PTR au_status$[rsp], eax

; 166  : 
; 167  : 	/* start the compositing window manager at id 3 */
; 168  : 	au_status = AuCreateProcess ("/priwm.exe","priwm");

	lea	rdx, OFFSET FLAT:$SG5405
	lea	rcx, OFFSET FLAT:$SG5406
	call	?AuCreateProcess@@YAHPEBDPEAD@Z		; AuCreateProcess
	mov	DWORD PTR au_status$[rsp], eax

; 169  : 
; 170  : 	//au_status = AuCreateProcess ("/ptest.exe","priwm2");
; 171  : 
; 172  : 	//! Here start the scheduler (multitasking engine)
; 173  : 	AuSchedulerStart();

	call	?AuSchedulerStart@@YAXXZ		; AuSchedulerStart
$LN2@AuMain:

; 174  : #endif
; 175  : 
; 176  : 	//! Loop forever
; 177  : 	while(1) {

	xor	eax, eax
	cmp	eax, 1
	je	SHORT $LN1@AuMain

; 178  : 		//!looping looping
; 179  : 		x64_cli();

	call	x64_cli

; 180  : 		x64_hlt();

	call	x64_hlt

; 181  : 	}

	jmp	SHORT $LN2@AuMain
$LN1@AuMain:

; 182  : }

	add	rsp, 56					; 00000038H
	ret	0
?_AuMain@@YAXPEAU_KERNEL_BOOT_INFO_@@@Z ENDP		; _AuMain
_TEXT	ENDS
; Function compile flags: /Odtpy
; File e:\xeneva project\xeneva\aurora\aurora\init.cpp
_TEXT	SEGMENT
text$ = 48
?debug_print@@YAXPEBDZZ PROC				; debug_print

; 90   : void debug_print (const char* text, ...) {

$LN3:
	mov	QWORD PTR [rsp+8], rcx
	mov	QWORD PTR [rsp+16], rdx
	mov	QWORD PTR [rsp+24], r8
	mov	QWORD PTR [rsp+32], r9
	sub	rsp, 40					; 00000028H

; 91   : 	debug(text);

	mov	rcx, QWORD PTR text$[rsp]
	call	QWORD PTR ?debug@@3P6AXPEBDZZEA		; debug

; 92   : }

	add	rsp, 40					; 00000028H
	ret	0
?debug_print@@YAXPEBDZZ ENDP				; debug_print
_TEXT	ENDS
END
