; Listing generated by Microsoft (R) Optimizing Compiler Version 17.00.50727.1 

include listing.inc

INCLUDELIB LIBCMT
INCLUDELIB OLDNAMES

PUBLIC	_fltused
PUBLIC	?debug@@3P6AXPEBDZZEA				; debug
_BSS	SEGMENT
?debug@@3P6AXPEBDZZEA DQ 01H DUP (?)			; debug
_BSS	ENDS
CONST	SEGMENT
$SG5737	DB	'Scheduler Initialized', 0aH, 00H
	ORG $+1
$SG5738	DB	'shell', 00H
	ORG $+2
$SG5739	DB	'/sndsrv.exe', 00H
$SG5740	DB	'priwm', 00H
	ORG $+6
$SG5741	DB	'/priwm.exe', 00H
	ORG $+1
$SG5742	DB	'dock', 00H
	ORG $+7
$SG5743	DB	'/dock.exe', 00H
CONST	ENDS
_DATA	SEGMENT
_fltused DD	01H
_DATA	ENDS
PUBLIC	??2@YAPEAX_K@Z					; operator new
PUBLIC	??3@YAXPEAX@Z					; operator delete
PUBLIC	??_U@YAPEAX_K@Z					; operator new[]
PUBLIC	?debug_print@@YAXPEBDZZ				; debug_print
PUBLIC	?_kmain@@YAXXZ					; _kmain
EXTRN	x64_cli:PROC
EXTRN	x64_hlt:PROC
EXTRN	?hal_x86_64_setup_int@@YAXXZ:PROC		; hal_x86_64_setup_int
EXTRN	?hal_init@@YAXXZ:PROC				; hal_init
EXTRN	?pmmngr_init@@YAXPEAU_KERNEL_BOOT_INFO_@@@Z:PROC ; pmmngr_init
EXTRN	?vmmngr_x86_64_init@@YAXXZ:PROC			; vmmngr_x86_64_init
EXTRN	?console_initialize@@YAXPEAU_KERNEL_BOOT_INFO_@@@Z:PROC ; console_initialize
EXTRN	?printf@@YAXPEBDZZ:PROC				; printf
EXTRN	?kybrd_init@@YAXXZ:PROC				; kybrd_init
EXTRN	?initialize_mouse@@YAXXZ:PROC			; initialize_mouse
EXTRN	?initialize_kmemory@@YAX_K@Z:PROC		; initialize_kmemory
EXTRN	?malloc@@YAPEAX_K@Z:PROC			; malloc
EXTRN	?free@@YAXPEAX@Z:PROC				; free
EXTRN	?ahci_initialize@@YAXXZ:PROC			; ahci_initialize
EXTRN	?e1000_initialize@@YAXXZ:PROC			; e1000_initialize
EXTRN	?initialize_rtc@@YAXXZ:PROC			; initialize_rtc
EXTRN	?initialize_acpi@@YAXPEAX@Z:PROC		; initialize_acpi
EXTRN	?vfs_init@@YAXXZ:PROC				; vfs_init
EXTRN	?initialize_scheduler@@YAXXZ:PROC		; initialize_scheduler
EXTRN	?scheduler_start@@YAXXZ:PROC			; scheduler_start
EXTRN	?message_init@@YAXXZ:PROC			; message_init
EXTRN	?dwm_ipc_init@@YAXXZ:PROC			; dwm_ipc_init
EXTRN	?initialize_screen@@YAXPEAU_KERNEL_BOOT_INFO_@@@Z:PROC ; initialize_screen
EXTRN	?screen_set_configuration@@YAXII@Z:PROC		; screen_set_configuration
EXTRN	?create_process@@YAHPEBDPEAD@Z:PROC		; create_process
EXTRN	?process_list_initialize@@YAXXZ:PROC		; process_list_initialize
EXTRN	?driver_mngr_initialize@@YAXPEAU_KERNEL_BOOT_INFO_@@@Z:PROC ; driver_mngr_initialize
EXTRN	?initialize_serial@@YAXXZ:PROC			; initialize_serial
EXTRN	?pri_loop_init@@YAXXZ:PROC			; pri_loop_init
pdata	SEGMENT
$pdata$??2@YAPEAX_K@Z DD imagerel $LN3
	DD	imagerel $LN3+24
	DD	imagerel $unwind$??2@YAPEAX_K@Z
$pdata$??3@YAXPEAX@Z DD imagerel $LN3
	DD	imagerel $LN3+24
	DD	imagerel $unwind$??3@YAXPEAX@Z
$pdata$??_U@YAPEAX_K@Z DD imagerel $LN3
	DD	imagerel $LN3+24
	DD	imagerel $unwind$??_U@YAPEAX_K@Z
$pdata$?debug_print@@YAXPEBDZZ DD imagerel $LN3
	DD	imagerel $LN3+40
	DD	imagerel $unwind$?debug_print@@YAXPEBDZZ
$pdata$?_kmain@@YAXXZ DD imagerel $LN5
	DD	imagerel $LN5+297
	DD	imagerel $unwind$?_kmain@@YAXXZ
pdata	ENDS
xdata	SEGMENT
$unwind$??2@YAPEAX_K@Z DD 010901H
	DD	04209H
$unwind$??3@YAXPEAX@Z DD 010901H
	DD	04209H
$unwind$??_U@YAPEAX_K@Z DD 010901H
	DD	04209H
$unwind$?debug_print@@YAXPEBDZZ DD 011801H
	DD	04218H
$unwind$?_kmain@@YAXXZ DD 010401H
	DD	06204H
xdata	ENDS
; Function compile flags: /Odtpy
; File e:\xeneva project\xeneva\aurora\aurora\init.cpp
_TEXT	SEGMENT
info$ = 32
?_kmain@@YAXXZ PROC					; _kmain

; 117  : void _kmain () {

$LN5:
	sub	rsp, 56					; 00000038H

; 118  : 	KERNEL_BOOT_INFO *info = (KERNEL_BOOT_INFO*)0xFFFFE00000000000;

	mov	rax, -35184372088832			; ffffe00000000000H
	mov	QWORD PTR info$[rsp], rax

; 119  : 	debug = info->printf_gui;

	mov	rax, QWORD PTR info$[rsp]
	mov	rax, QWORD PTR [rax+114]
	mov	QWORD PTR ?debug@@3P6AXPEBDZZEA, rax	; debug

; 120  : 	//! Initialize the memory mappings
; 121  : 	pmmngr_init (info);

	mov	rcx, QWORD PTR info$[rsp]
	call	?pmmngr_init@@YAXPEAU_KERNEL_BOOT_INFO_@@@Z ; pmmngr_init

; 122  : 	vmmngr_x86_64_init(); 

	call	?vmmngr_x86_64_init@@YAXXZ		; vmmngr_x86_64_init

; 123  : 	hal_init();

	call	?hal_init@@YAXXZ			; hal_init

; 124  : 	hal_x86_64_setup_int();	

	call	?hal_x86_64_setup_int@@YAXXZ		; hal_x86_64_setup_int

; 125  : 	initialize_serial();

	call	?initialize_serial@@YAXXZ		; initialize_serial

; 126  : 
; 127  : 	initialize_kmemory(0x100000);

	mov	ecx, 1048576				; 00100000H
	call	?initialize_kmemory@@YAX_K@Z		; initialize_kmemory

; 128  : 
; 129  : 	
; 130  : 	initialize_acpi (info->acpi_table_pointer);

	mov	rax, QWORD PTR info$[rsp]
	mov	rcx, QWORD PTR [rax+90]
	call	?initialize_acpi@@YAXPEAX@Z		; initialize_acpi

; 131  : 
; 132  : 	ahci_initialize();

	call	?ahci_initialize@@YAXXZ			; ahci_initialize

; 133  : 	//hda_initialize();
; 134  : 	vfs_init();

	call	?vfs_init@@YAXXZ			; vfs_init

; 135  : 
; 136  :     initialize_screen(info);

	mov	rcx, QWORD PTR info$[rsp]
	call	?initialize_screen@@YAXPEAU_KERNEL_BOOT_INFO_@@@Z ; initialize_screen

; 137  : 	console_initialize(info);

	mov	rcx, QWORD PTR info$[rsp]
	call	?console_initialize@@YAXPEAU_KERNEL_BOOT_INFO_@@@Z ; console_initialize

; 138  : 
; 139  : 	screen_set_configuration(info->X_Resolution,info->Y_Resolution);

	mov	rax, QWORD PTR info$[rsp]
	movzx	eax, WORD PTR [rax+70]
	mov	rcx, QWORD PTR info$[rsp]
	movzx	ecx, WORD PTR [rcx+68]
	mov	edx, eax
	call	?screen_set_configuration@@YAXII@Z	; screen_set_configuration

; 140  : 	initialize_rtc(); 

	call	?initialize_rtc@@YAXXZ			; initialize_rtc

; 141  : 
; 142  : 	initialize_mouse();

	call	?initialize_mouse@@YAXXZ		; initialize_mouse

; 143  : 	kybrd_init();

	call	?kybrd_init@@YAXXZ			; kybrd_init

; 144  : 	message_init ();

	call	?message_init@@YAXXZ			; message_init

; 145  : 	dwm_ipc_init();

	call	?dwm_ipc_init@@YAXXZ			; dwm_ipc_init

; 146  : 	pri_loop_init();

	call	?pri_loop_init@@YAXXZ			; pri_loop_init

; 147  : 	
; 148  : 	e1000_initialize();   //<< receiver not working

	call	?e1000_initialize@@YAXXZ		; e1000_initialize

; 149  : 	//svga_init();
; 150  : 	//sound_initialize();
; 151  : 	driver_mngr_initialize(info);

	mov	rcx, QWORD PTR info$[rsp]
	call	?driver_mngr_initialize@@YAXPEAU_KERNEL_BOOT_INFO_@@@Z ; driver_mngr_initialize

; 152  : 	process_list_initialize();

	call	?process_list_initialize@@YAXXZ		; process_list_initialize

; 153  : 
; 154  : #ifdef ARCH_X64
; 155  : 	//================================================
; 156  : 	//! Initialize the scheduler here
; 157  : 	//!===============================================
; 158  : 	initialize_scheduler();

	call	?initialize_scheduler@@YAXXZ		; initialize_scheduler

; 159  : 
; 160  : 	printf ("Scheduler Initialized\n");

	lea	rcx, OFFSET FLAT:$SG5737
	call	?printf@@YAXPEBDZZ			; printf

; 161  : 
; 162  : 	/* start the sound service manager at id 1 */
; 163  : 	create_process ("/sndsrv.exe","shell");

	lea	rdx, OFFSET FLAT:$SG5738
	lea	rcx, OFFSET FLAT:$SG5739
	call	?create_process@@YAHPEBDPEAD@Z		; create_process

; 164  : 
; 165  : 	/* start the compositing window manager at id 2 */
; 166  : 	create_process ("/priwm.exe","priwm");

	lea	rdx, OFFSET FLAT:$SG5740
	lea	rcx, OFFSET FLAT:$SG5741
	call	?create_process@@YAHPEBDPEAD@Z		; create_process

; 167  : 
; 168  : 	create_process ("/dock.exe", "dock");

	lea	rdx, OFFSET FLAT:$SG5742
	lea	rcx, OFFSET FLAT:$SG5743
	call	?create_process@@YAHPEBDPEAD@Z		; create_process

; 169  : 
; 170  : 	//! Here start the scheduler (multitasking engine)
; 171  : 	scheduler_start();

	call	?scheduler_start@@YAXXZ			; scheduler_start
$LN2@kmain:

; 172  : #endif
; 173  : 
; 174  : 	//! Loop forever
; 175  : 	while(1) {

	xor	eax, eax
	cmp	eax, 1
	je	SHORT $LN1@kmain

; 176  : 		//!looping looping
; 177  : 		x64_cli();

	call	x64_cli

; 178  : 		x64_hlt();

	call	x64_hlt

; 179  : 	}

	jmp	SHORT $LN2@kmain
$LN1@kmain:

; 180  : }

	add	rsp, 56					; 00000038H
	ret	0
?_kmain@@YAXXZ ENDP					; _kmain
_TEXT	ENDS
; Function compile flags: /Odtpy
; File e:\xeneva project\xeneva\aurora\aurora\init.cpp
_TEXT	SEGMENT
text$ = 48
?debug_print@@YAXPEBDZZ PROC				; debug_print

; 109  : void debug_print (const char* text, ...) {

$LN3:
	mov	QWORD PTR [rsp+8], rcx
	mov	QWORD PTR [rsp+16], rdx
	mov	QWORD PTR [rsp+24], r8
	mov	QWORD PTR [rsp+32], r9
	sub	rsp, 40					; 00000028H

; 110  : 	debug(text);

	mov	rcx, QWORD PTR text$[rsp]
	call	QWORD PTR ?debug@@3P6AXPEBDZZEA		; debug

; 111  : }

	add	rsp, 40					; 00000028H
	ret	0
?debug_print@@YAXPEBDZZ ENDP				; debug_print
_TEXT	ENDS
; Function compile flags: /Odtpy
; File e:\xeneva project\xeneva\aurora\aurora\init.cpp
_TEXT	SEGMENT
size$ = 48
??_U@YAPEAX_K@Z PROC					; operator new[]

; 99   : void* __cdecl operator new[] (size_t size) {

$LN3:
	mov	QWORD PTR [rsp+8], rcx
	sub	rsp, 40					; 00000028H

; 100  : 	return malloc(size);

	mov	rcx, QWORD PTR size$[rsp]
	call	?malloc@@YAPEAX_K@Z			; malloc

; 101  : }

	add	rsp, 40					; 00000028H
	ret	0
??_U@YAPEAX_K@Z ENDP					; operator new[]
_TEXT	ENDS
; Function compile flags: /Odtpy
; File e:\xeneva project\xeneva\aurora\aurora\init.cpp
_TEXT	SEGMENT
p$ = 48
??3@YAXPEAX@Z PROC					; operator delete

; 103  : void __cdecl operator delete (void* p) {

$LN3:
	mov	QWORD PTR [rsp+8], rcx
	sub	rsp, 40					; 00000028H

; 104  : 	free(p);

	mov	rcx, QWORD PTR p$[rsp]
	call	?free@@YAXPEAX@Z			; free

; 105  : }

	add	rsp, 40					; 00000028H
	ret	0
??3@YAXPEAX@Z ENDP					; operator delete
_TEXT	ENDS
; Function compile flags: /Odtpy
; File e:\xeneva project\xeneva\aurora\aurora\init.cpp
_TEXT	SEGMENT
size$ = 48
??2@YAPEAX_K@Z PROC					; operator new

; 95   : void* __cdecl ::operator new(size_t size) {

$LN3:
	mov	QWORD PTR [rsp+8], rcx
	sub	rsp, 40					; 00000028H

; 96   : 	return malloc(size);

	mov	rcx, QWORD PTR size$[rsp]
	call	?malloc@@YAPEAX_K@Z			; malloc

; 97   : }

	add	rsp, 40					; 00000028H
	ret	0
??2@YAPEAX_K@Z ENDP					; operator new
_TEXT	ENDS
END
