; Listing generated by Microsoft (R) Optimizing Compiler Version 17.00.50727.1 

include listing.inc

INCLUDELIB LIBCMT
INCLUDELIB OLDNAMES

PUBLIC	?root_cr3@@3PEA_KEA				; root_cr3
_BSS	SEGMENT
?root_cr3@@3PEA_KEA DQ 01H DUP (?)			; root_cr3
_BSS	ENDS
PUBLIC	?pml4_index@@YA_K_K@Z				; pml4_index
PUBLIC	?pdp_index@@YA_K_K@Z				; pdp_index
PUBLIC	?pd_index@@YA_K_K@Z				; pd_index
PUBLIC	?pt_index@@YA_K_K@Z				; pt_index
PUBLIC	?p_index@@YA_K_K@Z				; p_index
PUBLIC	?AuPagingInit@@YAXXZ				; AuPagingInit
PUBLIC	AuMapPage
PUBLIC	?AuMapPageEx@@YA_NPEA_K_K1E@Z			; AuMapPageEx
PUBLIC	?AuUnmapPageEx@@YAXPEA_K_K_N@Z			; AuUnmapPageEx
PUBLIC	AuUnmapPage
PUBLIC	?AuCreateAddressSpace@@YAPEA_KXZ		; AuCreateAddressSpace
PUBLIC	?AuGetPhysicalAddress@@YAPEA_K_K@Z		; AuGetPhysicalAddress
PUBLIC	AuGetFreePage
PUBLIC	?AuGetRootPageTable@@YAPEA_KXZ			; AuGetRootPageTable
PUBLIC	AuFreePages
EXTRN	?AuPmmngrAlloc@@YAPEAXXZ:PROC			; AuPmmngrAlloc
EXTRN	?AuPmmngrFree@@YAXPEAX@Z:PROC			; AuPmmngrFree
EXTRN	?AuPmmngrMoveHigher@@YAXXZ:PROC			; AuPmmngrMoveHigher
EXTRN	?p2v@@YA_K_K@Z:PROC				; p2v
EXTRN	x64_mfence:PROC
EXTRN	x64_read_cr3:PROC
EXTRN	x64_write_cr3:PROC
EXTRN	flush_tlb:PROC
EXTRN	?memset@@YAXPEAXEI@Z:PROC			; memset
pdata	SEGMENT
$pdata$?AuPagingInit@@YAXXZ DD imagerel $LN12
	DD	imagerel $LN12+379
	DD	imagerel $unwind$?AuPagingInit@@YAXXZ
$pdata$AuMapPage DD imagerel $LN7
	DD	imagerel $LN7+619
	DD	imagerel $unwind$AuMapPage
$pdata$?AuMapPageEx@@YA_NPEA_K_K1E@Z DD imagerel $LN9
	DD	imagerel $LN9+639
	DD	imagerel $unwind$?AuMapPageEx@@YA_NPEA_K_K1E@Z
$pdata$?AuUnmapPageEx@@YAXPEA_K_K_N@Z DD imagerel $LN5
	DD	imagerel $LN5+246
	DD	imagerel $unwind$?AuUnmapPageEx@@YAXPEA_K_K_N@Z
$pdata$AuUnmapPage DD imagerel $LN5
	DD	imagerel $LN5+227
	DD	imagerel $unwind$AuUnmapPage
$pdata$?AuCreateAddressSpace@@YAPEA_KXZ DD imagerel $LN9
	DD	imagerel $LN9+249
	DD	imagerel $unwind$?AuCreateAddressSpace@@YAPEA_KXZ
$pdata$?AuGetPhysicalAddress@@YAPEA_K_K@Z DD imagerel $LN4
	DD	imagerel $LN4+171
	DD	imagerel $unwind$?AuGetPhysicalAddress@@YAPEA_K_K@Z
$pdata$AuGetFreePage DD imagerel $LN11
	DD	imagerel $LN11+378
	DD	imagerel $unwind$AuGetFreePage
$pdata$AuFreePages DD imagerel $LN8
	DD	imagerel $LN8+343
	DD	imagerel $unwind$AuFreePages
$pdata$?clear@@YAXPEAX@Z DD imagerel ?clear@@YAXPEAX@Z
	DD	imagerel ?clear@@YAXPEAX@Z+74
	DD	imagerel $unwind$?clear@@YAXPEAX@Z
pdata	ENDS
xdata	SEGMENT
$unwind$?AuPagingInit@@YAXXZ DD 010401H
	DD	0c204H
$unwind$AuMapPage DD 011301H
	DD	0e213H
$unwind$?AuMapPageEx@@YA_NPEA_K_K1E@Z DD 011801H
	DD	0e218H
$unwind$?AuUnmapPageEx@@YAXPEA_K_K_N@Z DD 011301H
	DD	0a213H
$unwind$AuUnmapPage DD 010901H
	DD	0a209H
$unwind$?AuCreateAddressSpace@@YAPEA_KXZ DD 010401H
	DD	08204H
$unwind$?AuGetPhysicalAddress@@YAPEA_K_K@Z DD 010901H
	DD	0a209H
$unwind$AuGetFreePage DD 010d01H
	DD	0c20dH
$unwind$AuFreePages DD 011201H
	DD	0c212H
$unwind$?clear@@YAXPEAX@Z DD 010901H
	DD	02209H
xdata	ENDS
; Function compile flags: /Odtpy
; File e:\xeneva project\xeneva\aurora\aurora\arch\x86_64\paging.cpp
_TEXT	SEGMENT
n$1 = 0
t$ = 8
addr$ = 32
?clear@@YAXPEAX@Z PROC					; clear

; 75   : static void clear(void* addr){

	mov	QWORD PTR [rsp+8], rcx
	sub	rsp, 24

; 76   : 	uint64_t* t = (uint64_t*)addr;

	mov	rax, QWORD PTR addr$[rsp]
	mov	QWORD PTR t$[rsp], rax

; 77   : 	for (size_t n = 0; n < 4096 / sizeof(uint64_t); ++n){

	mov	QWORD PTR n$1[rsp], 0
	jmp	SHORT $LN3@clear
$LN2@clear:
	mov	rax, QWORD PTR n$1[rsp]
	inc	rax
	mov	QWORD PTR n$1[rsp], rax
$LN3@clear:
	cmp	QWORD PTR n$1[rsp], 512			; 00000200H
	jae	SHORT $LN1@clear

; 78   : 		t[n] = 0;

	mov	rax, QWORD PTR t$[rsp]
	mov	rcx, QWORD PTR n$1[rsp]
	mov	QWORD PTR [rax+rcx*8], 0

; 79   : 	}

	jmp	SHORT $LN2@clear
$LN1@clear:

; 80   : }

	add	rsp, 24
	ret	0
?clear@@YAXPEAX@Z ENDP					; clear
_TEXT	ENDS
; Function compile flags: /Odtpy
; File e:\xeneva project\xeneva\aurora\aurora\arch\x86_64\paging.cpp
_TEXT	SEGMENT
i$1 = 32
i1$ = 36
pt$2 = 40
page$3 = 48
tv68 = 56
pml4_$4 = 64
pdpt$5 = 72
pd$6 = 80
virt_addr$ = 112
free_physical$ = 120
s$ = 128
AuFreePages PROC

; 225  : void AuFreePages(uint64_t virt_addr, bool free_physical, size_t s){

$LN8:
	mov	QWORD PTR [rsp+24], r8
	mov	BYTE PTR [rsp+16], dl
	mov	QWORD PTR [rsp+8], rcx
	sub	rsp, 104				; 00000068H

; 226  : 	
; 227  : 	const long i1 = pml4_index(virt_addr);

	mov	rcx, QWORD PTR virt_addr$[rsp]
	call	?pml4_index@@YA_K_K@Z			; pml4_index
	mov	DWORD PTR i1$[rsp], eax

; 228  : 
; 229  : 	for (int i = 0; i < (s /  4096) + 1; i++) {

	mov	DWORD PTR i$1[rsp], 0
	jmp	SHORT $LN5@AuFreePage
$LN4@AuFreePage:
	mov	eax, DWORD PTR i$1[rsp]
	inc	eax
	mov	DWORD PTR i$1[rsp], eax
$LN5@AuFreePage:
	movsxd	rax, DWORD PTR i$1[rsp]
	mov	QWORD PTR tv68[rsp], rax
	xor	edx, edx
	mov	rax, QWORD PTR s$[rsp]
	mov	ecx, 4096				; 00001000H
	div	rcx
	inc	rax
	mov	rcx, QWORD PTR tv68[rsp]
	cmp	rcx, rax
	jae	$LN3@AuFreePage

; 230  : 		uint64_t *pml4_ = (uint64_t*)x64_read_cr3();

	call	x64_read_cr3
	mov	QWORD PTR pml4_$4[rsp], rax

; 231  : 		uint64_t *pdpt = (uint64_t*)(pml4_[pml4_index(virt_addr)] & ~(4096 - 1));

	mov	rcx, QWORD PTR virt_addr$[rsp]
	call	?pml4_index@@YA_K_K@Z			; pml4_index
	mov	rcx, QWORD PTR pml4_$4[rsp]
	mov	rax, QWORD PTR [rcx+rax*8]
	and	rax, -4096				; fffffffffffff000H
	mov	QWORD PTR pdpt$5[rsp], rax

; 232  : 		uint64_t *pd = (uint64_t*)(pdpt[pdp_index(virt_addr)] & ~(4096 - 1));

	mov	rcx, QWORD PTR virt_addr$[rsp]
	call	?pdp_index@@YA_K_K@Z			; pdp_index
	mov	rcx, QWORD PTR pdpt$5[rsp]
	mov	rax, QWORD PTR [rcx+rax*8]
	and	rax, -4096				; fffffffffffff000H
	mov	QWORD PTR pd$6[rsp], rax

; 233  : 		uint64_t *pt = (uint64_t*)(pd[pd_index(virt_addr)] & ~(4096 - 1));

	mov	rcx, QWORD PTR virt_addr$[rsp]
	call	?pd_index@@YA_K_K@Z			; pd_index
	mov	rcx, QWORD PTR pd$6[rsp]
	mov	rax, QWORD PTR [rcx+rax*8]
	and	rax, -4096				; fffffffffffff000H
	mov	QWORD PTR pt$2[rsp], rax

; 234  : 		uint64_t *page = (uint64_t*)(pt[pt_index(virt_addr)] & ~(4096 - 1));

	mov	rcx, QWORD PTR virt_addr$[rsp]
	call	?pt_index@@YA_K_K@Z			; pt_index
	mov	rcx, QWORD PTR pt$2[rsp]
	mov	rax, QWORD PTR [rcx+rax*8]
	and	rax, -4096				; fffffffffffff000H
	mov	QWORD PTR page$3[rsp], rax

; 235  : 
; 236  : 		if ((pt[pt_index(virt_addr)] & PAGING_PRESENT) != 0) {

	mov	rcx, QWORD PTR virt_addr$[rsp]
	call	?pt_index@@YA_K_K@Z			; pt_index
	mov	rcx, QWORD PTR pt$2[rsp]
	mov	rax, QWORD PTR [rcx+rax*8]
	and	rax, 1
	test	rax, rax
	je	SHORT $LN2@AuFreePage

; 237  : 			pt[pt_index(virt_addr)] = 0;

	mov	rcx, QWORD PTR virt_addr$[rsp]
	call	?pt_index@@YA_K_K@Z			; pt_index
	mov	rcx, QWORD PTR pt$2[rsp]
	mov	QWORD PTR [rcx+rax*8], 0
$LN2@AuFreePage:

; 238  : 		}
; 239  : 
; 240  : 		if (free_physical && page != 0) 

	movzx	eax, BYTE PTR free_physical$[rsp]
	test	eax, eax
	je	SHORT $LN1@AuFreePage
	cmp	QWORD PTR page$3[rsp], 0
	je	SHORT $LN1@AuFreePage

; 241  : 			AuPmmngrFree(page);

	mov	rcx, QWORD PTR page$3[rsp]
	call	?AuPmmngrFree@@YAXPEAX@Z		; AuPmmngrFree
$LN1@AuFreePage:

; 242  : 
; 243  : 		virt_addr = virt_addr + i * 4096;

	mov	eax, DWORD PTR i$1[rsp]
	imul	eax, 4096				; 00001000H
	cdqe
	mov	rcx, QWORD PTR virt_addr$[rsp]
	add	rcx, rax
	mov	rax, rcx
	mov	QWORD PTR virt_addr$[rsp], rax

; 244  : 	}

	jmp	$LN4@AuFreePage
$LN3@AuFreePage:

; 245  : 
; 246  : }

	add	rsp, 104				; 00000068H
	ret	0
AuFreePages ENDP
_TEXT	ENDS
; Function compile flags: /Odtpy
; File e:\xeneva project\xeneva\aurora\aurora\arch\x86_64\paging.cpp
_TEXT	SEGMENT
?AuGetRootPageTable@@YAPEA_KXZ PROC			; AuGetRootPageTable

; 389  : 	return root_cr3;

	mov	rax, QWORD PTR ?root_cr3@@3PEA_KEA	; root_cr3

; 390  : }

	ret	0
?AuGetRootPageTable@@YAPEA_KXZ ENDP			; AuGetRootPageTable
_TEXT	ENDS
; Function compile flags: /Odtpy
; File e:\xeneva project\xeneva\aurora\aurora\arch\x86_64\paging.cpp
_TEXT	SEGMENT
start$ = 32
pml4$ = 40
pdpt$1 = 48
pd$2 = 56
pt$3 = 64
page$ = 72
end$ = 80
s$ = 112
user$ = 120
AuGetFreePage PROC

; 353  : uint64_t* AuGetFreePage (size_t s, bool user) {

$LN11:
	mov	BYTE PTR [rsp+16], dl
	mov	QWORD PTR [rsp+8], rcx
	sub	rsp, 104				; 00000068H

; 354  : 	uint64_t* page = 0;

	mov	QWORD PTR page$[rsp], 0

; 355  : 	uint64_t start = 0;

	mov	QWORD PTR start$[rsp], 0

; 356  : 	if (user)

	movzx	eax, BYTE PTR user$[rsp]
	test	eax, eax
	je	SHORT $LN8@AuGetFreeP

; 357  : 		start = USER_BASE_ADDRESS;

	mov	rax, 2199023255552			; 0000020000000000H
	mov	QWORD PTR start$[rsp], rax

; 358  : 	else

	jmp	SHORT $LN7@AuGetFreeP
$LN8@AuGetFreeP:

; 359  : 		start = KERNEL_BASE_ADDRESS;

	mov	rax, -35184372088832			; ffffe00000000000H
	mov	QWORD PTR start$[rsp], rax
$LN7@AuGetFreeP:

; 360  : 
; 361  : 	uint64_t* end = 0;

	mov	QWORD PTR end$[rsp], 0

; 362  : 	uint64_t *pml4 = (uint64_t*)p2v(x64_read_cr3());

	call	x64_read_cr3
	mov	rcx, rax
	call	?p2v@@YA_K_K@Z				; p2v
	mov	QWORD PTR pml4$[rsp], rax
$LN6@AuGetFreeP:

; 363  : 	
; 364  : 	/* Walk through every page tables */
; 365  : 	for (;;) {
; 366  : 		if (!(pml4[pml4_index(start)] & PAGING_PRESENT))

	mov	rcx, QWORD PTR start$[rsp]
	call	?pml4_index@@YA_K_K@Z			; pml4_index
	mov	rcx, QWORD PTR pml4$[rsp]
	mov	rax, QWORD PTR [rcx+rax*8]
	and	rax, 1
	test	rax, rax
	jne	SHORT $LN4@AuGetFreeP

; 367  : 			return (uint64_t*)start;

	mov	rax, QWORD PTR start$[rsp]
	jmp	$LN9@AuGetFreeP
$LN4@AuGetFreeP:

; 368  : 
; 369  : 		uint64_t *pdpt = (uint64_t*)(p2v(pml4[pml4_index(start)]) & ~(4096 - 1));

	mov	rcx, QWORD PTR start$[rsp]
	call	?pml4_index@@YA_K_K@Z			; pml4_index
	mov	rcx, QWORD PTR pml4$[rsp]
	mov	rcx, QWORD PTR [rcx+rax*8]
	call	?p2v@@YA_K_K@Z				; p2v
	and	rax, -4096				; fffffffffffff000H
	mov	QWORD PTR pdpt$1[rsp], rax

; 370  : 		if (!(pdpt[pdp_index(start)] & PAGING_PRESENT))

	mov	rcx, QWORD PTR start$[rsp]
	call	?pdp_index@@YA_K_K@Z			; pdp_index
	mov	rcx, QWORD PTR pdpt$1[rsp]
	mov	rax, QWORD PTR [rcx+rax*8]
	and	rax, 1
	test	rax, rax
	jne	SHORT $LN3@AuGetFreeP

; 371  : 			return (uint64_t*)start;

	mov	rax, QWORD PTR start$[rsp]
	jmp	$LN9@AuGetFreeP
$LN3@AuGetFreeP:

; 372  : 
; 373  : 		uint64_t *pd = (uint64_t*)(p2v(pdpt[pdp_index(start)]) & ~(4096 - 1));

	mov	rcx, QWORD PTR start$[rsp]
	call	?pdp_index@@YA_K_K@Z			; pdp_index
	mov	rcx, QWORD PTR pdpt$1[rsp]
	mov	rcx, QWORD PTR [rcx+rax*8]
	call	?p2v@@YA_K_K@Z				; p2v
	and	rax, -4096				; fffffffffffff000H
	mov	QWORD PTR pd$2[rsp], rax

; 374  : 		if (!(pd[pd_index(start)] & PAGING_PRESENT))

	mov	rcx, QWORD PTR start$[rsp]
	call	?pd_index@@YA_K_K@Z			; pd_index
	mov	rcx, QWORD PTR pd$2[rsp]
	mov	rax, QWORD PTR [rcx+rax*8]
	and	rax, 1
	test	rax, rax
	jne	SHORT $LN2@AuGetFreeP

; 375  : 			return (uint64_t*)start;

	mov	rax, QWORD PTR start$[rsp]
	jmp	SHORT $LN9@AuGetFreeP
$LN2@AuGetFreeP:

; 376  : 
; 377  : 		uint64_t *pt = (uint64_t*)(p2v(pd[pd_index(start)]) & ~(4096 - 1));

	mov	rcx, QWORD PTR start$[rsp]
	call	?pd_index@@YA_K_K@Z			; pd_index
	mov	rcx, QWORD PTR pd$2[rsp]
	mov	rcx, QWORD PTR [rcx+rax*8]
	call	?p2v@@YA_K_K@Z				; p2v
	and	rax, -4096				; fffffffffffff000H
	mov	QWORD PTR pt$3[rsp], rax

; 378  : 
; 379  : 		if (!(pt[pt_index(start)] & PAGING_PRESENT))

	mov	rcx, QWORD PTR start$[rsp]
	call	?pt_index@@YA_K_K@Z			; pt_index
	mov	rcx, QWORD PTR pt$3[rsp]
	mov	rax, QWORD PTR [rcx+rax*8]
	and	rax, 1
	test	rax, rax
	jne	SHORT $LN1@AuGetFreeP

; 380  : 			return (uint64_t*)start;

	mov	rax, QWORD PTR start$[rsp]
	jmp	SHORT $LN9@AuGetFreeP
$LN1@AuGetFreeP:

; 381  : 		
; 382  : 		start += 4096;

	mov	rax, QWORD PTR start$[rsp]
	add	rax, 4096				; 00001000H
	mov	QWORD PTR start$[rsp], rax

; 383  : 	}

	jmp	$LN6@AuGetFreeP

; 384  : 	return 0;

	xor	eax, eax
$LN9@AuGetFreeP:

; 385  : }

	add	rsp, 104				; 00000068H
	ret	0
AuGetFreePage ENDP
_TEXT	ENDS
; Function compile flags: /Odtpy
; File e:\xeneva project\xeneva\aurora\aurora\arch\x86_64\paging.cpp
_TEXT	SEGMENT
i1$ = 32
page$ = 40
pml4$ = 48
pdpt$ = 56
pd$ = 64
pt$ = 72
virt_addr$ = 96
?AuGetPhysicalAddress@@YAPEA_K_K@Z PROC			; AuGetPhysicalAddress

; 250  : uint64_t* AuGetPhysicalAddress (uint64_t virt_addr) {

$LN4:
	mov	QWORD PTR [rsp+8], rcx
	sub	rsp, 88					; 00000058H

; 251  : 	const long i1 = pml4_index(virt_addr);

	mov	rcx, QWORD PTR virt_addr$[rsp]
	call	?pml4_index@@YA_K_K@Z			; pml4_index
	mov	DWORD PTR i1$[rsp], eax

; 252  : 
; 253  : 	uint64_t *pml4 = (uint64_t*)x64_read_cr3();

	call	x64_read_cr3
	mov	QWORD PTR pml4$[rsp], rax

; 254  : 	uint64_t *pdpt = (uint64_t*)(pml4[pml4_index(virt_addr)] & ~(4096 - 1));

	mov	rcx, QWORD PTR virt_addr$[rsp]
	call	?pml4_index@@YA_K_K@Z			; pml4_index
	mov	rcx, QWORD PTR pml4$[rsp]
	mov	rax, QWORD PTR [rcx+rax*8]
	and	rax, -4096				; fffffffffffff000H
	mov	QWORD PTR pdpt$[rsp], rax

; 255  : 	uint64_t *pd = (uint64_t*)(pdpt[pdp_index(virt_addr)] & ~(4096 - 1));

	mov	rcx, QWORD PTR virt_addr$[rsp]
	call	?pdp_index@@YA_K_K@Z			; pdp_index
	mov	rcx, QWORD PTR pdpt$[rsp]
	mov	rax, QWORD PTR [rcx+rax*8]
	and	rax, -4096				; fffffffffffff000H
	mov	QWORD PTR pd$[rsp], rax

; 256  : 	uint64_t *pt = (uint64_t*)(pd[pd_index(virt_addr)] & ~(4096 - 1));

	mov	rcx, QWORD PTR virt_addr$[rsp]
	call	?pd_index@@YA_K_K@Z			; pd_index
	mov	rcx, QWORD PTR pd$[rsp]
	mov	rax, QWORD PTR [rcx+rax*8]
	and	rax, -4096				; fffffffffffff000H
	mov	QWORD PTR pt$[rsp], rax

; 257  : 	uint64_t *page = (uint64_t*)(pt[pt_index(virt_addr)] & ~(4096 - 1));

	mov	rcx, QWORD PTR virt_addr$[rsp]
	call	?pt_index@@YA_K_K@Z			; pt_index
	mov	rcx, QWORD PTR pt$[rsp]
	mov	rax, QWORD PTR [rcx+rax*8]
	and	rax, -4096				; fffffffffffff000H
	mov	QWORD PTR page$[rsp], rax

; 258  : 
; 259  : 	if (page != NULL)

	cmp	QWORD PTR page$[rsp], 0
	je	SHORT $LN1@AuGetPhysi

; 260  : 		return page;

	mov	rax, QWORD PTR page$[rsp]
$LN1@AuGetPhysi:

; 261  : }

	add	rsp, 88					; 00000058H
	ret	0
?AuGetPhysicalAddress@@YAPEA_K_K@Z ENDP			; AuGetPhysicalAddress
_TEXT	ENDS
; Function compile flags: /Odtpy
; File e:\xeneva project\xeneva\aurora\aurora\arch\x86_64\paging.cpp
_TEXT	SEGMENT
i$1 = 32
new_cr3$ = 40
cr3$ = 48
?AuCreateAddressSpace@@YAPEA_KXZ PROC			; AuCreateAddressSpace

; 325  : uint64_t *AuCreateAddressSpace (){

$LN9:
	sub	rsp, 72					; 00000048H

; 326  : 	
; 327  : 	uint64_t *cr3 = (uint64_t*)root_cr3; //x64_read_cr3();

	mov	rax, QWORD PTR ?root_cr3@@3PEA_KEA	; root_cr3
	mov	QWORD PTR cr3$[rsp], rax

; 328  : 	uint64_t *new_cr3 = (uint64_t*)p2v((size_t)AuPmmngrAlloc());

	call	?AuPmmngrAlloc@@YAPEAXXZ		; AuPmmngrAlloc
	mov	rcx, rax
	call	?p2v@@YA_K_K@Z				; p2v
	mov	QWORD PTR new_cr3$[rsp], rax

; 329  : 	memset(new_cr3,0,4096);

	mov	r8d, 4096				; 00001000H
	xor	edx, edx
	mov	rcx, QWORD PTR new_cr3$[rsp]
	call	?memset@@YAXPEAXEI@Z			; memset

; 330  : 
; 331  : 	//! For now, copy the 4 GiB identity mapping from old pml4
; 332  : 	//! but later, we should avoid this by mapping only those physical
; 333  : 	//! addresses that are needed, like physical addresses allocated for 
; 334  : 	//! paging tables creations and memory mapped I/O which are not
; 335  : 	//! virtually allocated in higher half sections
; 336  : 	new_cr3[0] = cr3[0];

	mov	eax, 8
	imul	rax, 0
	mov	ecx, 8
	imul	rcx, 0
	mov	rdx, QWORD PTR new_cr3$[rsp]
	mov	r8, QWORD PTR cr3$[rsp]
	mov	rax, QWORD PTR [r8+rax]
	mov	QWORD PTR [rdx+rcx], rax

; 337  : 	new_cr3[1] = cr3[1];

	mov	eax, 8
	imul	rax, 1
	mov	ecx, 8
	imul	rcx, 1
	mov	rdx, QWORD PTR new_cr3$[rsp]
	mov	r8, QWORD PTR cr3$[rsp]
	mov	rax, QWORD PTR [r8+rax]
	mov	QWORD PTR [rdx+rcx], rax

; 338  : 
; 339  : 	//! Copy Kernel's Higher Half section
; 340  : 	for (int i = 0; i < 512; i++) {

	mov	DWORD PTR i$1[rsp], 0
	jmp	SHORT $LN6@AuCreateAd
$LN5@AuCreateAd:
	mov	eax, DWORD PTR i$1[rsp]
	inc	eax
	mov	DWORD PTR i$1[rsp], eax
$LN6@AuCreateAd:
	cmp	DWORD PTR i$1[rsp], 512			; 00000200H
	jge	SHORT $LN4@AuCreateAd

; 341  : 		if (i < 256)

	cmp	DWORD PTR i$1[rsp], 256			; 00000100H
	jge	SHORT $LN3@AuCreateAd

; 342  : 			continue;

	jmp	SHORT $LN5@AuCreateAd
$LN3@AuCreateAd:

; 343  : 		if ((cr3[i] & PAGING_PRESENT))

	movsxd	rax, DWORD PTR i$1[rsp]
	mov	rcx, QWORD PTR cr3$[rsp]
	mov	rax, QWORD PTR [rcx+rax*8]
	and	rax, 1
	test	rax, rax
	je	SHORT $LN2@AuCreateAd

; 344  : 			new_cr3[i] = cr3[i];

	movsxd	rax, DWORD PTR i$1[rsp]
	movsxd	rcx, DWORD PTR i$1[rsp]
	mov	rdx, QWORD PTR new_cr3$[rsp]
	mov	r8, QWORD PTR cr3$[rsp]
	mov	rax, QWORD PTR [r8+rax*8]
	mov	QWORD PTR [rdx+rcx*8], rax

; 345  : 		else

	jmp	SHORT $LN1@AuCreateAd
$LN2@AuCreateAd:

; 346  : 			new_cr3[i] = 0;

	movsxd	rax, DWORD PTR i$1[rsp]
	mov	rcx, QWORD PTR new_cr3$[rsp]
	mov	QWORD PTR [rcx+rax*8], 0
$LN1@AuCreateAd:

; 347  : 	}

	jmp	SHORT $LN5@AuCreateAd
$LN4@AuCreateAd:

; 348  : 
; 349  : 	return new_cr3;

	mov	rax, QWORD PTR new_cr3$[rsp]

; 350  : }

	add	rsp, 72					; 00000048H
	ret	0
?AuCreateAddressSpace@@YAPEA_KXZ ENDP			; AuCreateAddressSpace
_TEXT	ENDS
; Function compile flags: /Odtpy
; File e:\xeneva project\xeneva\aurora\aurora\arch\x86_64\paging.cpp
_TEXT	SEGMENT
i1$ = 32
pt$ = 40
page$ = 48
pml4_$ = 56
pdpt$ = 64
pd$ = 72
virt_addr$ = 96
AuUnmapPage PROC

; 186  : void AuUnmapPage(uint64_t virt_addr){

$LN5:
	mov	QWORD PTR [rsp+8], rcx
	sub	rsp, 88					; 00000058H

; 187  : 	
; 188  : 	const long i1 = pml4_index(virt_addr);

	mov	rcx, QWORD PTR virt_addr$[rsp]
	call	?pml4_index@@YA_K_K@Z			; pml4_index
	mov	DWORD PTR i1$[rsp], eax

; 189  : 
; 190  : 	uint64_t *pml4_ = (uint64_t*)x64_read_cr3();

	call	x64_read_cr3
	mov	QWORD PTR pml4_$[rsp], rax

; 191  : 	uint64_t *pdpt = (uint64_t*)(pml4_[pml4_index(virt_addr)] & ~(4096 - 1));

	mov	rcx, QWORD PTR virt_addr$[rsp]
	call	?pml4_index@@YA_K_K@Z			; pml4_index
	mov	rcx, QWORD PTR pml4_$[rsp]
	mov	rax, QWORD PTR [rcx+rax*8]
	and	rax, -4096				; fffffffffffff000H
	mov	QWORD PTR pdpt$[rsp], rax

; 192  : 	uint64_t *pd = (uint64_t*)(pdpt[pdp_index(virt_addr)] & ~(4096 - 1));

	mov	rcx, QWORD PTR virt_addr$[rsp]
	call	?pdp_index@@YA_K_K@Z			; pdp_index
	mov	rcx, QWORD PTR pdpt$[rsp]
	mov	rax, QWORD PTR [rcx+rax*8]
	and	rax, -4096				; fffffffffffff000H
	mov	QWORD PTR pd$[rsp], rax

; 193  : 	uint64_t *pt = (uint64_t*)(pd[pd_index(virt_addr)] & ~(4096 - 1));

	mov	rcx, QWORD PTR virt_addr$[rsp]
	call	?pd_index@@YA_K_K@Z			; pd_index
	mov	rcx, QWORD PTR pd$[rsp]
	mov	rax, QWORD PTR [rcx+rax*8]
	and	rax, -4096				; fffffffffffff000H
	mov	QWORD PTR pt$[rsp], rax

; 194  : 	uint64_t *page = (uint64_t*)(pt[pt_index(virt_addr)] & ~(4096 - 1));

	mov	rcx, QWORD PTR virt_addr$[rsp]
	call	?pt_index@@YA_K_K@Z			; pt_index
	mov	rcx, QWORD PTR pt$[rsp]
	mov	rax, QWORD PTR [rcx+rax*8]
	and	rax, -4096				; fffffffffffff000H
	mov	QWORD PTR page$[rsp], rax

; 195  : 	
; 196  : 	if ((pt[pt_index(virt_addr)] & PAGING_PRESENT) != 0) {

	mov	rcx, QWORD PTR virt_addr$[rsp]
	call	?pt_index@@YA_K_K@Z			; pt_index
	mov	rcx, QWORD PTR pt$[rsp]
	mov	rax, QWORD PTR [rcx+rax*8]
	and	rax, 1
	test	rax, rax
	je	SHORT $LN2@AuUnmapPag

; 197  : 		
; 198  : 		pt[pt_index(virt_addr)] = 0;

	mov	rcx, QWORD PTR virt_addr$[rsp]
	call	?pt_index@@YA_K_K@Z			; pt_index
	mov	rcx, QWORD PTR pt$[rsp]
	mov	QWORD PTR [rcx+rax*8], 0
$LN2@AuUnmapPag:

; 199  : 	}
; 200  : 	if (page != 0)

	cmp	QWORD PTR page$[rsp], 0
	je	SHORT $LN1@AuUnmapPag

; 201  : 		AuPmmngrFree(page);

	mov	rcx, QWORD PTR page$[rsp]
	call	?AuPmmngrFree@@YAXPEAX@Z		; AuPmmngrFree
$LN1@AuUnmapPag:

; 202  : }

	add	rsp, 88					; 00000058H
	ret	0
AuUnmapPage ENDP
_TEXT	ENDS
; Function compile flags: /Odtpy
; File e:\xeneva project\xeneva\aurora\aurora\arch\x86_64\paging.cpp
_TEXT	SEGMENT
i1$ = 32
pt$ = 40
page$ = 48
pml4_$ = 56
pdpt$ = 64
pd$ = 72
cr3$ = 96
virt_addr$ = 104
free_physical$ = 112
?AuUnmapPageEx@@YAXPEA_K_K_N@Z PROC			; AuUnmapPageEx

; 205  : void AuUnmapPageEx(uint64_t* cr3, uint64_t virt_addr, bool free_physical){

$LN5:
	mov	BYTE PTR [rsp+24], r8b
	mov	QWORD PTR [rsp+16], rdx
	mov	QWORD PTR [rsp+8], rcx
	sub	rsp, 88					; 00000058H

; 206  : 	
; 207  : 	const long i1 = pml4_index(virt_addr);

	mov	rcx, QWORD PTR virt_addr$[rsp]
	call	?pml4_index@@YA_K_K@Z			; pml4_index
	mov	DWORD PTR i1$[rsp], eax

; 208  : 
; 209  : 	uint64_t *pml4_ = cr3;

	mov	rax, QWORD PTR cr3$[rsp]
	mov	QWORD PTR pml4_$[rsp], rax

; 210  : 	uint64_t *pdpt = (uint64_t*)(pml4_[pml4_index(virt_addr)] & ~(4096 - 1));

	mov	rcx, QWORD PTR virt_addr$[rsp]
	call	?pml4_index@@YA_K_K@Z			; pml4_index
	mov	rcx, QWORD PTR pml4_$[rsp]
	mov	rax, QWORD PTR [rcx+rax*8]
	and	rax, -4096				; fffffffffffff000H
	mov	QWORD PTR pdpt$[rsp], rax

; 211  : 	uint64_t *pd = (uint64_t*)(pdpt[pdp_index(virt_addr)] & ~(4096 - 1));

	mov	rcx, QWORD PTR virt_addr$[rsp]
	call	?pdp_index@@YA_K_K@Z			; pdp_index
	mov	rcx, QWORD PTR pdpt$[rsp]
	mov	rax, QWORD PTR [rcx+rax*8]
	and	rax, -4096				; fffffffffffff000H
	mov	QWORD PTR pd$[rsp], rax

; 212  : 	uint64_t *pt = (uint64_t*)(pd[pd_index(virt_addr)] & ~(4096 - 1));

	mov	rcx, QWORD PTR virt_addr$[rsp]
	call	?pd_index@@YA_K_K@Z			; pd_index
	mov	rcx, QWORD PTR pd$[rsp]
	mov	rax, QWORD PTR [rcx+rax*8]
	and	rax, -4096				; fffffffffffff000H
	mov	QWORD PTR pt$[rsp], rax

; 213  : 	uint64_t *page = (uint64_t*)(pt[pt_index(virt_addr)] & ~(4096 - 1));

	mov	rcx, QWORD PTR virt_addr$[rsp]
	call	?pt_index@@YA_K_K@Z			; pt_index
	mov	rcx, QWORD PTR pt$[rsp]
	mov	rax, QWORD PTR [rcx+rax*8]
	and	rax, -4096				; fffffffffffff000H
	mov	QWORD PTR page$[rsp], rax

; 214  : 
; 215  : 	if ((pt[pt_index(virt_addr)] & PAGING_PRESENT) != 0) {

	mov	rcx, QWORD PTR virt_addr$[rsp]
	call	?pt_index@@YA_K_K@Z			; pt_index
	mov	rcx, QWORD PTR pt$[rsp]
	mov	rax, QWORD PTR [rcx+rax*8]
	and	rax, 1
	test	rax, rax
	je	SHORT $LN2@AuUnmapPag

; 216  : 		pt[pt_index(virt_addr)] = 0;

	mov	rcx, QWORD PTR virt_addr$[rsp]
	call	?pt_index@@YA_K_K@Z			; pt_index
	mov	rcx, QWORD PTR pt$[rsp]
	mov	QWORD PTR [rcx+rax*8], 0
$LN2@AuUnmapPag:

; 217  : 	}
; 218  : 
; 219  : 	if (free_physical && page != 0) 

	movzx	eax, BYTE PTR free_physical$[rsp]
	test	eax, eax
	je	SHORT $LN1@AuUnmapPag
	cmp	QWORD PTR page$[rsp], 0
	je	SHORT $LN1@AuUnmapPag

; 220  : 		AuPmmngrFree(page);

	mov	rcx, QWORD PTR page$[rsp]
	call	?AuPmmngrFree@@YAXPEAX@Z		; AuPmmngrFree
$LN1@AuUnmapPag:

; 221  : 
; 222  : }

	add	rsp, 88					; 00000058H
	ret	0
?AuUnmapPageEx@@YAXPEA_K_K_N@Z ENDP			; AuUnmapPageEx
_TEXT	ENDS
; Function compile flags: /Odtpy
; File e:\xeneva project\xeneva\aurora\aurora\arch\x86_64\paging.cpp
_TEXT	SEGMENT
i2$ = 32
i4$ = 36
i3$ = 40
flags$ = 48
i1$ = 56
page$1 = 64
page$2 = 72
page$3 = 80
pml2$ = 88
pml3$ = 96
pml1$ = 104
pml4i$ = 128
physical_address$ = 136
virtual_address$ = 144
attrib$ = 152
?AuMapPageEx@@YA_NPEA_K_K1E@Z PROC			; AuMapPageEx

; 265  : bool AuMapPageEx (uint64_t *pml4i,uint64_t physical_address, uint64_t virtual_address, uint8_t attrib){

$LN9:
	mov	BYTE PTR [rsp+32], r9b
	mov	QWORD PTR [rsp+24], r8
	mov	QWORD PTR [rsp+16], rdx
	mov	QWORD PTR [rsp+8], rcx
	sub	rsp, 120				; 00000078H

; 266  : 
; 267  : 
; 268  : 	size_t flags = 0;

	mov	QWORD PTR flags$[rsp], 0

; 269  : 	if (attrib == PAGING_USER)

	movzx	eax, BYTE PTR attrib$[rsp]
	cmp	eax, 4
	jne	SHORT $LN6@AuMapPageE

; 270  : 		flags  = PAGING_PRESENT | PAGING_WRITABLE | PAGING_USER;

	mov	QWORD PTR flags$[rsp], 7

; 271  : 	else

	jmp	SHORT $LN5@AuMapPageE
$LN6@AuMapPageE:

; 272  : 		flags = PAGING_PRESENT | PAGING_WRITABLE;

	mov	QWORD PTR flags$[rsp], 3
$LN5@AuMapPageE:

; 273  : 
; 274  : 	const long i4 = (virtual_address >> 39) & 0x1FF;

	mov	rax, QWORD PTR virtual_address$[rsp]
	shr	rax, 39					; 00000027H
	and	rax, 511				; 000001ffH
	mov	DWORD PTR i4$[rsp], eax

; 275  : 	const long i3 = (virtual_address >> 30) & 0x1FF;

	mov	rax, QWORD PTR virtual_address$[rsp]
	shr	rax, 30
	and	rax, 511				; 000001ffH
	mov	DWORD PTR i3$[rsp], eax

; 276  : 	const long i2 = (virtual_address >> 21) & 0x1FF;

	mov	rax, QWORD PTR virtual_address$[rsp]
	shr	rax, 21
	and	rax, 511				; 000001ffH
	mov	DWORD PTR i2$[rsp], eax

; 277  : 	const long i1 = (virtual_address >> 12) & 0x1FF;

	mov	rax, QWORD PTR virtual_address$[rsp]
	shr	rax, 12
	and	rax, 511				; 000001ffH
	mov	DWORD PTR i1$[rsp], eax

; 278  : 
; 279  : 	if (!(pml4i[i4] & PAGING_PRESENT)){

	movsxd	rax, DWORD PTR i4$[rsp]
	mov	rcx, QWORD PTR pml4i$[rsp]
	mov	rax, QWORD PTR [rcx+rax*8]
	and	rax, 1
	test	rax, rax
	jne	SHORT $LN4@AuMapPageE

; 280  : 		const uint64_t page = (uint64_t)AuPmmngrAlloc();

	call	?AuPmmngrAlloc@@YAPEAXXZ		; AuPmmngrAlloc
	mov	QWORD PTR page$1[rsp], rax

; 281  : 		pml4i[i4] = page | flags;

	mov	rax, QWORD PTR flags$[rsp]
	mov	rcx, QWORD PTR page$1[rsp]
	or	rcx, rax
	mov	rax, rcx
	movsxd	rcx, DWORD PTR i4$[rsp]
	mov	rdx, QWORD PTR pml4i$[rsp]
	mov	QWORD PTR [rdx+rcx*8], rax

; 282  : 		clear((void*)p2v(page));

	mov	rcx, QWORD PTR page$1[rsp]
	call	?p2v@@YA_K_K@Z				; p2v
	mov	rcx, rax
	call	?clear@@YAXPEAX@Z			; clear

; 283  : 		flush_tlb((void*)page);

	mov	rcx, QWORD PTR page$1[rsp]
	call	flush_tlb

; 284  : 		x64_mfence();

	call	x64_mfence
$LN4@AuMapPageE:

; 285  : 	}
; 286  : 	uint64_t* pml3 = (uint64_t*)(p2v(pml4i[i4]) & ~(4096 - 1));

	movsxd	rax, DWORD PTR i4$[rsp]
	mov	rcx, QWORD PTR pml4i$[rsp]
	mov	rcx, QWORD PTR [rcx+rax*8]
	call	?p2v@@YA_K_K@Z				; p2v
	and	rax, -4096				; fffffffffffff000H
	mov	QWORD PTR pml3$[rsp], rax

; 287  : 
; 288  : 	if (!(pml3[i3] & PAGING_PRESENT)){

	movsxd	rax, DWORD PTR i3$[rsp]
	mov	rcx, QWORD PTR pml3$[rsp]
	mov	rax, QWORD PTR [rcx+rax*8]
	and	rax, 1
	test	rax, rax
	jne	SHORT $LN3@AuMapPageE

; 289  : 		const uint64_t page = (uint64_t)AuPmmngrAlloc();

	call	?AuPmmngrAlloc@@YAPEAXXZ		; AuPmmngrAlloc
	mov	QWORD PTR page$3[rsp], rax

; 290  : 		pml3[i3] = page | flags;

	mov	rax, QWORD PTR flags$[rsp]
	mov	rcx, QWORD PTR page$3[rsp]
	or	rcx, rax
	mov	rax, rcx
	movsxd	rcx, DWORD PTR i3$[rsp]
	mov	rdx, QWORD PTR pml3$[rsp]
	mov	QWORD PTR [rdx+rcx*8], rax

; 291  : 		clear((void*)p2v(page));

	mov	rcx, QWORD PTR page$3[rsp]
	call	?p2v@@YA_K_K@Z				; p2v
	mov	rcx, rax
	call	?clear@@YAXPEAX@Z			; clear

; 292  : 		flush_tlb((void*)page);

	mov	rcx, QWORD PTR page$3[rsp]
	call	flush_tlb

; 293  : 		x64_mfence();

	call	x64_mfence
$LN3@AuMapPageE:

; 294  : 		
; 295  : 	}
; 296  : 
; 297  : 	uint64_t* pml2 = (uint64_t*)(p2v(pml3[i3]) & ~(4096 - 1));

	movsxd	rax, DWORD PTR i3$[rsp]
	mov	rcx, QWORD PTR pml3$[rsp]
	mov	rcx, QWORD PTR [rcx+rax*8]
	call	?p2v@@YA_K_K@Z				; p2v
	and	rax, -4096				; fffffffffffff000H
	mov	QWORD PTR pml2$[rsp], rax

; 298  : 	if (!(pml2[i2] & PAGING_PRESENT)){

	movsxd	rax, DWORD PTR i2$[rsp]
	mov	rcx, QWORD PTR pml2$[rsp]
	mov	rax, QWORD PTR [rcx+rax*8]
	and	rax, 1
	test	rax, rax
	jne	SHORT $LN2@AuMapPageE

; 299  : 
; 300  : 		const uint64_t page = (uint64_t)AuPmmngrAlloc();

	call	?AuPmmngrAlloc@@YAPEAXXZ		; AuPmmngrAlloc
	mov	QWORD PTR page$2[rsp], rax

; 301  : 		pml2[i2] = page | flags;

	mov	rax, QWORD PTR flags$[rsp]
	mov	rcx, QWORD PTR page$2[rsp]
	or	rcx, rax
	mov	rax, rcx
	movsxd	rcx, DWORD PTR i2$[rsp]
	mov	rdx, QWORD PTR pml2$[rsp]
	mov	QWORD PTR [rdx+rcx*8], rax

; 302  : 		clear((void*)p2v(page));

	mov	rcx, QWORD PTR page$2[rsp]
	call	?p2v@@YA_K_K@Z				; p2v
	mov	rcx, rax
	call	?clear@@YAXPEAX@Z			; clear

; 303  : 		flush_tlb((void*)page);

	mov	rcx, QWORD PTR page$2[rsp]
	call	flush_tlb

; 304  : 		x64_mfence();

	call	x64_mfence
$LN2@AuMapPageE:

; 305  : 		
; 306  : 	}
; 307  : 
; 308  : 	uint64_t* pml1 = (uint64_t*)(p2v(pml2[i2]) & ~(4096 - 1));

	movsxd	rax, DWORD PTR i2$[rsp]
	mov	rcx, QWORD PTR pml2$[rsp]
	mov	rcx, QWORD PTR [rcx+rax*8]
	call	?p2v@@YA_K_K@Z				; p2v
	and	rax, -4096				; fffffffffffff000H
	mov	QWORD PTR pml1$[rsp], rax

; 309  : 
; 310  : 	if (pml1[i1] & PAGING_PRESENT){

	movsxd	rax, DWORD PTR i1$[rsp]
	mov	rcx, QWORD PTR pml1$[rsp]
	mov	rax, QWORD PTR [rcx+rax*8]
	and	rax, 1
	test	rax, rax
	je	SHORT $LN1@AuMapPageE

; 311  : 		AuPmmngrFree((void*)physical_address);

	mov	rcx, QWORD PTR physical_address$[rsp]
	call	?AuPmmngrFree@@YAXPEAX@Z		; AuPmmngrFree

; 312  : 		return false;

	xor	al, al
	jmp	SHORT $LN7@AuMapPageE
$LN1@AuMapPageE:

; 313  : 	}
; 314  : 
; 315  : 	pml1[i1] = physical_address | flags;

	mov	rax, QWORD PTR flags$[rsp]
	mov	rcx, QWORD PTR physical_address$[rsp]
	or	rcx, rax
	mov	rax, rcx
	movsxd	rcx, DWORD PTR i1$[rsp]
	mov	rdx, QWORD PTR pml1$[rsp]
	mov	QWORD PTR [rdx+rcx*8], rax

; 316  : 	flush_tlb ((void*)virtual_address);

	mov	rcx, QWORD PTR virtual_address$[rsp]
	call	flush_tlb

; 317  : 	x64_mfence ();

	call	x64_mfence

; 318  : 	return true;

	mov	al, 1
$LN7@AuMapPageE:

; 319  : }

	add	rsp, 120				; 00000078H
	ret	0
?AuMapPageEx@@YA_NPEA_K_K1E@Z ENDP			; AuMapPageEx
_TEXT	ENDS
; Function compile flags: /Odtpy
; File e:\xeneva project\xeneva\aurora\aurora\arch\x86_64\paging.cpp
_TEXT	SEGMENT
i2$ = 32
i4$ = 36
i3$ = 40
i1$ = 44
flags$ = 48
page$1 = 56
pml3$ = 64
page$2 = 72
page$3 = 80
pml2$ = 88
pml4i$ = 96
pml1$ = 104
physical_address$ = 128
virtual_address$ = 136
attrib$ = 144
AuMapPage PROC

; 127  : bool AuMapPage(uint64_t physical_address, uint64_t virtual_address, uint8_t attrib){

$LN7:
	mov	BYTE PTR [rsp+24], r8b
	mov	QWORD PTR [rsp+16], rdx
	mov	QWORD PTR [rsp+8], rcx
	sub	rsp, 120				; 00000078H

; 128  : 	size_t flags = PAGING_WRITABLE | PAGING_PRESENT | attrib;

	movzx	eax, BYTE PTR attrib$[rsp]
	or	eax, 3
	cdqe
	mov	QWORD PTR flags$[rsp], rax

; 129  : 	
; 130  : 	const long i4 = (virtual_address >> 39) & 0x1FF;

	mov	rax, QWORD PTR virtual_address$[rsp]
	shr	rax, 39					; 00000027H
	and	rax, 511				; 000001ffH
	mov	DWORD PTR i4$[rsp], eax

; 131  : 	const long i3 = (virtual_address >> 30) & 0x1FF;

	mov	rax, QWORD PTR virtual_address$[rsp]
	shr	rax, 30
	and	rax, 511				; 000001ffH
	mov	DWORD PTR i3$[rsp], eax

; 132  : 	const long i2 = (virtual_address >> 21) & 0x1FF;

	mov	rax, QWORD PTR virtual_address$[rsp]
	shr	rax, 21
	and	rax, 511				; 000001ffH
	mov	DWORD PTR i2$[rsp], eax

; 133  : 	const long i1 = (virtual_address >> 12) & 0x1FF;

	mov	rax, QWORD PTR virtual_address$[rsp]
	shr	rax, 12
	and	rax, 511				; 000001ffH
	mov	DWORD PTR i1$[rsp], eax

; 134  : 
; 135  : 	uint64_t *pml4i = (uint64_t*)p2v(x64_read_cr3());

	call	x64_read_cr3
	mov	rcx, rax
	call	?p2v@@YA_K_K@Z				; p2v
	mov	QWORD PTR pml4i$[rsp], rax

; 136  : 
; 137  : 	if (!(pml4i[i4] & PAGING_PRESENT))

	movsxd	rax, DWORD PTR i4$[rsp]
	mov	rcx, QWORD PTR pml4i$[rsp]
	mov	rax, QWORD PTR [rcx+rax*8]
	and	rax, 1
	test	rax, rax
	jne	SHORT $LN4@AuMapPage

; 138  : 	{
; 139  : 		
; 140  : 		const uint64_t page = (uint64_t)AuPmmngrAlloc();

	call	?AuPmmngrAlloc@@YAPEAXXZ		; AuPmmngrAlloc
	mov	QWORD PTR page$1[rsp], rax

; 141  : 		pml4i[i4] = page | flags;

	mov	rax, QWORD PTR flags$[rsp]
	mov	rcx, QWORD PTR page$1[rsp]
	or	rcx, rax
	mov	rax, rcx
	movsxd	rcx, DWORD PTR i4$[rsp]
	mov	rdx, QWORD PTR pml4i$[rsp]
	mov	QWORD PTR [rdx+rcx*8], rax

; 142  : 		clear((void*)p2v(page));

	mov	rcx, QWORD PTR page$1[rsp]
	call	?p2v@@YA_K_K@Z				; p2v
	mov	rcx, rax
	call	?clear@@YAXPEAX@Z			; clear

; 143  : 		flush_tlb((void*)page);

	mov	rcx, QWORD PTR page$1[rsp]
	call	flush_tlb

; 144  : 		x64_mfence();

	call	x64_mfence
$LN4@AuMapPage:

; 145  : 	}
; 146  : 	uint64_t* pml3 = (uint64_t*)(p2v(pml4i[i4]) & ~(4096 - 1));

	movsxd	rax, DWORD PTR i4$[rsp]
	mov	rcx, QWORD PTR pml4i$[rsp]
	mov	rcx, QWORD PTR [rcx+rax*8]
	call	?p2v@@YA_K_K@Z				; p2v
	and	rax, -4096				; fffffffffffff000H
	mov	QWORD PTR pml3$[rsp], rax

; 147  : 	
; 148  : 	if (!(pml3[i3] & PAGING_PRESENT))

	movsxd	rax, DWORD PTR i3$[rsp]
	mov	rcx, QWORD PTR pml3$[rsp]
	mov	rax, QWORD PTR [rcx+rax*8]
	and	rax, 1
	test	rax, rax
	jne	SHORT $LN3@AuMapPage

; 149  : 	{
; 150  : 		
; 151  : 		const uint64_t page = (uint64_t)AuPmmngrAlloc();

	call	?AuPmmngrAlloc@@YAPEAXXZ		; AuPmmngrAlloc
	mov	QWORD PTR page$3[rsp], rax

; 152  : 		pml3[i3] = page | flags;

	mov	rax, QWORD PTR flags$[rsp]
	mov	rcx, QWORD PTR page$3[rsp]
	or	rcx, rax
	mov	rax, rcx
	movsxd	rcx, DWORD PTR i3$[rsp]
	mov	rdx, QWORD PTR pml3$[rsp]
	mov	QWORD PTR [rdx+rcx*8], rax

; 153  : 		clear((void*)p2v(page));

	mov	rcx, QWORD PTR page$3[rsp]
	call	?p2v@@YA_K_K@Z				; p2v
	mov	rcx, rax
	call	?clear@@YAXPEAX@Z			; clear

; 154  : 		flush_tlb((void*)page);

	mov	rcx, QWORD PTR page$3[rsp]
	call	flush_tlb

; 155  : 		x64_mfence();

	call	x64_mfence
$LN3@AuMapPage:

; 156  : 		
; 157  : 	}
; 158  :     
; 159  : 	
; 160  : 	uint64_t* pml2 = (uint64_t*)(p2v(pml3[i3]) & ~(4096 - 1));

	movsxd	rax, DWORD PTR i3$[rsp]
	mov	rcx, QWORD PTR pml3$[rsp]
	mov	rcx, QWORD PTR [rcx+rax*8]
	call	?p2v@@YA_K_K@Z				; p2v
	and	rax, -4096				; fffffffffffff000H
	mov	QWORD PTR pml2$[rsp], rax

; 161  : 	
; 162  : 	if (!(pml2[i2] & PAGING_PRESENT))

	movsxd	rax, DWORD PTR i2$[rsp]
	mov	rcx, QWORD PTR pml2$[rsp]
	mov	rax, QWORD PTR [rcx+rax*8]
	and	rax, 1
	test	rax, rax
	jne	SHORT $LN2@AuMapPage

; 163  : 	{
; 164  : 		const uint64_t page = (uint64_t)AuPmmngrAlloc();

	call	?AuPmmngrAlloc@@YAPEAXXZ		; AuPmmngrAlloc
	mov	QWORD PTR page$2[rsp], rax

; 165  : 		pml2[i2] = page | flags;

	mov	rax, QWORD PTR flags$[rsp]
	mov	rcx, QWORD PTR page$2[rsp]
	or	rcx, rax
	mov	rax, rcx
	movsxd	rcx, DWORD PTR i2$[rsp]
	mov	rdx, QWORD PTR pml2$[rsp]
	mov	QWORD PTR [rdx+rcx*8], rax

; 166  : 		clear((void*)p2v(page));

	mov	rcx, QWORD PTR page$2[rsp]
	call	?p2v@@YA_K_K@Z				; p2v
	mov	rcx, rax
	call	?clear@@YAXPEAX@Z			; clear

; 167  : 		flush_tlb((void*)page);

	mov	rcx, QWORD PTR page$2[rsp]
	call	flush_tlb

; 168  : 		x64_mfence();

	call	x64_mfence
$LN2@AuMapPage:

; 169  : 		
; 170  : 	}
; 171  : 	
; 172  : 	uint64_t* pml1 = (uint64_t*)(p2v(pml2[i2]) & ~(4096 - 1));

	movsxd	rax, DWORD PTR i2$[rsp]
	mov	rcx, QWORD PTR pml2$[rsp]
	mov	rcx, QWORD PTR [rcx+rax*8]
	call	?p2v@@YA_K_K@Z				; p2v
	and	rax, -4096				; fffffffffffff000H
	mov	QWORD PTR pml1$[rsp], rax

; 173  : 	if (pml1[i1] & PAGING_PRESENT)

	movsxd	rax, DWORD PTR i1$[rsp]
	mov	rcx, QWORD PTR pml1$[rsp]
	mov	rax, QWORD PTR [rcx+rax*8]
	and	rax, 1
	test	rax, rax
	je	SHORT $LN1@AuMapPage

; 174  : 	{
; 175  : 		AuPmmngrFree((void*)physical_address);

	mov	rcx, QWORD PTR physical_address$[rsp]
	call	?AuPmmngrFree@@YAXPEAX@Z		; AuPmmngrFree

; 176  : 		return false;

	xor	al, al
	jmp	SHORT $LN5@AuMapPage
$LN1@AuMapPage:

; 177  : 	}
; 178  : 
; 179  : 	pml1[i1] = physical_address | flags;

	mov	rax, QWORD PTR flags$[rsp]
	mov	rcx, QWORD PTR physical_address$[rsp]
	or	rcx, rax
	mov	rax, rcx
	movsxd	rcx, DWORD PTR i1$[rsp]
	mov	rdx, QWORD PTR pml1$[rsp]
	mov	QWORD PTR [rdx+rcx*8], rax

; 180  : 	flush_tlb ((void*)virtual_address);

	mov	rcx, QWORD PTR virtual_address$[rsp]
	call	flush_tlb

; 181  : 	x64_mfence ();

	call	x64_mfence

; 182  : 	return true;

	mov	al, 1
$LN5@AuMapPage:

; 183  : }

	add	rsp, 120				; 00000078H
	ret	0
AuMapPage ENDP
_TEXT	ENDS
; Function compile flags: /Odtpy
; File e:\xeneva project\xeneva\aurora\aurora\arch\x86_64\paging.cpp
_TEXT	SEGMENT
i$1 = 32
new_cr3$ = 40
i$2 = 48
pdpt$ = 56
cr3$ = 64
tv95 = 72
tv140 = 80
?AuPagingInit@@YAXXZ PROC				; AuPagingInit

; 87   : void AuPagingInit() {

$LN12:
	sub	rsp, 104				; 00000068H

; 88   : 
; 89   : 	uint64_t *cr3 = (uint64_t*)x64_read_cr3();

	call	x64_read_cr3
	mov	QWORD PTR cr3$[rsp], rax

; 90   : 	uint64_t *new_cr3 = (uint64_t*)AuPmmngrAlloc();    

	call	?AuPmmngrAlloc@@YAPEAXXZ		; AuPmmngrAlloc
	mov	QWORD PTR new_cr3$[rsp], rax

; 91   : 
; 92   : 	memset (new_cr3, 0, 4096);

	mov	r8d, 4096				; 00001000H
	xor	edx, edx
	mov	rcx, QWORD PTR new_cr3$[rsp]
	call	?memset@@YAXPEAXEI@Z			; memset

; 93   : 
; 94   : 	//! Copy all higher half mappings to new mapping
; 95   : 	for (int i = 0; i < 512; ++i) {

	mov	DWORD PTR i$1[rsp], 0
	jmp	SHORT $LN9@AuPagingIn
$LN8@AuPagingIn:
	mov	eax, DWORD PTR i$1[rsp]
	inc	eax
	mov	DWORD PTR i$1[rsp], eax
$LN9@AuPagingIn:
	cmp	DWORD PTR i$1[rsp], 512			; 00000200H
	jge	SHORT $LN7@AuPagingIn

; 96   : 		if (i == 511)

	cmp	DWORD PTR i$1[rsp], 511			; 000001ffH
	jne	SHORT $LN6@AuPagingIn

; 97   : 			continue;

	jmp	SHORT $LN8@AuPagingIn
$LN6@AuPagingIn:

; 98   : 
; 99   : 		if (cr3[i] & PAGING_PRESENT) {

	movsxd	rax, DWORD PTR i$1[rsp]
	mov	rcx, QWORD PTR cr3$[rsp]
	mov	rax, QWORD PTR [rcx+rax*8]
	and	rax, 1
	test	rax, rax
	je	SHORT $LN5@AuPagingIn

; 100  : 			new_cr3[i] = cr3[i];

	movsxd	rax, DWORD PTR i$1[rsp]
	movsxd	rcx, DWORD PTR i$1[rsp]
	mov	rdx, QWORD PTR new_cr3$[rsp]
	mov	r8, QWORD PTR cr3$[rsp]
	mov	rax, QWORD PTR [r8+rax*8]
	mov	QWORD PTR [rdx+rcx*8], rax

; 101  : 		}else {

	jmp	SHORT $LN4@AuPagingIn
$LN5@AuPagingIn:

; 102  : 			new_cr3[i] = 0;

	movsxd	rax, DWORD PTR i$1[rsp]
	mov	rcx, QWORD PTR new_cr3$[rsp]
	mov	QWORD PTR [rcx+rax*8], 0
$LN4@AuPagingIn:

; 103  : 		}
; 104  : 		
; 105  : 	}

	jmp	SHORT $LN8@AuPagingIn
$LN7@AuPagingIn:

; 106  : 
; 107  : 	uint64_t* pdpt = (uint64_t*)AuPmmngrAlloc();

	call	?AuPmmngrAlloc@@YAPEAXXZ		; AuPmmngrAlloc
	mov	QWORD PTR pdpt$[rsp], rax

; 108  : 	memset(pdpt, 0, 4096);

	mov	r8d, 4096				; 00001000H
	xor	edx, edx
	mov	rcx, QWORD PTR pdpt$[rsp]
	call	?memset@@YAXPEAXEI@Z			; memset

; 109  : 
; 110  : 	new_cr3[pml4_index(PHYSICAL_MEMORY_BASE)] = (uint64_t)pdpt | PAGING_PRESENT | PAGING_WRITABLE;

	mov	rax, QWORD PTR pdpt$[rsp]
	or	rax, 1
	or	rax, 2
	mov	QWORD PTR tv95[rsp], rax
	mov	rcx, -140737488355328			; ffff800000000000H
	call	?pml4_index@@YA_K_K@Z			; pml4_index
	mov	rcx, QWORD PTR new_cr3$[rsp]
	mov	rdx, QWORD PTR tv95[rsp]
	mov	QWORD PTR [rcx+rax*8], rdx

; 111  : 
; 112  : 	for (size_t i = 0; i < 512; i++)

	mov	QWORD PTR i$2[rsp], 0
	jmp	SHORT $LN3@AuPagingIn
$LN2@AuPagingIn:
	mov	rax, QWORD PTR i$2[rsp]
	inc	rax
	mov	QWORD PTR i$2[rsp], rax
$LN3@AuPagingIn:
	cmp	QWORD PTR i$2[rsp], 512			; 00000200H
	jae	SHORT $LN1@AuPagingIn

; 113  : 		pdpt[pdp_index(PHYSICAL_MEMORY_BASE) + i] = i * 512 * 512 * 4096 | 0x80 | PAGING_PRESENT | PAGING_WRITABLE;

	mov	rax, QWORD PTR i$2[rsp]
	imul	rax, 512				; 00000200H
	imul	rax, 512				; 00000200H
	imul	rax, 4096				; 00001000H
	bts	rax, 7
	or	rax, 1
	or	rax, 2
	mov	QWORD PTR tv140[rsp], rax
	mov	rcx, -140737488355328			; ffff800000000000H
	call	?pdp_index@@YA_K_K@Z			; pdp_index
	add	rax, QWORD PTR i$2[rsp]
	mov	rcx, QWORD PTR pdpt$[rsp]
	mov	rdx, QWORD PTR tv140[rsp]
	mov	QWORD PTR [rcx+rax*8], rdx
	jmp	SHORT $LN2@AuPagingIn
$LN1@AuPagingIn:

; 114  : 
; 115  : 	//! Store the kernel's address space
; 116  : 	root_cr3 = new_cr3;

	mov	rax, QWORD PTR new_cr3$[rsp]
	mov	QWORD PTR ?root_cr3@@3PEA_KEA, rax	; root_cr3

; 117  : 
; 118  : 	//! Switch to new mapping!!!
; 119  : 	x64_write_cr3 ((size_t)new_cr3);

	mov	rcx, QWORD PTR new_cr3$[rsp]
	call	x64_write_cr3

; 120  : 
; 121  : 	AuPmmngrMoveHigher();

	call	?AuPmmngrMoveHigher@@YAXXZ		; AuPmmngrMoveHigher

; 122  : 
; 123  : }

	add	rsp, 104				; 00000068H
	ret	0
?AuPagingInit@@YAXXZ ENDP				; AuPagingInit
_TEXT	ENDS
; Function compile flags: /Odtpy
; File e:\xeneva project\xeneva\aurora\aurora\arch\x86_64\paging.cpp
_TEXT	SEGMENT
addr$ = 8
?p_index@@YA_K_K@Z PROC					; p_index

; 69   : size_t p_index (uint64_t addr){

	mov	QWORD PTR [rsp+8], rcx

; 70   : 	return (addr & 0x7ff);

	mov	rax, QWORD PTR addr$[rsp]
	and	rax, 2047				; 000007ffH

; 71   : }

	ret	0
?p_index@@YA_K_K@Z ENDP					; p_index
_TEXT	ENDS
; Function compile flags: /Odtpy
; File e:\xeneva project\xeneva\aurora\aurora\arch\x86_64\paging.cpp
_TEXT	SEGMENT
addr$ = 8
?pt_index@@YA_K_K@Z PROC				; pt_index

; 65   : size_t pt_index (uint64_t addr){

	mov	QWORD PTR [rsp+8], rcx

; 66   : 	return (addr >> 12) & 0x1ff;

	mov	rax, QWORD PTR addr$[rsp]
	shr	rax, 12
	and	rax, 511				; 000001ffH

; 67   : }

	ret	0
?pt_index@@YA_K_K@Z ENDP				; pt_index
_TEXT	ENDS
; Function compile flags: /Odtpy
; File e:\xeneva project\xeneva\aurora\aurora\arch\x86_64\paging.cpp
_TEXT	SEGMENT
addr$ = 8
?pd_index@@YA_K_K@Z PROC				; pd_index

; 61   : size_t pd_index (uint64_t addr){

	mov	QWORD PTR [rsp+8], rcx

; 62   : 	return (addr >> 21) & 0x1ff;

	mov	rax, QWORD PTR addr$[rsp]
	shr	rax, 21
	and	rax, 511				; 000001ffH

; 63   : }

	ret	0
?pd_index@@YA_K_K@Z ENDP				; pd_index
_TEXT	ENDS
; Function compile flags: /Odtpy
; File e:\xeneva project\xeneva\aurora\aurora\arch\x86_64\paging.cpp
_TEXT	SEGMENT
addr$ = 8
?pdp_index@@YA_K_K@Z PROC				; pdp_index

; 57   : size_t pdp_index (uint64_t addr){

	mov	QWORD PTR [rsp+8], rcx

; 58   : 	return (addr >> 30) & 0x1ff;

	mov	rax, QWORD PTR addr$[rsp]
	shr	rax, 30
	and	rax, 511				; 000001ffH

; 59   : }

	ret	0
?pdp_index@@YA_K_K@Z ENDP				; pdp_index
_TEXT	ENDS
; Function compile flags: /Odtpy
; File e:\xeneva project\xeneva\aurora\aurora\arch\x86_64\paging.cpp
_TEXT	SEGMENT
addr$ = 8
?pml4_index@@YA_K_K@Z PROC				; pml4_index

; 53   : size_t  pml4_index (uint64_t addr){

	mov	QWORD PTR [rsp+8], rcx

; 54   : 	return (addr >> 39) & 0x1ff;

	mov	rax, QWORD PTR addr$[rsp]
	shr	rax, 39					; 00000027H
	and	rax, 511				; 000001ffH

; 55   : }

	ret	0
?pml4_index@@YA_K_K@Z ENDP				; pml4_index
_TEXT	ENDS
END
