; Listing generated by Microsoft (R) Optimizing Compiler Version 17.00.50727.1 

include listing.inc

INCLUDELIB LIBCMT
INCLUDELIB OLDNAMES

CONST	SEGMENT
$SG3397	DB	'PCI Scanning device', 0aH, 00H
	ORG $+3
$SG3411	DB	'Device found', 0aH, 00H
	ORG $+2
$SG3412	DB	'Device ID -> %x, Vendor ID -> %x', 0aH, 00H
	ORG $+6
$SG3472	DB	'MSI Available', 0aH, 00H
	ORG $+1
$SG3474	DB	'MSI-X Available for this device', 0aH, 00H
CONST	ENDS
PUBLIC	?pci_config_read32@@YAIPEBU_pci_address_@@G@Z	; pci_config_read32
PUBLIC	?pci_config_read16@@YAGPEBU_pci_address_@@G@Z	; pci_config_read16
PUBLIC	?pci_config_read8@@YAEPEBU_pci_address_@@G@Z	; pci_config_read8
PUBLIC	?pci_config_write32@@YAXPEBU_pci_address_@@GI@Z	; pci_config_write32
PUBLIC	?pci_config_write16@@YAXPEBU_pci_address_@@GG@Z	; pci_config_write16
PUBLIC	?pci_config_write8@@YAXPEBU_pci_address_@@GE@Z	; pci_config_write8
PUBLIC	?read_config_header@@YAXHHHPEATpci_device_info@@@Z ; read_config_header
PUBLIC	?read_config_16@@YAXHHHHPEAG@Z			; read_config_16
PUBLIC	?write_config_16@@YAXHHHHG@Z			; write_config_16
PUBLIC	?read_config_32@@YAXHHHHI@Z			; read_config_32
PUBLIC	?read_config_8@@YAXHHHHPEAE@Z			; read_config_8
PUBLIC	?write_config_8@@YAXHHHHE@Z			; write_config_8
PUBLIC	?pci_scan_bus@@YA_NPEAU_pci_scan_state_@@@Z	; pci_scan_bus
PUBLIC	?pci_find_device@@YA_NGGPEAU_pci_address_@@@Z	; pci_find_device
PUBLIC	?pci_setBAR@@YAXPEBU_pci_address_@@HI@Z		; pci_setBAR
PUBLIC	?pci_get_bar_addr@@YAIPEBU_pci_address_@@H@Z	; pci_get_bar_addr
PUBLIC	?pci_set_mem_enable@@YAXPEBU_pci_address_@@_N@Z	; pci_set_mem_enable
PUBLIC	?pci_find_device_class@@YA_NEEPEATpci_device_info@@PEAH11@Z ; pci_find_device_class
PUBLIC	?pci_find_device_id@@YA_NGGPEATpci_device_info@@@Z ; pci_find_device_id
PUBLIC	?pci_print_capabilities@@YAXPEATpci_device_info@@@Z ; pci_print_capabilities
PUBLIC	?pci_enable_interrupts@@YAXHHH@Z		; pci_enable_interrupts
PUBLIC	?pci_get_capability@@YAPEAUpci_cap_header@@PEATpci_device_info@@PEAU1@@Z ; pci_get_capability
EXTRN	x64_inportb:PROC
EXTRN	x64_inportw:PROC
EXTRN	x64_inportd:PROC
EXTRN	x64_outportw:PROC
EXTRN	x64_outportd:PROC
EXTRN	?inportb@@YAEG@Z:PROC				; inportb
EXTRN	?inportw@@YAGG@Z:PROC				; inportw
EXTRN	?inportd@@YAIG@Z:PROC				; inportd
EXTRN	?outportb@@YAXGE@Z:PROC				; outportb
EXTRN	?outportw@@YAXGG@Z:PROC				; outportw
EXTRN	?outportd@@YAXGI@Z:PROC				; outportd
EXTRN	?printf@@YAXPEBDZZ:PROC				; printf
pdata	SEGMENT
$pdata$?pci_config_read32@@YAIPEBU_pci_address_@@G@Z DD imagerel $LN3
	DD	imagerel $LN3+54
	DD	imagerel $unwind$?pci_config_read32@@YAIPEBU_pci_address_@@G@Z
$pdata$?pci_config_read16@@YAGPEBU_pci_address_@@G@Z DD imagerel $LN3
	DD	imagerel $LN3+54
	DD	imagerel $unwind$?pci_config_read16@@YAGPEBU_pci_address_@@G@Z
$pdata$?pci_config_read8@@YAEPEBU_pci_address_@@G@Z DD imagerel $LN3
	DD	imagerel $LN3+54
	DD	imagerel $unwind$?pci_config_read8@@YAEPEBU_pci_address_@@G@Z
$pdata$?pci_config_write32@@YAXPEBU_pci_address_@@GI@Z DD imagerel $LN3
	DD	imagerel $LN3+63
	DD	imagerel $unwind$?pci_config_write32@@YAXPEBU_pci_address_@@GI@Z
$pdata$?pci_config_write16@@YAXPEBU_pci_address_@@GG@Z DD imagerel $LN3
	DD	imagerel $LN3+65
	DD	imagerel $unwind$?pci_config_write16@@YAXPEBU_pci_address_@@GG@Z
$pdata$?pci_config_write8@@YAXPEBU_pci_address_@@GE@Z DD imagerel $LN3
	DD	imagerel $LN3+64
	DD	imagerel $unwind$?pci_config_write8@@YAXPEBU_pci_address_@@GE@Z
$pdata$?read_config_header@@YAXHHHPEATpci_device_info@@@Z DD imagerel $LN6
	DD	imagerel $LN6+155
	DD	imagerel $unwind$?read_config_header@@YAXHHHPEATpci_device_info@@@Z
$pdata$?read_config_16@@YAXHHHHPEAG@Z DD imagerel $LN3
	DD	imagerel $LN3+144
	DD	imagerel $unwind$?read_config_16@@YAXHHHHPEAG@Z
$pdata$?write_config_16@@YAXHHHHG@Z DD imagerel $LN3
	DD	imagerel $LN3+141
	DD	imagerel $unwind$?write_config_16@@YAXHHHHG@Z
$pdata$?read_config_32@@YAXHHHHI@Z DD imagerel $LN3
	DD	imagerel $LN3+109
	DD	imagerel $unwind$?read_config_32@@YAXHHHHI@Z
$pdata$?read_config_8@@YAXHHHHPEAE@Z DD imagerel $LN3
	DD	imagerel $LN3+150
	DD	imagerel $unwind$?read_config_8@@YAXHHHHPEAE@Z
$pdata$?write_config_8@@YAXHHHHE@Z DD imagerel $LN3
	DD	imagerel $LN3+148
	DD	imagerel $unwind$?write_config_8@@YAXHHHHE@Z
$pdata$?pci_scan_bus@@YA_NPEAU_pci_scan_state_@@@Z DD imagerel $LN9
	DD	imagerel $LN9+334
	DD	imagerel $unwind$?pci_scan_bus@@YA_NPEAU_pci_scan_state_@@@Z
$pdata$?pci_find_device@@YA_NGGPEAU_pci_address_@@@Z DD imagerel $LN6
	DD	imagerel $LN6+118
	DD	imagerel $unwind$?pci_find_device@@YA_NGGPEAU_pci_address_@@@Z
$pdata$?pci_setBAR@@YAXPEBU_pci_address_@@HI@Z DD imagerel $LN3
	DD	imagerel $LN3+55
	DD	imagerel $unwind$?pci_setBAR@@YAXPEBU_pci_address_@@HI@Z
$pdata$?pci_get_bar_addr@@YAIPEBU_pci_address_@@H@Z DD imagerel $LN5
	DD	imagerel $LN5+100
	DD	imagerel $unwind$?pci_get_bar_addr@@YAIPEBU_pci_address_@@H@Z
$pdata$?pci_set_mem_enable@@YAXPEBU_pci_address_@@_N@Z DD imagerel $LN5
	DD	imagerel $LN5+104
	DD	imagerel $unwind$?pci_set_mem_enable@@YAXPEBU_pci_address_@@_N@Z
$pdata$?pci_find_device_class@@YA_NEEPEATpci_device_info@@PEAH11@Z DD imagerel $LN13
	DD	imagerel $LN13+443
	DD	imagerel $unwind$?pci_find_device_class@@YA_NEEPEATpci_device_info@@PEAH11@Z
$pdata$?pci_find_device_id@@YA_NGGPEATpci_device_info@@@Z DD imagerel $LN13
	DD	imagerel $LN13+320
	DD	imagerel $unwind$?pci_find_device_id@@YA_NGGPEATpci_device_info@@@Z
$pdata$?pci_print_capabilities@@YAXPEATpci_device_info@@@Z DD imagerel $LN8
	DD	imagerel $LN8+177
	DD	imagerel $unwind$?pci_print_capabilities@@YAXPEATpci_device_info@@@Z
$pdata$?pci_config_pack_address@@YAIPEBU_pci_address_@@G@Z DD imagerel ?pci_config_pack_address@@YAIPEBU_pci_address_@@G@Z
	DD	imagerel ?pci_config_pack_address@@YAIPEBU_pci_address_@@G@Z+76
	DD	imagerel $unwind$?pci_config_pack_address@@YAIPEBU_pci_address_@@G@Z
$pdata$?pci_get_capability@@YAPEAUpci_cap_header@@PEATpci_device_info@@PEAU1@@Z DD imagerel $LN14
	DD	imagerel $LN14+172
	DD	imagerel $unwind$?pci_get_capability@@YAPEAUpci_cap_header@@PEATpci_device_info@@PEAU1@@Z
pdata	ENDS
xdata	SEGMENT
$unwind$?pci_config_read32@@YAIPEBU_pci_address_@@G@Z DD 010e01H
	DD	0420eH
$unwind$?pci_config_read16@@YAGPEBU_pci_address_@@G@Z DD 010e01H
	DD	0420eH
$unwind$?pci_config_read8@@YAEPEBU_pci_address_@@G@Z DD 010e01H
	DD	0420eH
$unwind$?pci_config_write32@@YAXPEBU_pci_address_@@GI@Z DD 011301H
	DD	04213H
$unwind$?pci_config_write16@@YAXPEBU_pci_address_@@GG@Z DD 011401H
	DD	04214H
$unwind$?pci_config_write8@@YAXPEBU_pci_address_@@GE@Z DD 011301H
	DD	04213H
$unwind$?read_config_header@@YAXHHHPEATpci_device_info@@@Z DD 011601H
	DD	06216H
$unwind$?read_config_16@@YAXHHHHPEAG@Z DD 011601H
	DD	06216H
$unwind$?write_config_16@@YAXHHHHG@Z DD 011601H
	DD	06216H
$unwind$?read_config_32@@YAXHHHHI@Z DD 011601H
	DD	06216H
$unwind$?read_config_8@@YAXHHHHPEAE@Z DD 011601H
	DD	06216H
$unwind$?write_config_8@@YAXHHHHE@Z DD 011601H
	DD	06216H
$unwind$?pci_scan_bus@@YA_NPEAU_pci_scan_state_@@@Z DD 030b01H
	DD	07007e20bH
	DD	06006H
$unwind$?pci_find_device@@YA_NGGPEAU_pci_address_@@@Z DD 031501H
	DD	070116215H
	DD	06010H
$unwind$?pci_setBAR@@YAXPEBU_pci_address_@@HI@Z DD 011201H
	DD	04212H
$unwind$?pci_get_bar_addr@@YAIPEBU_pci_address_@@H@Z DD 010d01H
	DD	0620dH
$unwind$?pci_set_mem_enable@@YAXPEBU_pci_address_@@_N@Z DD 010d01H
	DD	0620dH
$unwind$?pci_find_device_class@@YA_NEEPEATpci_device_info@@PEAH11@Z DD 041b01H
	DD	029011bH
	DD	060137014H
$unwind$?pci_find_device_id@@YA_NGGPEATpci_device_info@@@Z DD 041801H
	DD	0290118H
	DD	060107011H
$unwind$?pci_print_capabilities@@YAXPEATpci_device_info@@@Z DD 010901H
	DD	08209H
$unwind$?pci_config_pack_address@@YAIPEBU_pci_address_@@G@Z DD 010e01H
	DD	0220eH
$unwind$?pci_get_capability@@YAPEAUpci_cap_header@@PEATpci_device_info@@PEAU1@@Z DD 010e01H
	DD	0220eH
xdata	ENDS
; Function compile flags: /Odtp
; File e:\xeneva project\xeneva\aurora\aurora\drivers\pci.cpp
_TEXT	SEGMENT
tv74 = 0
dev_info$ = 32
cap_header$ = 40
?pci_get_capability@@YAPEAUpci_cap_header@@PEATpci_device_info@@PEAU1@@Z PROC ; pci_get_capability

; 247  : pci_cap_header * pci_get_capability (pci_device_info *dev_info, pci_cap_header* cap_header) {

$LN14:
	mov	QWORD PTR [rsp+16], rdx
	mov	QWORD PTR [rsp+8], rcx
	sub	rsp, 24

; 248  : 	
; 249  : 	if (!dev_info) 

	cmp	QWORD PTR dev_info$[rsp], 0
	jne	SHORT $LN11@pci_get_ca

; 250  : 		return NULL;

	xor	eax, eax
	jmp	$LN12@pci_get_ca
$LN11@pci_get_ca:

; 251  : 
; 252  : 	if ((dev_info->device.statusReg & (1<<4)) != 0) {

	mov	rax, QWORD PTR dev_info$[rsp]
	movzx	eax, WORD PTR [rax+6]
	and	eax, 16
	test	eax, eax
	je	SHORT $LN10@pci_get_ca

; 253  : 
; 254  : 		switch (dev_info->device.headerType & ~PCI_HEADERTYPE_MULTIFUNC) {

	mov	rax, QWORD PTR dev_info$[rsp]
	movzx	eax, BYTE PTR [rax+14]
	btr	eax, 7
	mov	DWORD PTR tv74[rsp], eax
	cmp	DWORD PTR tv74[rsp], 0
	je	SHORT $LN7@pci_get_ca
	jmp	SHORT $LN2@pci_get_ca
$LN7@pci_get_ca:

; 255  : 		case PCI_HEADERTYPE_NORMAL:
; 256  : 			if (cap_header) {

	cmp	QWORD PTR cap_header$[rsp], 0
	je	SHORT $LN6@pci_get_ca

; 257  : 				if (cap_header->next){

	mov	rax, QWORD PTR cap_header$[rsp]
	movzx	eax, BYTE PTR [rax+1]
	test	eax, eax
	je	SHORT $LN5@pci_get_ca

; 258  : 					cap_header = ((pci_cap_header*)dev_info + cap_header->next);

	mov	rax, QWORD PTR cap_header$[rsp]
	movzx	eax, BYTE PTR [rax+1]
	mov	rcx, QWORD PTR dev_info$[rsp]
	lea	rax, QWORD PTR [rcx+rax*2]
	mov	QWORD PTR cap_header$[rsp], rax

; 259  : 					//printf ("Cap Header next is not null\n");
; 260  : 				}else

	jmp	SHORT $LN4@pci_get_ca
$LN5@pci_get_ca:

; 261  : 					cap_header = NULL;

	mov	QWORD PTR cap_header$[rsp], 0
$LN4@pci_get_ca:

; 262  : 			} else {

	jmp	SHORT $LN3@pci_get_ca
$LN6@pci_get_ca:

; 263  : 				cap_header = ((pci_cap_header*)dev_info + 0xD);

	mov	rax, QWORD PTR dev_info$[rsp]
	add	rax, 26
	mov	QWORD PTR cap_header$[rsp], rax
$LN3@pci_get_ca:

; 264  : 			//	printf ("CAp PTR\n");
; 265  : 				//printf ("CAp Hdr nxt %x\n", cap_header->next);
; 266  : 			}
; 267  : 			break;

	jmp	SHORT $LN8@pci_get_ca
$LN2@pci_get_ca:

; 268  : 
; 269  : 		default:
; 270  : 			cap_header = NULL;

	mov	QWORD PTR cap_header$[rsp], 0
$LN8@pci_get_ca:

; 271  : 			break;
; 272  : 		}
; 273  : 	} else {

	jmp	SHORT $LN1@pci_get_ca
$LN10@pci_get_ca:

; 274  : 		cap_header = NULL;

	mov	QWORD PTR cap_header$[rsp], 0
$LN1@pci_get_ca:

; 275  : 	}
; 276  : 
; 277  : 	return cap_header;

	mov	rax, QWORD PTR cap_header$[rsp]
$LN12@pci_get_ca:

; 278  : }

	add	rsp, 24
	ret	0
?pci_get_capability@@YAPEAUpci_cap_header@@PEATpci_device_info@@PEAU1@@Z ENDP ; pci_get_capability
_TEXT	ENDS
; Function compile flags: /Odtp
; File e:\xeneva project\xeneva\aurora\aurora\drivers\pci.cpp
_TEXT	SEGMENT
enable_bit$ = 0
addr$ = 32
offset$ = 40
?pci_config_pack_address@@YAIPEBU_pci_address_@@G@Z PROC ; pci_config_pack_address

; 25   : static uint32_t pci_config_pack_address (const pci_address *addr, uint16_t offset) {

	mov	WORD PTR [rsp+16], dx
	mov	QWORD PTR [rsp+8], rcx
	sub	rsp, 24

; 26   : 
; 27   : 	const uint32_t enable_bit = 0x80000000UL;

	mov	DWORD PTR enable_bit$[rsp], -2147483648	; 80000000H

; 28   : 
; 29   : 	return (((uint32_t)addr->bus << 16) |
; 30   : 		((uint32_t)addr->device << 11) |
; 31   : 		((uint32_t)addr->function << 8) |
; 32   : 		offset | enable_bit);

	mov	rax, QWORD PTR addr$[rsp]
	movzx	eax, BYTE PTR [rax]
	shl	eax, 16
	mov	rcx, QWORD PTR addr$[rsp]
	movzx	ecx, BYTE PTR [rcx+1]
	shl	ecx, 11
	or	eax, ecx
	mov	rcx, QWORD PTR addr$[rsp]
	movzx	ecx, BYTE PTR [rcx+2]
	shl	ecx, 8
	or	eax, ecx
	movzx	ecx, WORD PTR offset$[rsp]
	or	eax, ecx
	bts	eax, 31

; 33   : }

	add	rsp, 24
	ret	0
?pci_config_pack_address@@YAIPEBU_pci_address_@@G@Z ENDP ; pci_config_pack_address
_TEXT	ENDS
; Function compile flags: /Odtp
; File e:\xeneva project\xeneva\aurora\aurora\drivers\pci.cpp
_TEXT	SEGMENT
func$ = 8
dev$ = 16
bus$ = 24
?pci_enable_interrupts@@YAXHHH@Z PROC			; pci_enable_interrupts

; 303  : void pci_enable_interrupts (int func, int dev, int bus) {

	mov	DWORD PTR [rsp+24], r8d
	mov	DWORD PTR [rsp+16], edx
	mov	DWORD PTR [rsp+8], ecx

; 304  : 	/*uint16_t command_reg = 0;
; 305  : 	read_config_16 (bus,dev,func,PCI_CONFREG_COMMAND_16, &command_reg);
; 306  : 	command_reg &= ~PCI_COMMAND_INTERRUPTDISABLE;
; 307  : 	write_config_16 (bus, dev,func,PCI_CONFREG_COMMAND_16,command_reg);*/
; 308  : }

	ret	0
?pci_enable_interrupts@@YAXHHH@Z ENDP			; pci_enable_interrupts
_TEXT	ENDS
; Function compile flags: /Odtp
; File e:\xeneva project\xeneva\aurora\aurora\drivers\pci.cpp
_TEXT	SEGMENT
cap_header$ = 32
msi_cap$ = 40
msi_x_cap$ = 48
dev_info$ = 80
?pci_print_capabilities@@YAXPEATpci_device_info@@@Z PROC ; pci_print_capabilities

; 280  : void pci_print_capabilities (pci_device_info *dev_info) {

$LN8:
	mov	QWORD PTR [rsp+8], rcx
	sub	rsp, 72					; 00000048H

; 281  : 
; 282  : 	pci_cap_header *cap_header = NULL;

	mov	QWORD PTR cap_header$[rsp], 0

; 283  : 	pci_msi_cap *msi_cap = NULL;

	mov	QWORD PTR msi_cap$[rsp], 0

; 284  : 	pci_msi_xcap *msi_x_cap = NULL;

	mov	QWORD PTR msi_x_cap$[rsp], 0

; 285  : 
; 286  : 	uint64_t *capptr;
; 287  : 	if ((dev_info->device.statusReg & (1<<4)) != 0) {

	mov	rax, QWORD PTR dev_info$[rsp]
	movzx	eax, WORD PTR [rax+6]
	and	eax, 16
	test	eax, eax
	je	SHORT $LN5@pci_print_

; 288  : 		cap_header = (pci_cap_header*)(dev_info + dev_info->device.nonBridge.capPtr);

	mov	rax, QWORD PTR dev_info$[rsp]
	movzx	eax, BYTE PTR [rax+52]
	imul	rax, 256				; 00000100H
	mov	rcx, QWORD PTR dev_info$[rsp]
	add	rcx, rax
	mov	rax, rcx
	mov	QWORD PTR cap_header$[rsp], rax
$LN4@pci_print_:

; 289  : 		while (cap_header->next != 0x00) {

	mov	rax, QWORD PTR cap_header$[rsp]
	movzx	eax, BYTE PTR [rax+1]
	test	eax, eax
	je	SHORT $LN3@pci_print_

; 290  : 			if (cap_header->id == 0x05) {

	mov	rax, QWORD PTR cap_header$[rsp]
	movzx	eax, BYTE PTR [rax]
	cmp	eax, 5
	jne	SHORT $LN2@pci_print_

; 291  : 				printf ("MSI Available\n");

	lea	rcx, OFFSET FLAT:$SG3472
	call	?printf@@YAXPEBDZZ			; printf
$LN2@pci_print_:

; 292  : 			}
; 293  : 
; 294  : 			if (cap_header->id == 0x11) {

	mov	rax, QWORD PTR cap_header$[rsp]
	movzx	eax, BYTE PTR [rax]
	cmp	eax, 17
	jne	SHORT $LN1@pci_print_

; 295  : 				printf ("MSI-X Available for this device\n");

	lea	rcx, OFFSET FLAT:$SG3474
	call	?printf@@YAXPEBDZZ			; printf
$LN1@pci_print_:

; 296  : 			}
; 297  : 			cap_header = (pci_cap_header*)(cap_header + cap_header->next);

	mov	rax, QWORD PTR cap_header$[rsp]
	movzx	eax, BYTE PTR [rax+1]
	mov	rcx, QWORD PTR cap_header$[rsp]
	lea	rax, QWORD PTR [rcx+rax*2]
	mov	QWORD PTR cap_header$[rsp], rax

; 298  : 		}

	jmp	SHORT $LN4@pci_print_
$LN3@pci_print_:
$LN5@pci_print_:

; 299  : 	}
; 300  : }

	add	rsp, 72					; 00000048H
	ret	0
?pci_print_capabilities@@YAXPEATpci_device_info@@@Z ENDP ; pci_print_capabilities
_TEXT	ENDS
; Function compile flags: /Odtp
; File e:\xeneva project\xeneva\aurora\aurora\drivers\pci.cpp
_TEXT	SEGMENT
dev$1 = 48
bus$2 = 52
func$3 = 56
config$ = 64
device_id$ = 352
vendor_id$ = 360
addr_out$ = 368
?pci_find_device_id@@YA_NGGPEATpci_device_info@@@Z PROC	; pci_find_device_id

; 196  : bool pci_find_device_id (uint16_t device_id, uint16_t vendor_id, pci_device_info *addr_out) {

$LN13:
	mov	QWORD PTR [rsp+24], r8
	mov	WORD PTR [rsp+16], dx
	mov	WORD PTR [rsp+8], cx
	push	rsi
	push	rdi
	sub	rsp, 328				; 00000148H

; 197  : 	pci_device_info config;
; 198  : 	printf ("PCI Scanning device\n");

	lea	rcx, OFFSET FLAT:$SG3397
	call	?printf@@YAXPEBDZZ			; printf

; 199  : 	for (int bus = 0; bus < 256; bus++) {

	mov	DWORD PTR bus$2[rsp], 0
	jmp	SHORT $LN10@pci_find_d
$LN9@pci_find_d:
	mov	eax, DWORD PTR bus$2[rsp]
	inc	eax
	mov	DWORD PTR bus$2[rsp], eax
$LN10@pci_find_d:
	cmp	DWORD PTR bus$2[rsp], 256		; 00000100H
	jge	$LN8@pci_find_d

; 200  : 		for (int dev = 0; dev < 32; dev++) {

	mov	DWORD PTR dev$1[rsp], 0
	jmp	SHORT $LN7@pci_find_d
$LN6@pci_find_d:
	mov	eax, DWORD PTR dev$1[rsp]
	inc	eax
	mov	DWORD PTR dev$1[rsp], eax
$LN7@pci_find_d:
	cmp	DWORD PTR dev$1[rsp], 32		; 00000020H
	jge	$LN5@pci_find_d

; 201  : 			for (int func = 0; func < 8; func++) {

	mov	DWORD PTR func$3[rsp], 0
	jmp	SHORT $LN4@pci_find_d
$LN3@pci_find_d:
	mov	eax, DWORD PTR func$3[rsp]
	inc	eax
	mov	DWORD PTR func$3[rsp], eax
$LN4@pci_find_d:
	cmp	DWORD PTR func$3[rsp], 8
	jge	$LN2@pci_find_d

; 202  : 
; 203  : 				read_config_32 (bus, dev, func, 0, config.header[0]);

	mov	eax, 4
	imul	rax, 0
	mov	eax, DWORD PTR config$[rsp+rax]
	mov	DWORD PTR [rsp+32], eax
	xor	r9d, r9d
	mov	r8d, DWORD PTR func$3[rsp]
	mov	edx, DWORD PTR dev$1[rsp]
	mov	ecx, DWORD PTR bus$2[rsp]
	call	?read_config_32@@YAXHHHHI@Z		; read_config_32

; 204  : 
; 205  : 				read_config_header (bus, dev, func, &config);

	lea	r9, QWORD PTR config$[rsp]
	mov	r8d, DWORD PTR func$3[rsp]
	mov	edx, DWORD PTR dev$1[rsp]
	mov	ecx, DWORD PTR bus$2[rsp]
	call	?read_config_header@@YAXHHHPEATpci_device_info@@@Z ; read_config_header

; 206  : 
; 207  : 				if (config.device.deviceID == device_id && config.device.vendorID == vendor_id) {

	movzx	eax, WORD PTR config$[rsp+2]
	movzx	ecx, WORD PTR device_id$[rsp]
	cmp	eax, ecx
	jne	SHORT $LN1@pci_find_d
	movzx	eax, WORD PTR config$[rsp]
	movzx	ecx, WORD PTR vendor_id$[rsp]
	cmp	eax, ecx
	jne	SHORT $LN1@pci_find_d

; 208  : 					*addr_out = config;

	lea	rax, QWORD PTR config$[rsp]
	mov	rdi, QWORD PTR addr_out$[rsp]
	mov	rsi, rax
	mov	ecx, 256				; 00000100H
	rep movsb

; 209  : 					printf ("Device found\n");

	lea	rcx, OFFSET FLAT:$SG3411
	call	?printf@@YAXPEBDZZ			; printf

; 210  : 					printf ("Device ID -> %x, Vendor ID -> %x\n", config.device.deviceID, config.device.vendorID);

	movzx	eax, WORD PTR config$[rsp]
	movzx	ecx, WORD PTR config$[rsp+2]
	mov	r8d, eax
	mov	edx, ecx
	lea	rcx, OFFSET FLAT:$SG3412
	call	?printf@@YAXPEBDZZ			; printf

; 211  : 					return true;

	mov	al, 1
	jmp	SHORT $LN11@pci_find_d
$LN1@pci_find_d:

; 212  : 				}
; 213  : 			}

	jmp	$LN3@pci_find_d
$LN2@pci_find_d:

; 214  : 		}

	jmp	$LN6@pci_find_d
$LN5@pci_find_d:

; 215  : 	}

	jmp	$LN9@pci_find_d
$LN8@pci_find_d:

; 216  : 
; 217  : 	return false;

	xor	al, al
$LN11@pci_find_d:

; 218  : }

	add	rsp, 328				; 00000148H
	pop	rdi
	pop	rsi
	ret	0
?pci_find_device_id@@YA_NGGPEATpci_device_info@@@Z ENDP	; pci_find_device_id
_TEXT	ENDS
; Function compile flags: /Odtp
; File e:\xeneva project\xeneva\aurora\aurora\drivers\pci.cpp
_TEXT	SEGMENT
command_reg$1 = 48
dev$2 = 52
func$3 = 56
bus$4 = 60
config$ = 64
class_code$ = 352
sub_class$ = 360
addr_out$ = 368
bus_$ = 376
dev_$ = 384
func_$ = 392
?pci_find_device_class@@YA_NEEPEATpci_device_info@@PEAH11@Z PROC ; pci_find_device_class

; 163  : bool pci_find_device_class (uint8_t class_code, uint8_t sub_class, pci_device_info *addr_out, int *bus_, int *dev_, int *func_) {

$LN13:
	mov	QWORD PTR [rsp+32], r9
	mov	QWORD PTR [rsp+24], r8
	mov	BYTE PTR [rsp+16], dl
	mov	BYTE PTR [rsp+8], cl
	push	rsi
	push	rdi
	sub	rsp, 328				; 00000148H

; 164  : 	pci_device_info config;
; 165  : 	for (int bus = 0; bus < 256; bus++) {

	mov	DWORD PTR bus$4[rsp], 0
	jmp	SHORT $LN10@pci_find_d
$LN9@pci_find_d:
	mov	eax, DWORD PTR bus$4[rsp]
	inc	eax
	mov	DWORD PTR bus$4[rsp], eax
$LN10@pci_find_d:
	cmp	DWORD PTR bus$4[rsp], 256		; 00000100H
	jge	$LN8@pci_find_d

; 166  : 		for (int dev = 0; dev < 32; dev++) {

	mov	DWORD PTR dev$2[rsp], 0
	jmp	SHORT $LN7@pci_find_d
$LN6@pci_find_d:
	mov	eax, DWORD PTR dev$2[rsp]
	inc	eax
	mov	DWORD PTR dev$2[rsp], eax
$LN7@pci_find_d:
	cmp	DWORD PTR dev$2[rsp], 32		; 00000020H
	jge	$LN5@pci_find_d

; 167  : 			for (int func = 0; func < 8; func++) {

	mov	DWORD PTR func$3[rsp], 0
	jmp	SHORT $LN4@pci_find_d
$LN3@pci_find_d:
	mov	eax, DWORD PTR func$3[rsp]
	inc	eax
	mov	DWORD PTR func$3[rsp], eax
$LN4@pci_find_d:
	cmp	DWORD PTR func$3[rsp], 8
	jge	$LN2@pci_find_d

; 168  : 				uint16_t command_reg;
; 169  : 
; 170  : 				read_config_32 (bus, dev, func, 0, config.header[0]);

	mov	eax, 4
	imul	rax, 0
	mov	eax, DWORD PTR config$[rsp+rax]
	mov	DWORD PTR [rsp+32], eax
	xor	r9d, r9d
	mov	r8d, DWORD PTR func$3[rsp]
	mov	edx, DWORD PTR dev$2[rsp]
	mov	ecx, DWORD PTR bus$4[rsp]
	call	?read_config_32@@YAXHHHHI@Z		; read_config_32

; 171  : 
; 172  : 				read_config_header (bus, dev, func, &config);

	lea	r9, QWORD PTR config$[rsp]
	mov	r8d, DWORD PTR func$3[rsp]
	mov	edx, DWORD PTR dev$2[rsp]
	mov	ecx, DWORD PTR bus$4[rsp]
	call	?read_config_header@@YAXHHHPEATpci_device_info@@@Z ; read_config_header

; 173  : 
; 174  : 				if (config.device.classCode == class_code && config.device.subClassCode == sub_class) {

	movzx	eax, BYTE PTR config$[rsp+11]
	movzx	ecx, BYTE PTR class_code$[rsp]
	cmp	eax, ecx
	jne	$LN1@pci_find_d
	movzx	eax, BYTE PTR config$[rsp+10]
	movzx	ecx, BYTE PTR sub_class$[rsp]
	cmp	eax, ecx
	jne	$LN1@pci_find_d

; 175  : 					*addr_out = config;

	lea	rax, QWORD PTR config$[rsp]
	mov	rdi, QWORD PTR addr_out$[rsp]
	mov	rsi, rax
	mov	ecx, 256				; 00000100H
	rep movsb

; 176  : 					read_config_16 (bus,dev,func,PCI_CONFREG_COMMAND_16, &command_reg);

	lea	rax, QWORD PTR command_reg$1[rsp]
	mov	QWORD PTR [rsp+32], rax
	mov	r9d, 2
	mov	r8d, DWORD PTR func$3[rsp]
	mov	edx, DWORD PTR dev$2[rsp]
	mov	ecx, DWORD PTR bus$4[rsp]
	call	?read_config_16@@YAXHHHHPEAG@Z		; read_config_16

; 177  : 					command_reg |= PCI_COMMAND_IOENABLE;

	movzx	eax, WORD PTR command_reg$1[rsp]
	or	eax, 1
	mov	WORD PTR command_reg$1[rsp], ax

; 178  : 					command_reg |= PCI_COMMAND_MEMORYENABLE;

	movzx	eax, WORD PTR command_reg$1[rsp]
	or	eax, 2
	mov	WORD PTR command_reg$1[rsp], ax

; 179  : 					command_reg |= PCI_COMMAND_MASTERENABLE;

	movzx	eax, WORD PTR command_reg$1[rsp]
	or	eax, 4
	mov	WORD PTR command_reg$1[rsp], ax

; 180  : 					command_reg &= ~PCI_COMMAND_INTERRUPTDISABLE;

	movzx	eax, WORD PTR command_reg$1[rsp]
	btr	eax, 10
	mov	WORD PTR command_reg$1[rsp], ax

; 181  : 				    write_config_16 (bus, dev,func,PCI_CONFREG_COMMAND_16,command_reg);

	movzx	eax, WORD PTR command_reg$1[rsp]
	mov	WORD PTR [rsp+32], ax
	mov	r9d, 2
	mov	r8d, DWORD PTR func$3[rsp]
	mov	edx, DWORD PTR dev$2[rsp]
	mov	ecx, DWORD PTR bus$4[rsp]
	call	?write_config_16@@YAXHHHHG@Z		; write_config_16

; 182  : 					*bus_ = bus;

	mov	rax, QWORD PTR bus_$[rsp]
	mov	ecx, DWORD PTR bus$4[rsp]
	mov	DWORD PTR [rax], ecx

; 183  : 					*dev_ = dev;

	mov	rax, QWORD PTR dev_$[rsp]
	mov	ecx, DWORD PTR dev$2[rsp]
	mov	DWORD PTR [rax], ecx

; 184  : 					*func_ = func;

	mov	rax, QWORD PTR func_$[rsp]
	mov	ecx, DWORD PTR func$3[rsp]
	mov	DWORD PTR [rax], ecx

; 185  : 					return true;

	mov	al, 1
	jmp	SHORT $LN11@pci_find_d
$LN1@pci_find_d:

; 186  : 				}
; 187  : 				
; 188  : 			}

	jmp	$LN3@pci_find_d
$LN2@pci_find_d:

; 189  : 		}

	jmp	$LN6@pci_find_d
$LN5@pci_find_d:

; 190  : 	}

	jmp	$LN9@pci_find_d
$LN8@pci_find_d:

; 191  : 
; 192  : 	return false;

	xor	al, al
$LN11@pci_find_d:

; 193  : }

	add	rsp, 328				; 00000148H
	pop	rdi
	pop	rsi
	ret	0
?pci_find_device_class@@YA_NEEPEATpci_device_info@@PEAH11@Z ENDP ; pci_find_device_class
_TEXT	ENDS
; Function compile flags: /Odtp
; File e:\xeneva project\xeneva\aurora\aurora\drivers\pci.cpp
_TEXT	SEGMENT
command$ = 32
flags$ = 36
addr$ = 64
enable$ = 72
?pci_set_mem_enable@@YAXPEBU_pci_address_@@_N@Z PROC	; pci_set_mem_enable

; 233  : void pci_set_mem_enable (const pci_address *addr, bool enable) {

$LN5:
	mov	BYTE PTR [rsp+16], dl
	mov	QWORD PTR [rsp+8], rcx
	sub	rsp, 56					; 00000038H

; 234  : 	uint16_t command = pci_config_read16 (addr, offsetof (pci_config_space, command));

	mov	dx, 4
	mov	rcx, QWORD PTR addr$[rsp]
	call	?pci_config_read16@@YAGPEBU_pci_address_@@G@Z ; pci_config_read16
	mov	WORD PTR command$[rsp], ax

; 235  : 
; 236  : 	const uint16_t flags = 0x0007;

	mov	eax, 7
	mov	WORD PTR flags$[rsp], ax

; 237  : 
; 238  : 	if (enable) {

	movzx	eax, BYTE PTR enable$[rsp]
	test	eax, eax
	je	SHORT $LN2@pci_set_me

; 239  : 		command |= flags;

	movzx	eax, WORD PTR command$[rsp]
	or	eax, 7
	mov	WORD PTR command$[rsp], ax

; 240  : 	}else {

	jmp	SHORT $LN1@pci_set_me
$LN2@pci_set_me:

; 241  : 		command &= ~flags;

	movzx	eax, WORD PTR command$[rsp]
	and	eax, -8
	mov	WORD PTR command$[rsp], ax
$LN1@pci_set_me:

; 242  : 	}
; 243  : 
; 244  : 	pci_config_write16 (addr, offsetof (pci_config_space, command), command);

	movzx	r8d, WORD PTR command$[rsp]
	mov	dx, 4
	mov	rcx, QWORD PTR addr$[rsp]
	call	?pci_config_write16@@YAXPEBU_pci_address_@@GG@Z ; pci_config_write16

; 245  : }

	add	rsp, 56					; 00000038H
	ret	0
?pci_set_mem_enable@@YAXPEBU_pci_address_@@_N@Z ENDP	; pci_set_mem_enable
_TEXT	ENDS
; Function compile flags: /Odtp
; File e:\xeneva project\xeneva\aurora\aurora\drivers\pci.cpp
_TEXT	SEGMENT
tv75 = 32
bar$ = 36
mask$ = 40
addr$ = 64
index$ = 72
?pci_get_bar_addr@@YAIPEBU_pci_address_@@H@Z PROC	; pci_get_bar_addr

; 225  : uint32_t pci_get_bar_addr (const pci_address *addr, int index) {

$LN5:
	mov	DWORD PTR [rsp+16], edx
	mov	QWORD PTR [rsp+8], rcx
	sub	rsp, 56					; 00000038H

; 226  : 	uint32_t bar = pci_config_read32 (addr, offsetof (pci_config_space, BAR[index]));

	mov	eax, 16
	movsxd	rcx, DWORD PTR index$[rsp]
	lea	rax, QWORD PTR [rax+rcx*4]
	movzx	edx, ax
	mov	rcx, QWORD PTR addr$[rsp]
	call	?pci_config_read32@@YAIPEBU_pci_address_@@G@Z ; pci_config_read32
	mov	DWORD PTR bar$[rsp], eax

; 227  : 	uint32_t mask = (bar & PCI_CONF_BAR_IO) ? 0x3 : 0xf;

	mov	eax, DWORD PTR bar$[rsp]
	and	eax, 1
	test	eax, eax
	je	SHORT $LN3@pci_get_ba
	mov	DWORD PTR tv75[rsp], 3
	jmp	SHORT $LN4@pci_get_ba
$LN3@pci_get_ba:
	mov	DWORD PTR tv75[rsp], 15
$LN4@pci_get_ba:
	mov	eax, DWORD PTR tv75[rsp]
	mov	DWORD PTR mask$[rsp], eax

; 228  : 
; 229  : 	return bar & ~mask;

	mov	eax, DWORD PTR mask$[rsp]
	not	eax
	mov	ecx, DWORD PTR bar$[rsp]
	and	ecx, eax
	mov	eax, ecx

; 230  : }

	add	rsp, 56					; 00000038H
	ret	0
?pci_get_bar_addr@@YAIPEBU_pci_address_@@H@Z ENDP	; pci_get_bar_addr
_TEXT	ENDS
; Function compile flags: /Odtp
; File e:\xeneva project\xeneva\aurora\aurora\drivers\pci.cpp
_TEXT	SEGMENT
addr$ = 48
index$ = 56
value$ = 64
?pci_setBAR@@YAXPEBU_pci_address_@@HI@Z PROC		; pci_setBAR

; 220  : void pci_setBAR (const pci_address *addr, int index, uint32_t value) {

$LN3:
	mov	DWORD PTR [rsp+24], r8d
	mov	DWORD PTR [rsp+16], edx
	mov	QWORD PTR [rsp+8], rcx
	sub	rsp, 40					; 00000028H

; 221  : 	pci_config_write32 (addr, offsetof (pci_config_space,BAR[index]),value);

	mov	eax, 16
	movsxd	rcx, DWORD PTR index$[rsp]
	lea	rax, QWORD PTR [rax+rcx*4]
	mov	r8d, DWORD PTR value$[rsp]
	movzx	edx, ax
	mov	rcx, QWORD PTR addr$[rsp]
	call	?pci_config_write32@@YAXPEBU_pci_address_@@GI@Z ; pci_config_write32

; 222  : }

	add	rsp, 40					; 00000028H
	ret	0
?pci_setBAR@@YAXPEBU_pci_address_@@HI@Z ENDP		; pci_setBAR
_TEXT	ENDS
; Function compile flags: /Odtp
; File e:\xeneva project\xeneva\aurora\aurora\drivers\pci.cpp
_TEXT	SEGMENT
bus_scan$ = 32
vendor_id$ = 80
device_id$ = 88
addr_out$ = 96
?pci_find_device@@YA_NGGPEAU_pci_address_@@@Z PROC	; pci_find_device

; 150  : bool pci_find_device (uint16_t vendor_id, uint16_t device_id, pci_address *addr_out) {

$LN6:
	mov	QWORD PTR [rsp+24], r8
	mov	WORD PTR [rsp+16], dx
	mov	WORD PTR [rsp+8], cx
	push	rsi
	push	rdi
	sub	rsp, 56					; 00000038H

; 151  : 	pci_scan_state bus_scan = {};

	lea	rax, QWORD PTR bus_scan$[rsp]
	mov	rdi, rax
	xor	eax, eax
	mov	ecx, 12
	rep stosb
$LN3@pci_find_d:

; 152  : 
; 153  : 	while (pci_scan_bus (&bus_scan)) {

	lea	rcx, QWORD PTR bus_scan$[rsp]
	call	?pci_scan_bus@@YA_NPEAU_pci_scan_state_@@@Z ; pci_scan_bus
	movzx	eax, al
	test	eax, eax
	je	SHORT $LN2@pci_find_d

; 154  : 		if (bus_scan.vendor_id == vendor_id && bus_scan.device_id == device_id) {

	movzx	eax, WORD PTR bus_scan$[rsp]
	movzx	ecx, WORD PTR vendor_id$[rsp]
	cmp	eax, ecx
	jne	SHORT $LN1@pci_find_d
	movzx	eax, WORD PTR bus_scan$[rsp+2]
	movzx	ecx, WORD PTR device_id$[rsp]
	cmp	eax, ecx
	jne	SHORT $LN1@pci_find_d

; 155  : 			*addr_out = bus_scan.addr;

	lea	rax, QWORD PTR bus_scan$[rsp+7]
	mov	rdi, QWORD PTR addr_out$[rsp]
	mov	rsi, rax
	mov	ecx, 3
	rep movsb

; 156  : 			return true;

	mov	al, 1
	jmp	SHORT $LN4@pci_find_d
$LN1@pci_find_d:

; 157  : 		}
; 158  : 	}

	jmp	SHORT $LN3@pci_find_d
$LN2@pci_find_d:

; 159  : 
; 160  : 	return false;

	xor	al, al
$LN4@pci_find_d:

; 161  : }

	add	rsp, 56					; 00000038H
	pop	rdi
	pop	rsi
	ret	0
?pci_find_device@@YA_NGGPEAU_pci_address_@@@Z ENDP	; pci_find_device
_TEXT	ENDS
; Function compile flags: /Odtp
; File e:\xeneva project\xeneva\aurora\aurora\drivers\pci.cpp
_TEXT	SEGMENT
tv77 = 32
tv86 = 33
tv95 = 34
config$ = 48
state$ = 144
?pci_scan_bus@@YA_NPEAU_pci_scan_state_@@@Z PROC	; pci_scan_bus

; 121  : bool pci_scan_bus (pci_scan_state *state) {

$LN9:
	mov	QWORD PTR [rsp+8], rcx
	push	rsi
	push	rdi
	sub	rsp, 120				; 00000078H
$LN6@pci_scan_b:

; 122  : 	pci_config_space config;
; 123  : 	
; 124  : 	for (;;) {
; 125  : 		config.words[0] = pci_config_read32(&state->next_addr, 0);

	mov	rax, QWORD PTR state$[rsp]
	add	rax, 4
	xor	edx, edx
	mov	rcx, rax
	call	?pci_config_read32@@YAIPEBU_pci_address_@@G@Z ; pci_config_read32
	mov	ecx, 4
	imul	rcx, 0
	mov	DWORD PTR config$[rsp+rcx], eax

; 126  : 
; 127  : 		state->addr = state->next_addr;

	mov	rax, QWORD PTR state$[rsp]
	mov	rcx, QWORD PTR state$[rsp]
	lea	rdi, QWORD PTR [rax+7]
	lea	rsi, QWORD PTR [rcx+4]
	mov	ecx, 3
	rep movsb

; 128  : 
; 129  : 		if (++state->next_addr.function == 0x8) {

	mov	rax, QWORD PTR state$[rsp]
	movzx	eax, BYTE PTR [rax+6]
	inc	al
	mov	BYTE PTR tv77[rsp], al
	mov	rax, QWORD PTR state$[rsp]
	movzx	ecx, BYTE PTR tv77[rsp]
	mov	BYTE PTR [rax+6], cl
	movzx	eax, BYTE PTR tv77[rsp]
	cmp	eax, 8
	jne	SHORT $LN4@pci_scan_b

; 130  : 			state->next_addr.function = 0;

	mov	rax, QWORD PTR state$[rsp]
	mov	BYTE PTR [rax+6], 0

; 131  : 			if (++state->next_addr.device == 0x20) {

	mov	rax, QWORD PTR state$[rsp]
	movzx	eax, BYTE PTR [rax+5]
	inc	al
	mov	BYTE PTR tv86[rsp], al
	mov	rax, QWORD PTR state$[rsp]
	movzx	ecx, BYTE PTR tv86[rsp]
	mov	BYTE PTR [rax+5], cl
	movzx	eax, BYTE PTR tv86[rsp]
	cmp	eax, 32					; 00000020H
	jne	SHORT $LN3@pci_scan_b

; 132  : 				state->next_addr.device = 0;

	mov	rax, QWORD PTR state$[rsp]
	mov	BYTE PTR [rax+5], 0

; 133  : 				if (++state->next_addr.bus == PCI_MAX_BUS) {

	mov	rax, QWORD PTR state$[rsp]
	movzx	eax, BYTE PTR [rax+4]
	inc	al
	mov	BYTE PTR tv95[rsp], al
	mov	rax, QWORD PTR state$[rsp]
	movzx	ecx, BYTE PTR tv95[rsp]
	mov	BYTE PTR [rax+4], cl
	movzx	eax, BYTE PTR tv95[rsp]
	cmp	eax, 32					; 00000020H
	jne	SHORT $LN2@pci_scan_b

; 134  : 					return false;

	xor	al, al
	jmp	SHORT $LN7@pci_scan_b
$LN2@pci_scan_b:
$LN3@pci_scan_b:
$LN4@pci_scan_b:

; 135  : 				}
; 136  : 			}
; 137  : 		}
; 138  : 
; 139  : 		if (config.words[0] != 0xFFFFFFFFUL) {

	mov	eax, 4
	imul	rax, 0
	cmp	DWORD PTR config$[rsp+rax], -1		; ffffffffH
	je	SHORT $LN1@pci_scan_b

; 140  : 			state->vendor_id = config.vendor_id;

	mov	rax, QWORD PTR state$[rsp]
	movzx	ecx, WORD PTR config$[rsp]
	mov	WORD PTR [rax], cx

; 141  : 			state->device_id = config.device_id;

	mov	rax, QWORD PTR state$[rsp]
	movzx	ecx, WORD PTR config$[rsp+2]
	mov	WORD PTR [rax+2], cx

; 142  : 			state->subclass = config.subclass;

	mov	rax, QWORD PTR state$[rsp]
	movzx	ecx, BYTE PTR config$[rsp+10]
	mov	BYTE PTR [rax+10], cl

; 143  : 			state->class_code = config.class_code;

	mov	rax, QWORD PTR state$[rsp]
	movzx	ecx, BYTE PTR config$[rsp+11]
	mov	BYTE PTR [rax+11], cl

; 144  : 			return true;

	mov	al, 1
	jmp	SHORT $LN7@pci_scan_b
$LN1@pci_scan_b:

; 145  : 		}
; 146  : 	}

	jmp	$LN6@pci_scan_b
$LN7@pci_scan_b:

; 147  : }

	add	rsp, 120				; 00000078H
	pop	rdi
	pop	rsi
	ret	0
?pci_scan_bus@@YA_NPEAU_pci_scan_state_@@@Z ENDP	; pci_scan_bus
_TEXT	ENDS
; Function compile flags: /Odtp
; File e:\xeneva project\xeneva\aurora\aurora\drivers\pci.cpp
_TEXT	SEGMENT
tv71 = 32
address$ = 36
bus$ = 64
dev$ = 72
func$ = 80
reg$ = 88
data$ = 96
?write_config_8@@YAXHHHHE@Z PROC			; write_config_8

; 48   : void write_config_8 (int bus, int dev, int func, int reg, unsigned char data) {

$LN3:
	mov	DWORD PTR [rsp+32], r9d
	mov	DWORD PTR [rsp+24], r8d
	mov	DWORD PTR [rsp+16], edx
	mov	DWORD PTR [rsp+8], ecx
	sub	rsp, 56					; 00000038H

; 49   : 	unsigned address = header_address (bus, dev, func, (reg / 4));

	mov	eax, DWORD PTR bus$[rsp]
	and	eax, 255				; 000000ffH
	shl	eax, 16
	mov	ecx, DWORD PTR dev$[rsp]
	and	ecx, 31
	shl	ecx, 11
	or	eax, ecx
	mov	ecx, DWORD PTR func$[rsp]
	and	ecx, 7
	shl	ecx, 8
	or	eax, ecx
	mov	DWORD PTR tv71[rsp], eax
	mov	eax, DWORD PTR reg$[rsp]
	cdq
	and	edx, 3
	add	eax, edx
	sar	eax, 2
	and	eax, 63					; 0000003fH
	shl	eax, 2
	mov	ecx, DWORD PTR tv71[rsp]
	or	ecx, eax
	mov	eax, ecx
	bts	eax, 31
	mov	DWORD PTR address$[rsp], eax

; 50   : 	outportd (PCI_CONFIG_PORT, address);

	mov	edx, DWORD PTR address$[rsp]
	mov	cx, 3320				; 00000cf8H
	call	?outportd@@YAXGI@Z			; outportd

; 51   : 	outportb (PCI_DATA_PORT + (reg % 4), data);

	mov	eax, DWORD PTR reg$[rsp]
	cdq
	and	edx, 3
	add	eax, edx
	and	eax, 3
	sub	eax, edx
	add	eax, 3324				; 00000cfcH
	movzx	edx, BYTE PTR data$[rsp]
	movzx	ecx, ax
	call	?outportb@@YAXGE@Z			; outportb

; 52   : }

	add	rsp, 56					; 00000038H
	ret	0
?write_config_8@@YAXHHHHE@Z ENDP			; write_config_8
_TEXT	ENDS
; Function compile flags: /Odtp
; File e:\xeneva project\xeneva\aurora\aurora\drivers\pci.cpp
_TEXT	SEGMENT
tv71 = 32
address$ = 36
bus$ = 64
dev$ = 72
function$ = 80
reg$ = 88
data$ = 96
?read_config_8@@YAXHHHHPEAE@Z PROC			; read_config_8

; 42   : void read_config_8 (int bus, int dev, int function, int reg, unsigned char* data) {

$LN3:
	mov	DWORD PTR [rsp+32], r9d
	mov	DWORD PTR [rsp+24], r8d
	mov	DWORD PTR [rsp+16], edx
	mov	DWORD PTR [rsp+8], ecx
	sub	rsp, 56					; 00000038H

; 43   : 	unsigned address = header_address (bus, dev, function, (reg / 4));

	mov	eax, DWORD PTR bus$[rsp]
	and	eax, 255				; 000000ffH
	shl	eax, 16
	mov	ecx, DWORD PTR dev$[rsp]
	and	ecx, 31
	shl	ecx, 11
	or	eax, ecx
	mov	ecx, DWORD PTR function$[rsp]
	and	ecx, 7
	shl	ecx, 8
	or	eax, ecx
	mov	DWORD PTR tv71[rsp], eax
	mov	eax, DWORD PTR reg$[rsp]
	cdq
	and	edx, 3
	add	eax, edx
	sar	eax, 2
	and	eax, 63					; 0000003fH
	shl	eax, 2
	mov	ecx, DWORD PTR tv71[rsp]
	or	ecx, eax
	mov	eax, ecx
	bts	eax, 31
	mov	DWORD PTR address$[rsp], eax

; 44   : 	x64_outportd (PCI_CONFIG_PORT, address);

	mov	edx, DWORD PTR address$[rsp]
	mov	cx, 3320				; 00000cf8H
	call	x64_outportd

; 45   : 	*data = x64_inportb ((PCI_DATA_PORT + (reg % 4)));

	mov	eax, DWORD PTR reg$[rsp]
	cdq
	and	edx, 3
	add	eax, edx
	and	eax, 3
	sub	eax, edx
	add	eax, 3324				; 00000cfcH
	movzx	ecx, ax
	call	x64_inportb
	mov	rcx, QWORD PTR data$[rsp]
	mov	BYTE PTR [rcx], al

; 46   : }

	add	rsp, 56					; 00000038H
	ret	0
?read_config_8@@YAXHHHHPEAE@Z ENDP			; read_config_8
_TEXT	ENDS
; Function compile flags: /Odtp
; File e:\xeneva project\xeneva\aurora\aurora\drivers\pci.cpp
_TEXT	SEGMENT
address$ = 32
bus$ = 64
dev$ = 72
function$ = 80
reg$ = 88
data$ = 96
?read_config_32@@YAXHHHHI@Z PROC			; read_config_32

; 56   : {

$LN3:
	mov	DWORD PTR [rsp+32], r9d
	mov	DWORD PTR [rsp+24], r8d
	mov	DWORD PTR [rsp+16], edx
	mov	DWORD PTR [rsp+8], ecx
	sub	rsp, 56					; 00000038H

; 57   : 	//! read configuration dword
; 58   : 	unsigned address = header_address (bus, dev, function, reg);

	mov	eax, DWORD PTR bus$[rsp]
	and	eax, 255				; 000000ffH
	shl	eax, 16
	mov	ecx, DWORD PTR dev$[rsp]
	and	ecx, 31
	shl	ecx, 11
	or	eax, ecx
	mov	ecx, DWORD PTR function$[rsp]
	and	ecx, 7
	shl	ecx, 8
	or	eax, ecx
	mov	ecx, DWORD PTR reg$[rsp]
	and	ecx, 63					; 0000003fH
	shl	ecx, 2
	or	eax, ecx
	bts	eax, 31
	mov	DWORD PTR address$[rsp], eax

; 59   : 	x64_outportd (PCI_CONFIG_PORT, address);

	mov	edx, DWORD PTR address$[rsp]
	mov	cx, 3320				; 00000cf8H
	call	x64_outportd

; 60   : 	data = x64_inportd (PCI_DATA_PORT);

	mov	cx, 3324				; 00000cfcH
	call	x64_inportd
	mov	DWORD PTR data$[rsp], eax

; 61   : }

	add	rsp, 56					; 00000038H
	ret	0
?read_config_32@@YAXHHHHI@Z ENDP			; read_config_32
_TEXT	ENDS
; Function compile flags: /Odtp
; File e:\xeneva project\xeneva\aurora\aurora\drivers\pci.cpp
_TEXT	SEGMENT
tv71 = 32
address$ = 36
bus$ = 64
dev$ = 72
function$ = 80
reg$ = 88
data$ = 96
?write_config_16@@YAXHHHHG@Z PROC			; write_config_16

; 73   : {

$LN3:
	mov	DWORD PTR [rsp+32], r9d
	mov	DWORD PTR [rsp+24], r8d
	mov	DWORD PTR [rsp+16], edx
	mov	DWORD PTR [rsp+8], ecx
	sub	rsp, 56					; 00000038H

; 74   : 	//! write configuration word
; 75   : 	unsigned address = header_address (bus, dev, function, (reg / 2));

	mov	eax, DWORD PTR bus$[rsp]
	and	eax, 255				; 000000ffH
	shl	eax, 16
	mov	ecx, DWORD PTR dev$[rsp]
	and	ecx, 31
	shl	ecx, 11
	or	eax, ecx
	mov	ecx, DWORD PTR function$[rsp]
	and	ecx, 7
	shl	ecx, 8
	or	eax, ecx
	mov	DWORD PTR tv71[rsp], eax
	mov	eax, DWORD PTR reg$[rsp]
	cdq
	sub	eax, edx
	sar	eax, 1
	and	eax, 63					; 0000003fH
	shl	eax, 2
	mov	ecx, DWORD PTR tv71[rsp]
	or	ecx, eax
	mov	eax, ecx
	bts	eax, 31
	mov	DWORD PTR address$[rsp], eax

; 76   : 	x64_outportd (PCI_CONFIG_PORT, address);

	mov	edx, DWORD PTR address$[rsp]
	mov	cx, 3320				; 00000cf8H
	call	x64_outportd

; 77   : 	x64_outportw ((PCI_DATA_PORT + (reg % 2)), data);

	mov	eax, DWORD PTR reg$[rsp]
	cdq
	and	eax, 1
	xor	eax, edx
	sub	eax, edx
	add	eax, 3324				; 00000cfcH
	movzx	edx, WORD PTR data$[rsp]
	movzx	ecx, ax
	call	x64_outportw

; 78   : }

	add	rsp, 56					; 00000038H
	ret	0
?write_config_16@@YAXHHHHG@Z ENDP			; write_config_16
_TEXT	ENDS
; Function compile flags: /Odtp
; File e:\xeneva project\xeneva\aurora\aurora\drivers\pci.cpp
_TEXT	SEGMENT
tv71 = 32
address$ = 36
bus$ = 64
dev$ = 72
function$ = 80
reg$ = 88
data$ = 96
?read_config_16@@YAXHHHHPEAG@Z PROC			; read_config_16

; 64   : {

$LN3:
	mov	DWORD PTR [rsp+32], r9d
	mov	DWORD PTR [rsp+24], r8d
	mov	DWORD PTR [rsp+16], edx
	mov	DWORD PTR [rsp+8], ecx
	sub	rsp, 56					; 00000038H

; 65   : 	//! read configuration word
; 66   : 	unsigned address = header_address (bus, dev, function, (reg / 2));

	mov	eax, DWORD PTR bus$[rsp]
	and	eax, 255				; 000000ffH
	shl	eax, 16
	mov	ecx, DWORD PTR dev$[rsp]
	and	ecx, 31
	shl	ecx, 11
	or	eax, ecx
	mov	ecx, DWORD PTR function$[rsp]
	and	ecx, 7
	shl	ecx, 8
	or	eax, ecx
	mov	DWORD PTR tv71[rsp], eax
	mov	eax, DWORD PTR reg$[rsp]
	cdq
	sub	eax, edx
	sar	eax, 1
	and	eax, 63					; 0000003fH
	shl	eax, 2
	mov	ecx, DWORD PTR tv71[rsp]
	or	ecx, eax
	mov	eax, ecx
	bts	eax, 31
	mov	DWORD PTR address$[rsp], eax

; 67   : 	x64_outportd (PCI_CONFIG_PORT, address);

	mov	edx, DWORD PTR address$[rsp]
	mov	cx, 3320				; 00000cf8H
	call	x64_outportd

; 68   : 	*data = x64_inportw (PCI_DATA_PORT + (reg % 2));

	mov	eax, DWORD PTR reg$[rsp]
	cdq
	and	eax, 1
	xor	eax, edx
	sub	eax, edx
	add	eax, 3324				; 00000cfcH
	movzx	ecx, ax
	call	x64_inportw
	mov	rcx, QWORD PTR data$[rsp]
	mov	WORD PTR [rcx], ax

; 69   : }

	add	rsp, 56					; 00000038H
	ret	0
?read_config_16@@YAXHHHHPEAG@Z ENDP			; read_config_16
_TEXT	ENDS
; Function compile flags: /Odtp
; File e:\xeneva project\xeneva\aurora\aurora\drivers\pci.cpp
_TEXT	SEGMENT
reg$ = 32
address$ = 36
bus$ = 64
dev$ = 72
function$ = 80
dev_info$ = 88
?read_config_header@@YAXHHHPEATpci_device_info@@@Z PROC	; read_config_header

; 108  : {

$LN6:
	mov	QWORD PTR [rsp+32], r9
	mov	DWORD PTR [rsp+24], r8d
	mov	DWORD PTR [rsp+16], edx
	mov	DWORD PTR [rsp+8], ecx
	sub	rsp, 56					; 00000038H

; 109  : 	unsigned address = 0;

	mov	DWORD PTR address$[rsp], 0

; 110  : 	int reg;
; 111  : 
; 112  : 	for (reg = 0; reg < (PCI_CONFIGHEADER_SIZE / 4); reg ++)

	mov	DWORD PTR reg$[rsp], 0
	jmp	SHORT $LN3@read_confi
$LN2@read_confi:
	mov	eax, DWORD PTR reg$[rsp]
	inc	eax
	mov	DWORD PTR reg$[rsp], eax
$LN3@read_confi:
	cmp	DWORD PTR reg$[rsp], 64			; 00000040H
	jge	SHORT $LN1@read_confi

; 113  : 	{
; 114  : 		address = header_address (bus, dev, function, reg);

	mov	eax, DWORD PTR bus$[rsp]
	and	eax, 255				; 000000ffH
	shl	eax, 16
	mov	ecx, DWORD PTR dev$[rsp]
	and	ecx, 31
	shl	ecx, 11
	or	eax, ecx
	mov	ecx, DWORD PTR function$[rsp]
	and	ecx, 7
	shl	ecx, 8
	or	eax, ecx
	mov	ecx, DWORD PTR reg$[rsp]
	and	ecx, 63					; 0000003fH
	shl	ecx, 2
	or	eax, ecx
	bts	eax, 31
	mov	DWORD PTR address$[rsp], eax

; 115  : 		x64_outportd (PCI_CONFIG_PORT, address);

	mov	edx, DWORD PTR address$[rsp]
	mov	cx, 3320				; 00000cf8H
	call	x64_outportd

; 116  : 		dev_info->header[reg] = x64_inportd(PCI_DATA_PORT);

	mov	cx, 3324				; 00000cfcH
	call	x64_inportd
	movsxd	rcx, DWORD PTR reg$[rsp]
	mov	rdx, QWORD PTR dev_info$[rsp]
	mov	DWORD PTR [rdx+rcx*4], eax

; 117  : 	}

	jmp	SHORT $LN2@read_confi
$LN1@read_confi:

; 118  : }

	add	rsp, 56					; 00000038H
	ret	0
?read_config_header@@YAXHHHPEATpci_device_info@@@Z ENDP	; read_config_header
_TEXT	ENDS
; Function compile flags: /Odtp
; File e:\xeneva project\xeneva\aurora\aurora\drivers\pci.cpp
_TEXT	SEGMENT
addr$ = 48
offset$ = 56
data$ = 64
?pci_config_write8@@YAXPEBU_pci_address_@@GE@Z PROC	; pci_config_write8

; 101  : void pci_config_write8 (const pci_address *addr, uint16_t offset, uint8_t data) {

$LN3:
	mov	BYTE PTR [rsp+24], r8b
	mov	WORD PTR [rsp+16], dx
	mov	QWORD PTR [rsp+8], rcx
	sub	rsp, 40					; 00000028H

; 102  : 	outportd (PCI_REG_CONFIG_ADDRESS, pci_config_pack_address(addr, offset));

	movzx	edx, WORD PTR offset$[rsp]
	mov	rcx, QWORD PTR addr$[rsp]
	call	?pci_config_pack_address@@YAIPEBU_pci_address_@@G@Z ; pci_config_pack_address
	mov	edx, eax
	mov	cx, 3320				; 00000cf8H
	call	?outportd@@YAXGI@Z			; outportd

; 103  : 	outportb (PCI_REG_CONFIG_DATA, data);

	movzx	edx, BYTE PTR data$[rsp]
	mov	cx, 3324				; 00000cfcH
	call	?outportb@@YAXGE@Z			; outportb

; 104  : }

	add	rsp, 40					; 00000028H
	ret	0
?pci_config_write8@@YAXPEBU_pci_address_@@GE@Z ENDP	; pci_config_write8
_TEXT	ENDS
; Function compile flags: /Odtp
; File e:\xeneva project\xeneva\aurora\aurora\drivers\pci.cpp
_TEXT	SEGMENT
addr$ = 48
offset$ = 56
data$ = 64
?pci_config_write16@@YAXPEBU_pci_address_@@GG@Z PROC	; pci_config_write16

; 96   : void pci_config_write16 (const pci_address *addr, uint16_t offset, uint16_t data) {

$LN3:
	mov	WORD PTR [rsp+24], r8w
	mov	WORD PTR [rsp+16], dx
	mov	QWORD PTR [rsp+8], rcx
	sub	rsp, 40					; 00000028H

; 97   : 	outportd (PCI_REG_CONFIG_ADDRESS, pci_config_pack_address (addr, offset));

	movzx	edx, WORD PTR offset$[rsp]
	mov	rcx, QWORD PTR addr$[rsp]
	call	?pci_config_pack_address@@YAIPEBU_pci_address_@@G@Z ; pci_config_pack_address
	mov	edx, eax
	mov	cx, 3320				; 00000cf8H
	call	?outportd@@YAXGI@Z			; outportd

; 98   : 	outportw (PCI_REG_CONFIG_DATA, data);

	movzx	edx, WORD PTR data$[rsp]
	mov	cx, 3324				; 00000cfcH
	call	?outportw@@YAXGG@Z			; outportw

; 99   : }

	add	rsp, 40					; 00000028H
	ret	0
?pci_config_write16@@YAXPEBU_pci_address_@@GG@Z ENDP	; pci_config_write16
_TEXT	ENDS
; Function compile flags: /Odtp
; File e:\xeneva project\xeneva\aurora\aurora\drivers\pci.cpp
_TEXT	SEGMENT
addr$ = 48
offset$ = 56
data$ = 64
?pci_config_write32@@YAXPEBU_pci_address_@@GI@Z PROC	; pci_config_write32

; 91   : void pci_config_write32 (const pci_address *addr, uint16_t offset, uint32_t data) {

$LN3:
	mov	DWORD PTR [rsp+24], r8d
	mov	WORD PTR [rsp+16], dx
	mov	QWORD PTR [rsp+8], rcx
	sub	rsp, 40					; 00000028H

; 92   : 	outportd (PCI_REG_CONFIG_ADDRESS, pci_config_pack_address (addr, offset));

	movzx	edx, WORD PTR offset$[rsp]
	mov	rcx, QWORD PTR addr$[rsp]
	call	?pci_config_pack_address@@YAIPEBU_pci_address_@@G@Z ; pci_config_pack_address
	mov	edx, eax
	mov	cx, 3320				; 00000cf8H
	call	?outportd@@YAXGI@Z			; outportd

; 93   : 	outportd (PCI_REG_CONFIG_DATA, data);

	mov	edx, DWORD PTR data$[rsp]
	mov	cx, 3324				; 00000cfcH
	call	?outportd@@YAXGI@Z			; outportd

; 94   : }

	add	rsp, 40					; 00000028H
	ret	0
?pci_config_write32@@YAXPEBU_pci_address_@@GI@Z ENDP	; pci_config_write32
_TEXT	ENDS
; Function compile flags: /Odtp
; File e:\xeneva project\xeneva\aurora\aurora\drivers\pci.cpp
_TEXT	SEGMENT
addr$ = 48
offset$ = 56
?pci_config_read8@@YAEPEBU_pci_address_@@G@Z PROC	; pci_config_read8

; 86   : uint8_t pci_config_read8 (const pci_address *addr, uint16_t offset) {

$LN3:
	mov	WORD PTR [rsp+16], dx
	mov	QWORD PTR [rsp+8], rcx
	sub	rsp, 40					; 00000028H

; 87   : 	outportd (PCI_REG_CONFIG_ADDRESS, pci_config_pack_address (addr, offset));

	movzx	edx, WORD PTR offset$[rsp]
	mov	rcx, QWORD PTR addr$[rsp]
	call	?pci_config_pack_address@@YAIPEBU_pci_address_@@G@Z ; pci_config_pack_address
	mov	edx, eax
	mov	cx, 3320				; 00000cf8H
	call	?outportd@@YAXGI@Z			; outportd

; 88   : 	return inportb (PCI_REG_CONFIG_DATA);

	mov	cx, 3324				; 00000cfcH
	call	?inportb@@YAEG@Z			; inportb

; 89   : }

	add	rsp, 40					; 00000028H
	ret	0
?pci_config_read8@@YAEPEBU_pci_address_@@G@Z ENDP	; pci_config_read8
_TEXT	ENDS
; Function compile flags: /Odtp
; File e:\xeneva project\xeneva\aurora\aurora\drivers\pci.cpp
_TEXT	SEGMENT
addr$ = 48
offset$ = 56
?pci_config_read16@@YAGPEBU_pci_address_@@G@Z PROC	; pci_config_read16

; 81   : uint16_t pci_config_read16 (const pci_address *addr, uint16_t offset) {

$LN3:
	mov	WORD PTR [rsp+16], dx
	mov	QWORD PTR [rsp+8], rcx
	sub	rsp, 40					; 00000028H

; 82   : 	outportd (PCI_REG_CONFIG_ADDRESS, pci_config_pack_address (addr, offset));

	movzx	edx, WORD PTR offset$[rsp]
	mov	rcx, QWORD PTR addr$[rsp]
	call	?pci_config_pack_address@@YAIPEBU_pci_address_@@G@Z ; pci_config_pack_address
	mov	edx, eax
	mov	cx, 3320				; 00000cf8H
	call	?outportd@@YAXGI@Z			; outportd

; 83   : 	return inportw (PCI_REG_CONFIG_DATA);

	mov	cx, 3324				; 00000cfcH
	call	?inportw@@YAGG@Z			; inportw

; 84   : }

	add	rsp, 40					; 00000028H
	ret	0
?pci_config_read16@@YAGPEBU_pci_address_@@G@Z ENDP	; pci_config_read16
_TEXT	ENDS
; Function compile flags: /Odtp
; File e:\xeneva project\xeneva\aurora\aurora\drivers\pci.cpp
_TEXT	SEGMENT
addr$ = 48
offset$ = 56
?pci_config_read32@@YAIPEBU_pci_address_@@G@Z PROC	; pci_config_read32

; 36   : uint32_t pci_config_read32 (const pci_address *addr, uint16_t offset) {

$LN3:
	mov	WORD PTR [rsp+16], dx
	mov	QWORD PTR [rsp+8], rcx
	sub	rsp, 40					; 00000028H

; 37   : 	outportd (PCI_REG_CONFIG_ADDRESS, pci_config_pack_address (addr, offset));

	movzx	edx, WORD PTR offset$[rsp]
	mov	rcx, QWORD PTR addr$[rsp]
	call	?pci_config_pack_address@@YAIPEBU_pci_address_@@G@Z ; pci_config_pack_address
	mov	edx, eax
	mov	cx, 3320				; 00000cf8H
	call	?outportd@@YAXGI@Z			; outportd

; 38   : 	return inportd (PCI_REG_CONFIG_DATA);

	mov	cx, 3324				; 00000cfcH
	call	?inportd@@YAIG@Z			; inportd

; 39   : }

	add	rsp, 40					; 00000028H
	ret	0
?pci_config_read32@@YAIPEBU_pci_address_@@G@Z ENDP	; pci_config_read32
_TEXT	ENDS
END
