; Listing generated by Microsoft (R) Optimizing Compiler Version 17.00.50727.1 

include listing.inc

INCLUDELIB LIBCMT
INCLUDELIB OLDNAMES

CONST	SEGMENT
$SG3805	DB	'MSI-X found for this device', 0aH, 00H
	ORG $+3
$SG3833	DB	'PCIE Dev -- VENID -> %x, DEVID -> %x, CC-> %x, SC-> %x ', 0aH
	DB	00H
	ORG $+7
$SG3834	DB	'BUS-> %d, DEV -> %d, func ->%d ', 0aH, 00H
CONST	ENDS
PUBLIC	?pci_express_get_device@@YA_KGHHH@Z		; pci_express_get_device
PUBLIC	pci_express_scan_class
PUBLIC	pci_express_scan_class_if
PUBLIC	pci_express_read
PUBLIC	pci_express_read2
PUBLIC	pci_express_write
PUBLIC	pci_express_write2
PUBLIC	pcie_alloc_msi
PUBLIC	?pcie_scan_all@@YAXXZ				; pcie_scan_all
PUBLIC	??$mem_after@PEAUacpiMcfgAlloc@@UacpiMcfg@@@@YAPEAUacpiMcfgAlloc@@PEAUacpiMcfg@@@Z ; mem_after<acpiMcfgAlloc * __ptr64,acpiMcfg>
PUBLIC	??$raw_offset@PECE_K@@YAPECE_KH@Z		; raw_offset<unsigned char volatile * __ptr64,unsigned __int64>
PUBLIC	??$raw_offset@PECG_K@@YAPECG_KH@Z		; raw_offset<unsigned short volatile * __ptr64,unsigned __int64>
PUBLIC	??$raw_offset@PECI_K@@YAPECI_KH@Z		; raw_offset<unsigned int volatile * __ptr64,unsigned __int64>
EXTRN	?acpi_pcie_supported@@YA_NXZ:PROC		; acpi_pcie_supported
EXTRN	?acpi_get_mcfg@@YAPEAUacpiMcfg@@XZ:PROC		; acpi_get_mcfg
EXTRN	printf:PROC
EXTRN	?cpu_msi_address@@YA_KPEA_K_KIEE@Z:PROC		; cpu_msi_address
EXTRN	__ImageBase:BYTE
pdata	SEGMENT
$pdata$?pci_express_get_device@@YA_KGHHH@Z DD imagerel $LN7
	DD	imagerel $LN7+216
	DD	imagerel $unwind$?pci_express_get_device@@YA_KGHHH@Z
$pdata$pci_express_scan_class DD imagerel $LN19
	DD	imagerel $LN19+461
	DD	imagerel $unwind$pci_express_scan_class
$pdata$pci_express_scan_class_if DD imagerel $LN18
	DD	imagerel $LN18+503
	DD	imagerel $unwind$pci_express_scan_class_if
$pdata$pci_express_read DD imagerel $LN37
	DD	imagerel $LN37+778
	DD	imagerel $unwind$pci_express_read
$pdata$pci_express_read2 DD imagerel $LN11
	DD	imagerel $LN11+327
	DD	imagerel $unwind$pci_express_read2
$pdata$pci_express_write DD imagerel $LN37
	DD	imagerel $LN37+738
	DD	imagerel $unwind$pci_express_write
$pdata$pci_express_write2 DD imagerel $LN10
	DD	imagerel $LN10+274
	DD	imagerel $unwind$pci_express_write2
$pdata$pcie_alloc_msi DD imagerel $LN16
	DD	imagerel $LN16+1069
	DD	imagerel $unwind$pcie_alloc_msi
$pdata$?pcie_scan_all@@YAXXZ DD imagerel $LN16
	DD	imagerel $LN16+489
	DD	imagerel $unwind$?pcie_scan_all@@YAXXZ
pdata	ENDS
xdata	SEGMENT
$unwind$?pci_express_get_device@@YA_KGHHH@Z DD 011701H
	DD	08217H
$unwind$pci_express_scan_class DD 011601H
	DD	0c216H
$unwind$pci_express_scan_class_if DD 011601H
	DD	0c216H
$unwind$pci_express_read DD 011701H
	DD	0a217H
$unwind$pci_express_read2 DD 011701H
	DD	08217H
$unwind$pci_express_write DD 011701H
	DD	08217H
$unwind$pci_express_write2 DD 011701H
	DD	08217H
$unwind$pcie_alloc_msi DD 021b01H
	DD	011011bH
$unwind$?pcie_scan_all@@YAXXZ DD 010401H
	DD	0e204H
xdata	ENDS
; Function compile flags: /Odtpy
; File e:\xeneva project\xeneva\aurora\include\stdint.h
;	COMDAT ??$raw_offset@PECI_K@@YAPECI_KH@Z
_TEXT	SEGMENT
p1$ = 8
offset$ = 16
??$raw_offset@PECI_K@@YAPECI_KH@Z PROC			; raw_offset<unsigned int volatile * __ptr64,unsigned __int64>, COMDAT

; 183  : 	{

	mov	DWORD PTR [rsp+16], edx
	mov	QWORD PTR [rsp+8], rcx

; 184  : 		return (T) ((size_t)p1 + offset);

	movsxd	rax, DWORD PTR offset$[rsp]
	mov	rcx, QWORD PTR p1$[rsp]
	add	rcx, rax
	mov	rax, rcx

; 185  : 	};

	ret	0
??$raw_offset@PECI_K@@YAPECI_KH@Z ENDP			; raw_offset<unsigned int volatile * __ptr64,unsigned __int64>
_TEXT	ENDS
; Function compile flags: /Odtpy
; File e:\xeneva project\xeneva\aurora\include\stdint.h
;	COMDAT ??$raw_offset@PECG_K@@YAPECG_KH@Z
_TEXT	SEGMENT
p1$ = 8
offset$ = 16
??$raw_offset@PECG_K@@YAPECG_KH@Z PROC			; raw_offset<unsigned short volatile * __ptr64,unsigned __int64>, COMDAT

; 183  : 	{

	mov	DWORD PTR [rsp+16], edx
	mov	QWORD PTR [rsp+8], rcx

; 184  : 		return (T) ((size_t)p1 + offset);

	movsxd	rax, DWORD PTR offset$[rsp]
	mov	rcx, QWORD PTR p1$[rsp]
	add	rcx, rax
	mov	rax, rcx

; 185  : 	};

	ret	0
??$raw_offset@PECG_K@@YAPECG_KH@Z ENDP			; raw_offset<unsigned short volatile * __ptr64,unsigned __int64>
_TEXT	ENDS
; Function compile flags: /Odtpy
; File e:\xeneva project\xeneva\aurora\include\stdint.h
;	COMDAT ??$raw_offset@PECE_K@@YAPECE_KH@Z
_TEXT	SEGMENT
p1$ = 8
offset$ = 16
??$raw_offset@PECE_K@@YAPECE_KH@Z PROC			; raw_offset<unsigned char volatile * __ptr64,unsigned __int64>, COMDAT

; 183  : 	{

	mov	DWORD PTR [rsp+16], edx
	mov	QWORD PTR [rsp+8], rcx

; 184  : 		return (T) ((size_t)p1 + offset);

	movsxd	rax, DWORD PTR offset$[rsp]
	mov	rcx, QWORD PTR p1$[rsp]
	add	rcx, rax
	mov	rax, rcx

; 185  : 	};

	ret	0
??$raw_offset@PECE_K@@YAPECE_KH@Z ENDP			; raw_offset<unsigned char volatile * __ptr64,unsigned __int64>
_TEXT	ENDS
; Function compile flags: /Odtpy
; File e:\xeneva project\xeneva\aurora\include\stdint.h
;	COMDAT ??$mem_after@PEAUacpiMcfgAlloc@@UacpiMcfg@@@@YAPEAUacpiMcfgAlloc@@PEAUacpiMcfg@@@Z
_TEXT	SEGMENT
p1$ = 8
??$mem_after@PEAUacpiMcfgAlloc@@UacpiMcfg@@@@YAPEAUacpiMcfgAlloc@@PEAUacpiMcfg@@@Z PROC ; mem_after<acpiMcfgAlloc * __ptr64,acpiMcfg>, COMDAT

; 187  : 	{

	mov	QWORD PTR [rsp+8], rcx

; 188  : 		return (T) (&p1[1]);

	mov	eax, 44					; 0000002cH
	imul	rax, 1
	mov	rcx, QWORD PTR p1$[rsp]
	add	rcx, rax
	mov	rax, rcx

; 189  : 	};

	ret	0
??$mem_after@PEAUacpiMcfgAlloc@@UacpiMcfg@@@@YAPEAUacpiMcfgAlloc@@PEAUacpiMcfg@@@Z ENDP ; mem_after<acpiMcfgAlloc * __ptr64,acpiMcfg>
_TEXT	ENDS
; Function compile flags: /Odtpy
; File e:\xeneva project\xeneva\aurora\aurora\drivers\pcie.cpp
_TEXT	SEGMENT
class_code$1 = 48
func$2 = 52
bus$3 = 56
dev$4 = 60
dev$5 = 64
pciSegment$ = 68
sub_ClassCode$6 = 72
vend$7 = 76
address$8 = 80
tv154 = 88
allocs$ = 96
mcfg$ = 104
?pcie_scan_all@@YAXXZ PROC				; pcie_scan_all

; 480  : void pcie_scan_all() {

$LN16:
	sub	rsp, 120				; 00000078H

; 481  : 	acpiMcfg *mcfg = acpi_get_mcfg();

	call	?acpi_get_mcfg@@YAPEAUacpiMcfg@@XZ	; acpi_get_mcfg
	mov	QWORD PTR mcfg$[rsp], rax

; 482  : 	acpiMcfgAlloc *allocs = mem_after<acpiMcfgAlloc*>(mcfg);

	mov	rcx, QWORD PTR mcfg$[rsp]
	call	??$mem_after@PEAUacpiMcfgAlloc@@UacpiMcfg@@@@YAPEAUacpiMcfgAlloc@@PEAUacpiMcfg@@@Z ; mem_after<acpiMcfgAlloc * __ptr64,acpiMcfg>
	mov	QWORD PTR allocs$[rsp], rax

; 483  : 	uint16_t pciSegment = 0;

	xor	eax, eax
	mov	WORD PTR pciSegment$[rsp], ax

; 484  : 	if (allocs->pciSegment <= 65535)

	mov	rax, QWORD PTR allocs$[rsp]
	movzx	eax, WORD PTR [rax+8]
	cmp	eax, 65535				; 0000ffffH
	jg	SHORT $LN13@pcie_scan_

; 485  : 		pciSegment = allocs->pciSegment;

	mov	rax, QWORD PTR allocs$[rsp]
	movzx	eax, WORD PTR [rax+8]
	mov	WORD PTR pciSegment$[rsp], ax

; 486  : 	else

	jmp	SHORT $LN12@pcie_scan_
$LN13@pcie_scan_:

; 487  : 		pciSegment = 0;

	xor	eax, eax
	mov	WORD PTR pciSegment$[rsp], ax
$LN12@pcie_scan_:

; 488  : 
; 489  : 	for (int bus = 0; bus < allocs->endBusNum; bus++){

	mov	DWORD PTR bus$3[rsp], 0
	jmp	SHORT $LN11@pcie_scan_
$LN10@pcie_scan_:
	mov	eax, DWORD PTR bus$3[rsp]
	inc	eax
	mov	DWORD PTR bus$3[rsp], eax
$LN11@pcie_scan_:
	mov	rax, QWORD PTR allocs$[rsp]
	movzx	eax, BYTE PTR [rax+11]
	cmp	DWORD PTR bus$3[rsp], eax
	jge	$LN9@pcie_scan_

; 490  : 		for (int dev = 0; dev < PCI_DEVICE_PER_BUS; dev++) {

	mov	DWORD PTR dev$4[rsp], 0
	jmp	SHORT $LN8@pcie_scan_
$LN7@pcie_scan_:
	mov	eax, DWORD PTR dev$4[rsp]
	inc	eax
	mov	DWORD PTR dev$4[rsp], eax
$LN8@pcie_scan_:
	cmp	DWORD PTR dev$4[rsp], 32		; 00000020H
	jge	$LN6@pcie_scan_

; 491  : 			for (int func = 0; func < PCI_FUNCTION_PER_DEVICE; func++) {

	mov	DWORD PTR func$2[rsp], 0
	jmp	SHORT $LN5@pcie_scan_
$LN4@pcie_scan_:
	mov	eax, DWORD PTR func$2[rsp]
	inc	eax
	mov	DWORD PTR func$2[rsp], eax
$LN5@pcie_scan_:
	cmp	DWORD PTR func$2[rsp], 8
	jge	$LN3@pcie_scan_

; 492  : 				uint64_t address = pci_express_get_device(pciSegment, bus,dev,func);

	mov	r9d, DWORD PTR func$2[rsp]
	mov	r8d, DWORD PTR dev$4[rsp]
	mov	edx, DWORD PTR bus$3[rsp]
	movzx	ecx, WORD PTR pciSegment$[rsp]
	call	?pci_express_get_device@@YA_KGHHH@Z	; pci_express_get_device
	mov	QWORD PTR address$8[rsp], rax

; 493  : 			
; 494  : 				if (address == 0xFFFFFFFF)

	mov	eax, -1					; ffffffffH
	cmp	QWORD PTR address$8[rsp], rax
	jne	SHORT $LN2@pcie_scan_

; 495  : 					continue;

	jmp	SHORT $LN4@pcie_scan_
$LN2@pcie_scan_:

; 496  : 				uint8_t class_code = pci_express_read(address,PCI_CLASS, bus,dev,func);

	mov	eax, DWORD PTR func$2[rsp]
	mov	DWORD PTR [rsp+32], eax
	mov	r9d, DWORD PTR dev$4[rsp]
	mov	r8d, DWORD PTR bus$3[rsp]
	mov	edx, 11
	mov	rcx, QWORD PTR address$8[rsp]
	call	pci_express_read
	mov	BYTE PTR class_code$1[rsp], al

; 497  : 				uint8_t sub_ClassCode = pci_express_read(address, PCI_SUBCLASS, bus, dev, func);

	mov	eax, DWORD PTR func$2[rsp]
	mov	DWORD PTR [rsp+32], eax
	mov	r9d, DWORD PTR dev$4[rsp]
	mov	r8d, DWORD PTR bus$3[rsp]
	mov	edx, 10
	mov	rcx, QWORD PTR address$8[rsp]
	call	pci_express_read
	mov	BYTE PTR sub_ClassCode$6[rsp], al

; 498  : 				uint16_t vend = pci_express_read(address, PCI_VENDOR_ID, bus, dev, func);

	mov	eax, DWORD PTR func$2[rsp]
	mov	DWORD PTR [rsp+32], eax
	mov	r9d, DWORD PTR dev$4[rsp]
	mov	r8d, DWORD PTR bus$3[rsp]
	xor	edx, edx
	mov	rcx, QWORD PTR address$8[rsp]
	call	pci_express_read
	mov	WORD PTR vend$7[rsp], ax

; 499  : 				uint16_t dev = pci_express_read(address, PCI_DEVICE_ID, bus, dev, func);

	movzx	eax, WORD PTR dev$5[rsp]
	mov	ecx, DWORD PTR func$2[rsp]
	mov	DWORD PTR [rsp+32], ecx
	mov	r9d, eax
	mov	r8d, DWORD PTR bus$3[rsp]
	mov	edx, 2
	mov	rcx, QWORD PTR address$8[rsp]
	call	pci_express_read
	mov	WORD PTR dev$5[rsp], ax

; 500  : 				if (class_code == 0xFF)

	movzx	eax, BYTE PTR class_code$1[rsp]
	cmp	eax, 255				; 000000ffH
	jne	SHORT $LN1@pcie_scan_

; 501  : 					continue;

	jmp	$LN4@pcie_scan_
$LN1@pcie_scan_:

; 502  : 				printf ("PCIE Dev -- VENID -> %x, DEVID -> %x, CC-> %x, SC-> %x \n",vend, dev, class_code, sub_ClassCode);

	movzx	eax, BYTE PTR sub_ClassCode$6[rsp]
	movzx	ecx, BYTE PTR class_code$1[rsp]
	movzx	edx, WORD PTR dev$5[rsp]
	movzx	r8d, WORD PTR vend$7[rsp]
	mov	DWORD PTR tv154[rsp], r8d
	mov	DWORD PTR [rsp+32], eax
	mov	r9d, ecx
	mov	r8d, edx
	mov	eax, DWORD PTR tv154[rsp]
	mov	edx, eax
	lea	rcx, OFFSET FLAT:$SG3833
	call	printf

; 503  : 				printf ("BUS-> %d, DEV -> %d, func ->%d \n", bus, dev, func);

	movzx	eax, WORD PTR dev$5[rsp]
	mov	r9d, DWORD PTR func$2[rsp]
	mov	r8d, eax
	mov	edx, DWORD PTR bus$3[rsp]
	lea	rcx, OFFSET FLAT:$SG3834
	call	printf

; 504  : 			}

	jmp	$LN4@pcie_scan_
$LN3@pcie_scan_:

; 505  : 		}

	jmp	$LN7@pcie_scan_
$LN6@pcie_scan_:

; 506  : 	}

	jmp	$LN10@pcie_scan_
$LN9@pcie_scan_:

; 507  : }

	add	rsp, 120				; 00000078H
	ret	0
?pcie_scan_all@@YAXXZ ENDP				; pcie_scan_all
_TEXT	ENDS
; Function compile flags: /Odtpy
; File e:\xeneva project\xeneva\aurora\aurora\drivers\pcie.cpp
_TEXT	SEGMENT
value$ = 64
capptr$1 = 68
msctl$2 = 72
tv138 = 76
tv134 = 77
cap_reg$3 = 80
maskcap$4 = 84
bit64_cap$5 = 85
msi_reg$6 = 88
status$ = 96
msi_data$7 = 104
msi_addr$8 = 112
cap_reg2$9 = 120
device$ = 144
vector$ = 152
bus$ = 160
dev$ = 168
func$ = 176
pcie_alloc_msi PROC

; 420  : bool pcie_alloc_msi (uint64_t device, size_t vector,  int bus, int dev, int func) {

$LN16:
	mov	DWORD PTR [rsp+32], r9d
	mov	DWORD PTR [rsp+24], r8d
	mov	QWORD PTR [rsp+16], rdx
	mov	QWORD PTR [rsp+8], rcx
	sub	rsp, 136				; 00000088H

; 421  : 	if (acpi_pcie_supported() == false)

	call	?acpi_pcie_supported@@YA_NXZ		; acpi_pcie_supported
	movzx	eax, al
	test	eax, eax
	jne	SHORT $LN9@pcie_alloc

; 422  : 		return false;

	xor	al, al
	jmp	$LN10@pcie_alloc
$LN9@pcie_alloc:

; 423  : 
; 424  : 	bool value = false;

	mov	BYTE PTR value$[rsp], 0

; 425  : 	uint64_t status = pci_express_read2 (device,PCI_COMMAND, 4, bus, dev, func);

	mov	eax, DWORD PTR func$[rsp]
	mov	DWORD PTR [rsp+40], eax
	mov	eax, DWORD PTR dev$[rsp]
	mov	DWORD PTR [rsp+32], eax
	mov	r9d, DWORD PTR bus$[rsp]
	mov	r8d, 4
	mov	edx, 4
	mov	rcx, QWORD PTR device$[rsp]
	call	pci_express_read2
	mov	QWORD PTR status$[rsp], rax

; 426  : 	status >>= 16;

	mov	rax, QWORD PTR status$[rsp]
	shr	rax, 16
	mov	QWORD PTR status$[rsp], rax

; 427  : 	if ((status & (1<<4)) != 0) {

	mov	rax, QWORD PTR status$[rsp]
	and	rax, 16
	test	rax, rax
	je	$LN8@pcie_alloc

; 428  : 		uint32_t capptr = pci_express_read2(device,PCI_CAPABILITIES_PTR, 4, bus, dev, func);

	mov	eax, DWORD PTR func$[rsp]
	mov	DWORD PTR [rsp+40], eax
	mov	eax, DWORD PTR dev$[rsp]
	mov	DWORD PTR [rsp+32], eax
	mov	r9d, DWORD PTR bus$[rsp]
	mov	r8d, 4
	mov	edx, 52					; 00000034H
	mov	rcx, QWORD PTR device$[rsp]
	call	pci_express_read2
	mov	DWORD PTR capptr$1[rsp], eax

; 429  : 		capptr &= 0xFF; 

	mov	eax, DWORD PTR capptr$1[rsp]
	and	eax, 255				; 000000ffH
	mov	DWORD PTR capptr$1[rsp], eax

; 430  : 		uint32_t cap_reg = 0;

	mov	DWORD PTR cap_reg$3[rsp], 0

; 431  : 		uint32_t msi_reg = 0;

	mov	DWORD PTR msi_reg$6[rsp], 0
$LN7@pcie_alloc:

; 432  : 		while (capptr != 0) {

	cmp	DWORD PTR capptr$1[rsp], 0
	je	$LN6@pcie_alloc

; 433  : 			cap_reg = pci_express_read2(device,capptr, 4, bus, dev, func);

	mov	eax, DWORD PTR func$[rsp]
	mov	DWORD PTR [rsp+40], eax
	mov	eax, DWORD PTR dev$[rsp]
	mov	DWORD PTR [rsp+32], eax
	mov	r9d, DWORD PTR bus$[rsp]
	mov	r8d, 4
	mov	edx, DWORD PTR capptr$1[rsp]
	mov	rcx, QWORD PTR device$[rsp]
	call	pci_express_read2
	mov	DWORD PTR cap_reg$3[rsp], eax

; 434  : 			if ((cap_reg & 0xff) == 0x5) {

	mov	eax, DWORD PTR cap_reg$3[rsp]
	and	eax, 255				; 000000ffH
	cmp	eax, 5
	jne	$LN5@pcie_alloc

; 435  : 				msi_reg = cap_reg;

	mov	eax, DWORD PTR cap_reg$3[rsp]
	mov	DWORD PTR msi_reg$6[rsp], eax

; 436  : 				uint16_t msctl = msi_reg >> 16;

	mov	eax, DWORD PTR msi_reg$6[rsp]
	shr	eax, 16
	mov	WORD PTR msctl$2[rsp], ax

; 437  : 				bool bit64_cap = (msctl & (1<<7));

	movzx	eax, WORD PTR msctl$2[rsp]
	and	eax, 128				; 00000080H
	test	eax, eax
	je	SHORT $LN12@pcie_alloc
	mov	BYTE PTR tv134[rsp], 1
	jmp	SHORT $LN13@pcie_alloc
$LN12@pcie_alloc:
	mov	BYTE PTR tv134[rsp], 0
$LN13@pcie_alloc:
	movzx	eax, BYTE PTR tv134[rsp]
	mov	BYTE PTR bit64_cap$5[rsp], al

; 438  : 				bool maskcap = (msctl & (1<<8));

	movzx	eax, WORD PTR msctl$2[rsp]
	and	eax, 256				; 00000100H
	test	eax, eax
	je	SHORT $LN14@pcie_alloc
	mov	BYTE PTR tv138[rsp], 1
	jmp	SHORT $LN15@pcie_alloc
$LN14@pcie_alloc:
	mov	BYTE PTR tv138[rsp], 0
$LN15@pcie_alloc:
	movzx	eax, BYTE PTR tv138[rsp]
	mov	BYTE PTR maskcap$4[rsp], al

; 439  : 
; 440  : 				uint64_t msi_data = 0;

	mov	QWORD PTR msi_data$7[rsp], 0

; 441  : 	
; 442  : 				uint64_t msi_addr = cpu_msi_address(&msi_data,vector,0,1,0);

	mov	BYTE PTR [rsp+32], 0
	mov	r9b, 1
	xor	r8d, r8d
	mov	rdx, QWORD PTR vector$[rsp]
	lea	rcx, QWORD PTR msi_data$7[rsp]
	call	?cpu_msi_address@@YA_KPEA_K_KIEE@Z	; cpu_msi_address
	mov	QWORD PTR msi_addr$8[rsp], rax

; 443  : 
; 444  : 
; 445  : 				pci_express_write2(device, capptr + 0x4, 4, msi_addr & UINT32_MAX, bus, dev, func);

	mov	eax, -1					; ffffffffH
	mov	rcx, QWORD PTR msi_addr$8[rsp]
	and	rcx, rax
	mov	rax, rcx
	mov	ecx, DWORD PTR capptr$1[rsp]
	add	ecx, 4
	mov	edx, DWORD PTR func$[rsp]
	mov	DWORD PTR [rsp+48], edx
	mov	edx, DWORD PTR dev$[rsp]
	mov	DWORD PTR [rsp+40], edx
	mov	edx, DWORD PTR bus$[rsp]
	mov	DWORD PTR [rsp+32], edx
	mov	r9, rax
	mov	r8d, 4
	mov	edx, ecx
	mov	rcx, QWORD PTR device$[rsp]
	call	pci_express_write2

; 446  : 
; 447  : 				if (bit64_cap) {

	movzx	eax, BYTE PTR bit64_cap$5[rsp]
	test	eax, eax
	je	$LN4@pcie_alloc

; 448  : 					pci_express_write2(device, capptr + 0x8, 4, msi_addr >> 32, bus, dev ,func);

	mov	rax, QWORD PTR msi_addr$8[rsp]
	shr	rax, 32					; 00000020H
	mov	ecx, DWORD PTR capptr$1[rsp]
	add	ecx, 8
	mov	edx, DWORD PTR func$[rsp]
	mov	DWORD PTR [rsp+48], edx
	mov	edx, DWORD PTR dev$[rsp]
	mov	DWORD PTR [rsp+40], edx
	mov	edx, DWORD PTR bus$[rsp]
	mov	DWORD PTR [rsp+32], edx
	mov	r9, rax
	mov	r8d, 4
	mov	edx, ecx
	mov	rcx, QWORD PTR device$[rsp]
	call	pci_express_write2

; 449  : 					pci_express_write2(device, capptr + 0xC, 2, msi_data & UINT16_MAX, bus, dev, func);

	mov	rax, QWORD PTR msi_data$7[rsp]
	and	rax, 65535				; 0000ffffH
	mov	ecx, DWORD PTR capptr$1[rsp]
	add	ecx, 12
	mov	edx, DWORD PTR func$[rsp]
	mov	DWORD PTR [rsp+48], edx
	mov	edx, DWORD PTR dev$[rsp]
	mov	DWORD PTR [rsp+40], edx
	mov	edx, DWORD PTR bus$[rsp]
	mov	DWORD PTR [rsp+32], edx
	mov	r9, rax
	mov	r8d, 2
	mov	edx, ecx
	mov	rcx, QWORD PTR device$[rsp]
	call	pci_express_write2

; 450  : 				}else 

	jmp	SHORT $LN3@pcie_alloc
$LN4@pcie_alloc:

; 451  : 					pci_express_write2(device, capptr + 0x8, 2, msi_data & UINT16_MAX, bus, dev, func);

	mov	rax, QWORD PTR msi_data$7[rsp]
	and	rax, 65535				; 0000ffffH
	mov	ecx, DWORD PTR capptr$1[rsp]
	add	ecx, 8
	mov	edx, DWORD PTR func$[rsp]
	mov	DWORD PTR [rsp+48], edx
	mov	edx, DWORD PTR dev$[rsp]
	mov	DWORD PTR [rsp+40], edx
	mov	edx, DWORD PTR bus$[rsp]
	mov	DWORD PTR [rsp+32], edx
	mov	r9, rax
	mov	r8d, 2
	mov	edx, ecx
	mov	rcx, QWORD PTR device$[rsp]
	call	pci_express_write2
$LN3@pcie_alloc:

; 452  : 				
; 453  : 				
; 454  : 				if (maskcap) 

	movzx	eax, BYTE PTR maskcap$4[rsp]
	test	eax, eax
	je	SHORT $LN2@pcie_alloc

; 455  : 					pci_express_write2(device, capptr + 0x10, 4, 0, bus, dev, func);

	mov	eax, DWORD PTR capptr$1[rsp]
	add	eax, 16
	mov	ecx, DWORD PTR func$[rsp]
	mov	DWORD PTR [rsp+48], ecx
	mov	ecx, DWORD PTR dev$[rsp]
	mov	DWORD PTR [rsp+40], ecx
	mov	ecx, DWORD PTR bus$[rsp]
	mov	DWORD PTR [rsp+32], ecx
	xor	r9d, r9d
	mov	r8d, 4
	mov	edx, eax
	mov	rcx, QWORD PTR device$[rsp]
	call	pci_express_write2
$LN2@pcie_alloc:

; 456  : 				
; 457  : 
; 458  : 
; 459  : 				msctl |= 1;

	movzx	eax, WORD PTR msctl$2[rsp]
	or	eax, 1
	mov	WORD PTR msctl$2[rsp], ax

; 460  : 
; 461  : 				cap_reg = msi_reg & UINT16_MAX | msctl << 16;

	mov	eax, DWORD PTR msi_reg$6[rsp]
	and	eax, 65535				; 0000ffffH
	movzx	ecx, WORD PTR msctl$2[rsp]
	shl	ecx, 16
	or	eax, ecx
	mov	DWORD PTR cap_reg$3[rsp], eax

; 462  : 				pci_express_write2(device, capptr, 4,  cap_reg & UINT32_MAX, bus, dev, func);

	mov	eax, DWORD PTR cap_reg$3[rsp]
	mov	ecx, DWORD PTR func$[rsp]
	mov	DWORD PTR [rsp+48], ecx
	mov	ecx, DWORD PTR dev$[rsp]
	mov	DWORD PTR [rsp+40], ecx
	mov	ecx, DWORD PTR bus$[rsp]
	mov	DWORD PTR [rsp+32], ecx
	mov	r9d, eax
	mov	r8d, 4
	mov	edx, DWORD PTR capptr$1[rsp]
	mov	rcx, QWORD PTR device$[rsp]
	call	pci_express_write2

; 463  : 				uint32_t cap_reg2 = pci_express_read2(device, capptr, 4, bus, dev, func);

	mov	eax, DWORD PTR func$[rsp]
	mov	DWORD PTR [rsp+40], eax
	mov	eax, DWORD PTR dev$[rsp]
	mov	DWORD PTR [rsp+32], eax
	mov	r9d, DWORD PTR bus$[rsp]
	mov	r8d, 4
	mov	edx, DWORD PTR capptr$1[rsp]
	mov	rcx, QWORD PTR device$[rsp]
	call	pci_express_read2
	mov	DWORD PTR cap_reg2$9[rsp], eax

; 464  : 				value = true; //MSI Allocated

	mov	BYTE PTR value$[rsp], 1

; 465  : 				break;

	jmp	SHORT $LN6@pcie_alloc
$LN5@pcie_alloc:

; 466  : 			}
; 467  : 
; 468  : 			if ((cap_reg & 0xff)  == 0x11) {

	mov	eax, DWORD PTR cap_reg$3[rsp]
	and	eax, 255				; 000000ffH
	cmp	eax, 17
	jne	SHORT $LN1@pcie_alloc

; 469  : 				printf ("MSI-X found for this device\n");

	lea	rcx, OFFSET FLAT:$SG3805
	call	printf

; 470  : 				value = true; //MSI-X Allocated: not implemented

	mov	BYTE PTR value$[rsp], 1

; 471  : 				break;

	jmp	SHORT $LN6@pcie_alloc
$LN1@pcie_alloc:

; 472  : 			}
; 473  : 			capptr = ((cap_reg >> 8) & 0xff);   //((cap_reg >> 8) & 0xFF) / 4;

	mov	eax, DWORD PTR cap_reg$3[rsp]
	shr	eax, 8
	and	eax, 255				; 000000ffH
	mov	DWORD PTR capptr$1[rsp], eax

; 474  : 		}

	jmp	$LN7@pcie_alloc
$LN6@pcie_alloc:
$LN8@pcie_alloc:

; 475  : 	}
; 476  : 
; 477  : 	return value;

	movzx	eax, BYTE PTR value$[rsp]
$LN10@pcie_alloc:

; 478  : }

	add	rsp, 136				; 00000088H
	ret	0
pcie_alloc_msi ENDP
_TEXT	ENDS
; Function compile flags: /Odtpy
; File e:\xeneva project\xeneva\aurora\aurora\drivers\pcie.cpp
_TEXT	SEGMENT
allocs$ = 32
mcfg$ = 40
address$ = 48
device$ = 80
reg$ = 88
size$ = 96
val$ = 104
bus$ = 112
dev$ = 120
func$ = 128
pci_express_write2 PROC

; 296  : void pci_express_write2 (uint64_t device, int reg, int size,uint64_t val, int bus, int dev, int func) {

$LN10:
	mov	QWORD PTR [rsp+32], r9
	mov	DWORD PTR [rsp+24], r8d
	mov	DWORD PTR [rsp+16], edx
	mov	QWORD PTR [rsp+8], rcx
	sub	rsp, 72					; 00000048H

; 297  : 	if(acpi_pcie_supported() == false) {

	call	?acpi_pcie_supported@@YA_NXZ		; acpi_pcie_supported
	movzx	eax, al
	test	eax, eax
	jne	SHORT $LN7@pci_expres

; 298  : 		return; //pci_write(device,reg, val);

	jmp	$LN8@pci_expres
$LN7@pci_expres:

; 299  : 	}
; 300  : 
; 301  : 	size_t address = 0;

	mov	QWORD PTR address$[rsp], 0

; 302  : 	acpiMcfg *mcfg = acpi_get_mcfg();

	call	?acpi_get_mcfg@@YAPEAUacpiMcfg@@XZ	; acpi_get_mcfg
	mov	QWORD PTR mcfg$[rsp], rax

; 303  : 	acpiMcfgAlloc *allocs = mem_after<acpiMcfgAlloc*>(mcfg);

	mov	rcx, QWORD PTR mcfg$[rsp]
	call	??$mem_after@PEAUacpiMcfgAlloc@@UacpiMcfg@@@@YAPEAUacpiMcfgAlloc@@PEAUacpiMcfg@@@Z ; mem_after<acpiMcfgAlloc * __ptr64,acpiMcfg>
	mov	QWORD PTR allocs$[rsp], rax

; 304  : 	if (allocs->startBusNum <= bus && bus <= allocs->endBusNum) 

	mov	rax, QWORD PTR allocs$[rsp]
	movzx	eax, BYTE PTR [rax+10]
	cmp	eax, DWORD PTR bus$[rsp]
	jg	SHORT $LN6@pci_expres
	mov	rax, QWORD PTR allocs$[rsp]
	movzx	eax, BYTE PTR [rax+11]
	cmp	DWORD PTR bus$[rsp], eax
	jg	SHORT $LN6@pci_expres

; 305  : 		address = allocs->baseAddress + ((bus - allocs->startBusNum) << 20) | (device << 15) | (func << 12) | (reg);

	mov	rax, QWORD PTR allocs$[rsp]
	movzx	eax, BYTE PTR [rax+10]
	mov	ecx, DWORD PTR bus$[rsp]
	sub	ecx, eax
	mov	eax, ecx
	shl	eax, 20
	cdqe
	mov	rcx, QWORD PTR allocs$[rsp]
	mov	rcx, QWORD PTR [rcx]
	add	rcx, rax
	mov	rax, rcx
	mov	rcx, QWORD PTR device$[rsp]
	shl	rcx, 15
	or	rax, rcx
	mov	ecx, DWORD PTR func$[rsp]
	shl	ecx, 12
	movsxd	rcx, ecx
	or	rax, rcx
	movsxd	rcx, DWORD PTR reg$[rsp]
	or	rax, rcx
	mov	QWORD PTR address$[rsp], rax
$LN6@pci_expres:

; 306  : 
; 307  : 
; 308  : 	if (size == 1){

	cmp	DWORD PTR size$[rsp], 1
	jne	SHORT $LN5@pci_expres

; 309  : 		*raw_offset<volatile uint8_t*>(device, reg) = (uint8_t)val;

	mov	edx, DWORD PTR reg$[rsp]
	mov	rcx, QWORD PTR device$[rsp]
	call	??$raw_offset@PECE_K@@YAPECE_KH@Z	; raw_offset<unsigned char volatile * __ptr64,unsigned __int64>
	movzx	ecx, BYTE PTR val$[rsp]
	mov	BYTE PTR [rax], cl
	jmp	SHORT $LN4@pci_expres
$LN5@pci_expres:

; 310  : 	}else if (size == 2) {

	cmp	DWORD PTR size$[rsp], 2
	jne	SHORT $LN3@pci_expres

; 311  : 		*raw_offset<volatile uint16_t*>(device, reg) = (uint16_t)val;

	mov	edx, DWORD PTR reg$[rsp]
	mov	rcx, QWORD PTR device$[rsp]
	call	??$raw_offset@PECG_K@@YAPECG_KH@Z	; raw_offset<unsigned short volatile * __ptr64,unsigned __int64>
	movzx	ecx, WORD PTR val$[rsp]
	mov	WORD PTR [rax], cx
	jmp	SHORT $LN2@pci_expres
$LN3@pci_expres:

; 312  : 	}else if (size == 4) {

	cmp	DWORD PTR size$[rsp], 4
	jne	SHORT $LN1@pci_expres

; 313  : 		*raw_offset<volatile uint32_t*>(device, reg) = val;

	mov	edx, DWORD PTR reg$[rsp]
	mov	rcx, QWORD PTR device$[rsp]
	call	??$raw_offset@PECI_K@@YAPECI_KH@Z	; raw_offset<unsigned int volatile * __ptr64,unsigned __int64>
	mov	ecx, DWORD PTR val$[rsp]
	mov	DWORD PTR [rax], ecx
$LN1@pci_expres:
$LN2@pci_expres:
$LN4@pci_expres:
$LN8@pci_expres:

; 314  : 	}
; 315  : }

	add	rsp, 72					; 00000048H
	ret	0
pci_express_write2 ENDP
_TEXT	ENDS
; Function compile flags: /Odtpy
; File e:\xeneva project\xeneva\aurora\aurora\drivers\pcie.cpp
_TEXT	SEGMENT
size$ = 32
tv89 = 36
allocs$ = 40
address$ = 48
mcfg$ = 56
device$ = 80
reg$ = 88
val$ = 96
bus$ = 104
dev$ = 112
func$ = 120
pci_express_write PROC

; 200  : void pci_express_write (uint64_t device, int reg, uint32_t val, int bus,int dev, int func) {

$LN37:
	mov	DWORD PTR [rsp+32], r9d
	mov	DWORD PTR [rsp+24], r8d
	mov	DWORD PTR [rsp+16], edx
	mov	QWORD PTR [rsp+8], rcx
	sub	rsp, 72					; 00000048H

; 201  : 	if(acpi_pcie_supported() == false) {

	call	?acpi_pcie_supported@@YA_NXZ		; acpi_pcie_supported
	movzx	eax, al
	test	eax, eax
	jne	SHORT $LN32@pci_expres

; 202  : 		return; //pci_write(device,reg, val);

	jmp	$LN33@pci_expres
$LN32@pci_expres:

; 203  : 	}
; 204  : 	
; 205  : 	size_t address = 0;

	mov	QWORD PTR address$[rsp], 0

; 206  : 
; 207  : 	acpiMcfg *mcfg = acpi_get_mcfg();

	call	?acpi_get_mcfg@@YAPEAUacpiMcfg@@XZ	; acpi_get_mcfg
	mov	QWORD PTR mcfg$[rsp], rax

; 208  : 	acpiMcfgAlloc *allocs = mem_after<acpiMcfgAlloc*>(mcfg);

	mov	rcx, QWORD PTR mcfg$[rsp]
	call	??$mem_after@PEAUacpiMcfgAlloc@@UacpiMcfg@@@@YAPEAUacpiMcfgAlloc@@PEAUacpiMcfg@@@Z ; mem_after<acpiMcfgAlloc * __ptr64,acpiMcfg>
	mov	QWORD PTR allocs$[rsp], rax

; 209  : 	if (allocs->startBusNum <= bus && bus <= allocs->endBusNum) 

	mov	rax, QWORD PTR allocs$[rsp]
	movzx	eax, BYTE PTR [rax+10]
	cmp	eax, DWORD PTR bus$[rsp]
	jg	SHORT $LN31@pci_expres
	mov	rax, QWORD PTR allocs$[rsp]
	movzx	eax, BYTE PTR [rax+11]
	cmp	DWORD PTR bus$[rsp], eax
	jg	SHORT $LN31@pci_expres

; 210  : 		address = allocs->baseAddress + ((bus - allocs->startBusNum) << 20) | (device << 15) | (func << 12);

	mov	rax, QWORD PTR allocs$[rsp]
	movzx	eax, BYTE PTR [rax+10]
	mov	ecx, DWORD PTR bus$[rsp]
	sub	ecx, eax
	mov	eax, ecx
	shl	eax, 20
	cdqe
	mov	rcx, QWORD PTR allocs$[rsp]
	mov	rcx, QWORD PTR [rcx]
	add	rcx, rax
	mov	rax, rcx
	mov	rcx, QWORD PTR device$[rsp]
	shl	rcx, 15
	or	rax, rcx
	mov	ecx, DWORD PTR func$[rsp]
	shl	ecx, 12
	movsxd	rcx, ecx
	or	rax, rcx
	mov	QWORD PTR address$[rsp], rax
$LN31@pci_expres:

; 211  : 	
; 212  : 
; 213  : 	if (address == 0)

	cmp	QWORD PTR address$[rsp], 0
	jne	SHORT $LN30@pci_expres

; 214  : 		return;

	jmp	$LN33@pci_expres
$LN30@pci_expres:

; 215  : 	
; 216  : 	reg = reg;

	mov	eax, DWORD PTR reg$[rsp]
	mov	DWORD PTR reg$[rsp], eax

; 217  : 	int size = 0;

	mov	DWORD PTR size$[rsp], 0

; 218  : 	switch(reg) {

	mov	eax, DWORD PTR reg$[rsp]
	mov	DWORD PTR tv89[rsp], eax
	cmp	DWORD PTR tv89[rsp], 61			; 0000003dH
	ja	$LN6@pci_expres
	movsxd	rax, DWORD PTR tv89[rsp]
	lea	rcx, OFFSET FLAT:__ImageBase
	movzx	eax, BYTE PTR $LN35@pci_expres[rcx+rax]
	mov	eax, DWORD PTR $LN36@pci_expres[rcx+rax*4]
	add	rax, rcx
	jmp	rax
$LN27@pci_expres:

; 219  : 	case PCI_VENDOR_ID:
; 220  : 		size = 2;

	mov	DWORD PTR size$[rsp], 2

; 221  : 		break;

	jmp	$LN28@pci_expres
$LN26@pci_expres:

; 222  : 	case PCI_DEVICE_ID:
; 223  : 		size = 2;

	mov	DWORD PTR size$[rsp], 2

; 224  : 		break;

	jmp	$LN28@pci_expres
$LN25@pci_expres:

; 225  : 	case PCI_COMMAND:
; 226  : 		size = 2;

	mov	DWORD PTR size$[rsp], 2

; 227  : 		break;

	jmp	$LN28@pci_expres
$LN24@pci_expres:

; 228  : 	case PCI_STATUS:
; 229  : 		size = 2;

	mov	DWORD PTR size$[rsp], 2

; 230  : 		break;

	jmp	$LN28@pci_expres
$LN23@pci_expres:

; 231  : 	case PCI_REVISION_ID:
; 232  : 		size = 1;

	mov	DWORD PTR size$[rsp], 1

; 233  : 		break;

	jmp	$LN28@pci_expres
$LN22@pci_expres:

; 234  : 	case PCI_PROG_IF:
; 235  : 		size = 1;

	mov	DWORD PTR size$[rsp], 1

; 236  : 		break;

	jmp	$LN28@pci_expres
$LN21@pci_expres:

; 237  : 	case PCI_SUBCLASS:
; 238  : 		size = 1;

	mov	DWORD PTR size$[rsp], 1

; 239  : 		break;

	jmp	$LN28@pci_expres
$LN20@pci_expres:

; 240  : 	case PCI_CLASS:
; 241  : 		size = 1;

	mov	DWORD PTR size$[rsp], 1

; 242  : 		break;

	jmp	$LN28@pci_expres
$LN19@pci_expres:

; 243  : 	case PCI_CACHE_LINE_SIZE:
; 244  : 		size = 1;

	mov	DWORD PTR size$[rsp], 1

; 245  : 		break;

	jmp	$LN28@pci_expres
$LN18@pci_expres:

; 246  : 	case PCI_LATENCY_TIMER:
; 247  : 		size = 1;

	mov	DWORD PTR size$[rsp], 1

; 248  : 		break;

	jmp	SHORT $LN28@pci_expres
$LN17@pci_expres:

; 249  : 	case PCI_HEADER_TYPE:
; 250  : 		size = 1;

	mov	DWORD PTR size$[rsp], 1

; 251  : 		break;

	jmp	SHORT $LN28@pci_expres
$LN16@pci_expres:

; 252  : 	case PCI_BIST:
; 253  : 		size = 1;

	mov	DWORD PTR size$[rsp], 1

; 254  : 		break;

	jmp	SHORT $LN28@pci_expres
$LN15@pci_expres:

; 255  : 	case PCI_BAR0:
; 256  : 		size = 4;

	mov	DWORD PTR size$[rsp], 4

; 257  : 		break;

	jmp	SHORT $LN28@pci_expres
$LN14@pci_expres:

; 258  : 	case PCI_BAR1:
; 259  : 		size = 4;

	mov	DWORD PTR size$[rsp], 4

; 260  : 		break;

	jmp	SHORT $LN28@pci_expres
$LN13@pci_expres:

; 261  : 	case PCI_BAR2:
; 262  : 		size = 4;

	mov	DWORD PTR size$[rsp], 4

; 263  : 		break;

	jmp	SHORT $LN28@pci_expres
$LN12@pci_expres:

; 264  : 	case PCI_BAR3:
; 265  : 		size = 4;

	mov	DWORD PTR size$[rsp], 4

; 266  : 		break;

	jmp	SHORT $LN28@pci_expres
$LN11@pci_expres:

; 267  : 	case PCI_BAR4:
; 268  : 		size = 4;

	mov	DWORD PTR size$[rsp], 4

; 269  : 		break;

	jmp	SHORT $LN28@pci_expres
$LN10@pci_expres:

; 270  : 	case PCI_BAR5:
; 271  : 		size = 4;

	mov	DWORD PTR size$[rsp], 4

; 272  : 		break;

	jmp	SHORT $LN28@pci_expres
$LN9@pci_expres:

; 273  : 	case PCI_CAPABILITIES_PTR:
; 274  : 		size = 1;

	mov	DWORD PTR size$[rsp], 1

; 275  : 		break;

	jmp	SHORT $LN28@pci_expres
$LN8@pci_expres:

; 276  : 	case PCI_INTERRUPT_LINE:
; 277  : 		size = 1;

	mov	DWORD PTR size$[rsp], 1

; 278  : 		break;

	jmp	SHORT $LN28@pci_expres
$LN7@pci_expres:

; 279  : 	case PCI_INTERRUPT_PIN:
; 280  : 		size = 1;

	mov	DWORD PTR size$[rsp], 1

; 281  : 		break;

	jmp	SHORT $LN28@pci_expres
$LN6@pci_expres:

; 282  : 	default:
; 283  : 		size = 4;

	mov	DWORD PTR size$[rsp], 4
$LN28@pci_expres:

; 284  : 		break;
; 285  : 	}
; 286  : 
; 287  : 	if (size == 1){

	cmp	DWORD PTR size$[rsp], 1
	jne	SHORT $LN5@pci_expres

; 288  : 		*raw_offset<volatile uint8_t*>(device, reg) = (uint8_t)val;

	mov	edx, DWORD PTR reg$[rsp]
	mov	rcx, QWORD PTR device$[rsp]
	call	??$raw_offset@PECE_K@@YAPECE_KH@Z	; raw_offset<unsigned char volatile * __ptr64,unsigned __int64>
	movzx	ecx, BYTE PTR val$[rsp]
	mov	BYTE PTR [rax], cl
	jmp	SHORT $LN4@pci_expres
$LN5@pci_expres:

; 289  : 	}else if (size == 2) {

	cmp	DWORD PTR size$[rsp], 2
	jne	SHORT $LN3@pci_expres

; 290  : 		*raw_offset<volatile uint16_t*>(device, reg) = (uint16_t)val;

	mov	edx, DWORD PTR reg$[rsp]
	mov	rcx, QWORD PTR device$[rsp]
	call	??$raw_offset@PECG_K@@YAPECG_KH@Z	; raw_offset<unsigned short volatile * __ptr64,unsigned __int64>
	movzx	ecx, WORD PTR val$[rsp]
	mov	WORD PTR [rax], cx
	jmp	SHORT $LN2@pci_expres
$LN3@pci_expres:

; 291  : 	}else if (size == 4) {

	cmp	DWORD PTR size$[rsp], 4
	jne	SHORT $LN1@pci_expres

; 292  : 		*raw_offset<volatile uint32_t*>(device, reg) = (uint32_t)val;

	mov	edx, DWORD PTR reg$[rsp]
	mov	rcx, QWORD PTR device$[rsp]
	call	??$raw_offset@PECI_K@@YAPECI_KH@Z	; raw_offset<unsigned int volatile * __ptr64,unsigned __int64>
	mov	ecx, DWORD PTR val$[rsp]
	mov	DWORD PTR [rax], ecx
$LN1@pci_expres:
$LN2@pci_expres:
$LN4@pci_expres:
$LN33@pci_expres:

; 293  : 	}
; 294  : }

	add	rsp, 72					; 00000048H
	ret	0
$LN36@pci_expres:
	DD	$LN27@pci_expres
	DD	$LN26@pci_expres
	DD	$LN25@pci_expres
	DD	$LN24@pci_expres
	DD	$LN23@pci_expres
	DD	$LN22@pci_expres
	DD	$LN21@pci_expres
	DD	$LN20@pci_expres
	DD	$LN19@pci_expres
	DD	$LN18@pci_expres
	DD	$LN17@pci_expres
	DD	$LN16@pci_expres
	DD	$LN15@pci_expres
	DD	$LN14@pci_expres
	DD	$LN13@pci_expres
	DD	$LN12@pci_expres
	DD	$LN11@pci_expres
	DD	$LN10@pci_expres
	DD	$LN9@pci_expres
	DD	$LN8@pci_expres
	DD	$LN7@pci_expres
	DD	$LN6@pci_expres
$LN35@pci_expres:
	DB	0
	DB	21
	DB	1
	DB	21
	DB	2
	DB	21
	DB	3
	DB	21
	DB	4
	DB	5
	DB	6
	DB	7
	DB	8
	DB	9
	DB	10
	DB	11
	DB	12
	DB	21
	DB	21
	DB	21
	DB	13
	DB	21
	DB	21
	DB	21
	DB	14
	DB	21
	DB	21
	DB	21
	DB	15
	DB	21
	DB	21
	DB	21
	DB	16
	DB	21
	DB	21
	DB	21
	DB	17
	DB	21
	DB	21
	DB	21
	DB	21
	DB	21
	DB	21
	DB	21
	DB	21
	DB	21
	DB	21
	DB	21
	DB	21
	DB	21
	DB	21
	DB	21
	DB	18
	DB	21
	DB	21
	DB	21
	DB	21
	DB	21
	DB	21
	DB	21
	DB	19
	DB	20
pci_express_write ENDP
_TEXT	ENDS
; Function compile flags: /Odtpy
; File e:\xeneva project\xeneva\aurora\aurora\drivers\pcie.cpp
_TEXT	SEGMENT
result$ = 32
allocs$ = 40
address$ = 48
mcfg$ = 56
device$ = 80
reg$ = 88
size$ = 96
bus$ = 104
dev$ = 112
func$ = 120
pci_express_read2 PROC

; 168  : uint64_t pci_express_read2 (uint64_t device, int reg, int size, int bus, int dev, int func) {

$LN11:
	mov	DWORD PTR [rsp+32], r9d
	mov	DWORD PTR [rsp+24], r8d
	mov	DWORD PTR [rsp+16], edx
	mov	QWORD PTR [rsp+8], rcx
	sub	rsp, 72					; 00000048H

; 169  : 	if(acpi_pcie_supported() == false) {

	call	?acpi_pcie_supported@@YA_NXZ		; acpi_pcie_supported
	movzx	eax, al
	test	eax, eax
	jne	SHORT $LN8@pci_expres

; 170  : 		return 0;

	xor	eax, eax
	jmp	$LN9@pci_expres
$LN8@pci_expres:

; 171  : 	}
; 172  : 
; 173  : 	size_t address = 0;

	mov	QWORD PTR address$[rsp], 0

; 174  : 	acpiMcfg *mcfg = acpi_get_mcfg();

	call	?acpi_get_mcfg@@YAPEAUacpiMcfg@@XZ	; acpi_get_mcfg
	mov	QWORD PTR mcfg$[rsp], rax

; 175  : 	acpiMcfgAlloc *allocs = mem_after<acpiMcfgAlloc*>(mcfg);

	mov	rcx, QWORD PTR mcfg$[rsp]
	call	??$mem_after@PEAUacpiMcfgAlloc@@UacpiMcfg@@@@YAPEAUacpiMcfgAlloc@@PEAUacpiMcfg@@@Z ; mem_after<acpiMcfgAlloc * __ptr64,acpiMcfg>
	mov	QWORD PTR allocs$[rsp], rax

; 176  : 	if (allocs->startBusNum <= bus && bus <= allocs->endBusNum) 

	mov	rax, QWORD PTR allocs$[rsp]
	movzx	eax, BYTE PTR [rax+10]
	cmp	eax, DWORD PTR bus$[rsp]
	jg	SHORT $LN7@pci_expres
	mov	rax, QWORD PTR allocs$[rsp]
	movzx	eax, BYTE PTR [rax+11]
	cmp	DWORD PTR bus$[rsp], eax
	jg	SHORT $LN7@pci_expres

; 177  : 		address = allocs->baseAddress + ((bus - allocs->startBusNum) << 20) | (device << 15) | (func << 12);

	mov	rax, QWORD PTR allocs$[rsp]
	movzx	eax, BYTE PTR [rax+10]
	mov	ecx, DWORD PTR bus$[rsp]
	sub	ecx, eax
	mov	eax, ecx
	shl	eax, 20
	cdqe
	mov	rcx, QWORD PTR allocs$[rsp]
	mov	rcx, QWORD PTR [rcx]
	add	rcx, rax
	mov	rax, rcx
	mov	rcx, QWORD PTR device$[rsp]
	shl	rcx, 15
	or	rax, rcx
	mov	ecx, DWORD PTR func$[rsp]
	shl	ecx, 12
	movsxd	rcx, ecx
	or	rax, rcx
	mov	QWORD PTR address$[rsp], rax
$LN7@pci_expres:

; 178  : 
; 179  : 	if (address == 0)

	cmp	QWORD PTR address$[rsp], 0
	jne	SHORT $LN6@pci_expres

; 180  : 		return 0;

	xor	eax, eax
	jmp	$LN9@pci_expres
$LN6@pci_expres:

; 181  : 
; 182  : 	uint64_t result = 0;

	mov	QWORD PTR result$[rsp], 0

; 183  : 
; 184  : 	if (size == 1){

	cmp	DWORD PTR size$[rsp], 1
	jne	SHORT $LN5@pci_expres

; 185  : 		result = *raw_offset<volatile uint8_t*>(device,reg);

	mov	edx, DWORD PTR reg$[rsp]
	mov	rcx, QWORD PTR device$[rsp]
	call	??$raw_offset@PECE_K@@YAPECE_KH@Z	; raw_offset<unsigned char volatile * __ptr64,unsigned __int64>
	movzx	eax, BYTE PTR [rax]
	movzx	eax, al
	mov	QWORD PTR result$[rsp], rax

; 186  : 		return result;

	mov	rax, QWORD PTR result$[rsp]
	jmp	SHORT $LN9@pci_expres
	jmp	SHORT $LN4@pci_expres
$LN5@pci_expres:

; 187  : 	}else if (size == 2) {

	cmp	DWORD PTR size$[rsp], 2
	jne	SHORT $LN3@pci_expres

; 188  : 		result = *raw_offset<volatile uint16_t*>(device, reg);

	mov	edx, DWORD PTR reg$[rsp]
	mov	rcx, QWORD PTR device$[rsp]
	call	??$raw_offset@PECG_K@@YAPECG_KH@Z	; raw_offset<unsigned short volatile * __ptr64,unsigned __int64>
	movzx	eax, WORD PTR [rax]
	movzx	eax, ax
	mov	QWORD PTR result$[rsp], rax

; 189  : 		return result;

	mov	rax, QWORD PTR result$[rsp]
	jmp	SHORT $LN9@pci_expres
	jmp	SHORT $LN2@pci_expres
$LN3@pci_expres:

; 190  : 	}else if (size == 4) {

	cmp	DWORD PTR size$[rsp], 4
	jne	SHORT $LN1@pci_expres

; 191  : 		result = *raw_offset<volatile uint32_t*>(device,reg);

	mov	edx, DWORD PTR reg$[rsp]
	mov	rcx, QWORD PTR device$[rsp]
	call	??$raw_offset@PECI_K@@YAPECI_KH@Z	; raw_offset<unsigned int volatile * __ptr64,unsigned __int64>
	mov	eax, DWORD PTR [rax]
	mov	eax, eax
	mov	QWORD PTR result$[rsp], rax

; 192  : 		return result;

	mov	rax, QWORD PTR result$[rsp]
	jmp	SHORT $LN9@pci_expres
$LN1@pci_expres:
$LN2@pci_expres:
$LN4@pci_expres:

; 193  : 	}
; 194  : 	
; 195  : 
; 196  : 	return UINT64_MAX;

	mov	rax, -1
$LN9@pci_expres:

; 197  : }

	add	rsp, 72					; 00000048H
	ret	0
pci_express_read2 ENDP
_TEXT	ENDS
; Function compile flags: /Odtpy
; File e:\xeneva project\xeneva\aurora\aurora\drivers\pcie.cpp
_TEXT	SEGMENT
size$ = 32
address$ = 36
tv90 = 40
result$ = 48
allocs$ = 56
mcfg$ = 64
device$ = 96
reg$ = 104
bus$ = 112
dev$ = 120
func$ = 128
pci_express_read PROC

; 68   : uint32_t pci_express_read (uint64_t device, int reg, int bus,int dev,int func) {

$LN37:
	mov	DWORD PTR [rsp+32], r9d
	mov	DWORD PTR [rsp+24], r8d
	mov	DWORD PTR [rsp+16], edx
	mov	QWORD PTR [rsp+8], rcx
	sub	rsp, 88					; 00000058H

; 69   : 	if(acpi_pcie_supported() == false) {

	call	?acpi_pcie_supported@@YA_NXZ		; acpi_pcie_supported
	movzx	eax, al
	test	eax, eax
	jne	SHORT $LN32@pci_expres

; 70   : 		return 0; //pci_read(device,reg);

	xor	eax, eax
	jmp	$LN33@pci_expres
$LN32@pci_expres:

; 71   : 	}
; 72   : 	uint32_t address = 0;

	mov	DWORD PTR address$[rsp], 0

; 73   : 	acpiMcfg *mcfg = acpi_get_mcfg();

	call	?acpi_get_mcfg@@YAPEAUacpiMcfg@@XZ	; acpi_get_mcfg
	mov	QWORD PTR mcfg$[rsp], rax

; 74   : 	acpiMcfgAlloc *allocs = mem_after<acpiMcfgAlloc*>(mcfg);

	mov	rcx, QWORD PTR mcfg$[rsp]
	call	??$mem_after@PEAUacpiMcfgAlloc@@UacpiMcfg@@@@YAPEAUacpiMcfgAlloc@@PEAUacpiMcfg@@@Z ; mem_after<acpiMcfgAlloc * __ptr64,acpiMcfg>
	mov	QWORD PTR allocs$[rsp], rax

; 75   : 	if (allocs->startBusNum <= bus && bus <= allocs->endBusNum) {

	mov	rax, QWORD PTR allocs$[rsp]
	movzx	eax, BYTE PTR [rax+10]
	cmp	eax, DWORD PTR bus$[rsp]
	jg	SHORT $LN31@pci_expres
	mov	rax, QWORD PTR allocs$[rsp]
	movzx	eax, BYTE PTR [rax+11]
	cmp	DWORD PTR bus$[rsp], eax
	jg	SHORT $LN31@pci_expres

; 76   : 		address = allocs->baseAddress + ((bus - allocs->startBusNum) << 20) | (device << 15) | (func << 12);

	mov	rax, QWORD PTR allocs$[rsp]
	movzx	eax, BYTE PTR [rax+10]
	mov	ecx, DWORD PTR bus$[rsp]
	sub	ecx, eax
	mov	eax, ecx
	shl	eax, 20
	cdqe
	mov	rcx, QWORD PTR allocs$[rsp]
	mov	rcx, QWORD PTR [rcx]
	add	rcx, rax
	mov	rax, rcx
	mov	rcx, QWORD PTR device$[rsp]
	shl	rcx, 15
	or	rax, rcx
	mov	ecx, DWORD PTR func$[rsp]
	shl	ecx, 12
	movsxd	rcx, ecx
	or	rax, rcx
	mov	DWORD PTR address$[rsp], eax
$LN31@pci_expres:

; 77   : 	}
; 78   : 
; 79   : 	uint64_t result = 0;

	mov	QWORD PTR result$[rsp], 0

; 80   : 	if (address == 0)

	cmp	DWORD PTR address$[rsp], 0
	jne	SHORT $LN30@pci_expres

; 81   : 		return 0;

	xor	eax, eax
	jmp	$LN33@pci_expres
$LN30@pci_expres:

; 82   : 
; 83   : 
; 84   : 	int size = 0;

	mov	DWORD PTR size$[rsp], 0

; 85   : 	switch(reg) {

	mov	eax, DWORD PTR reg$[rsp]
	mov	DWORD PTR tv90[rsp], eax
	cmp	DWORD PTR tv90[rsp], 61			; 0000003dH
	ja	$LN6@pci_expres
	movsxd	rax, DWORD PTR tv90[rsp]
	lea	rcx, OFFSET FLAT:__ImageBase
	movzx	eax, BYTE PTR $LN35@pci_expres[rcx+rax]
	mov	eax, DWORD PTR $LN36@pci_expres[rcx+rax*4]
	add	rax, rcx
	jmp	rax
$LN27@pci_expres:

; 86   : 	case PCI_VENDOR_ID:
; 87   : 		size = 2;

	mov	DWORD PTR size$[rsp], 2

; 88   : 		break;

	jmp	$LN28@pci_expres
$LN26@pci_expres:

; 89   : 	case PCI_DEVICE_ID:
; 90   : 		size = 2;

	mov	DWORD PTR size$[rsp], 2

; 91   : 		break;

	jmp	$LN28@pci_expres
$LN25@pci_expres:

; 92   : 	case PCI_COMMAND:
; 93   : 		size = 2;

	mov	DWORD PTR size$[rsp], 2

; 94   : 		break;

	jmp	$LN28@pci_expres
$LN24@pci_expres:

; 95   : 	case PCI_STATUS:
; 96   : 		size = 2;

	mov	DWORD PTR size$[rsp], 2

; 97   : 		break;

	jmp	$LN28@pci_expres
$LN23@pci_expres:

; 98   : 	case PCI_REVISION_ID:
; 99   : 		size = 1;

	mov	DWORD PTR size$[rsp], 1

; 100  : 		break;

	jmp	$LN28@pci_expres
$LN22@pci_expres:

; 101  : 	case PCI_PROG_IF:
; 102  : 		size = 1;

	mov	DWORD PTR size$[rsp], 1

; 103  : 		break;

	jmp	$LN28@pci_expres
$LN21@pci_expres:

; 104  : 	case PCI_SUBCLASS:
; 105  : 		size = 1;

	mov	DWORD PTR size$[rsp], 1

; 106  : 		break;

	jmp	$LN28@pci_expres
$LN20@pci_expres:

; 107  : 	case PCI_CLASS:
; 108  : 		size = 1;

	mov	DWORD PTR size$[rsp], 1

; 109  : 		break;

	jmp	$LN28@pci_expres
$LN19@pci_expres:

; 110  : 	case PCI_CACHE_LINE_SIZE:
; 111  : 		size = 1;

	mov	DWORD PTR size$[rsp], 1

; 112  : 		break;

	jmp	$LN28@pci_expres
$LN18@pci_expres:

; 113  : 	case PCI_LATENCY_TIMER:
; 114  : 		size = 1;

	mov	DWORD PTR size$[rsp], 1

; 115  : 		break;

	jmp	SHORT $LN28@pci_expres
$LN17@pci_expres:

; 116  : 	case PCI_HEADER_TYPE:
; 117  : 		size = 1;

	mov	DWORD PTR size$[rsp], 1

; 118  : 		break;

	jmp	SHORT $LN28@pci_expres
$LN16@pci_expres:

; 119  : 	case PCI_BIST:
; 120  : 		size = 1;

	mov	DWORD PTR size$[rsp], 1

; 121  : 		break;

	jmp	SHORT $LN28@pci_expres
$LN15@pci_expres:

; 122  : 	case PCI_BAR0:
; 123  : 		size = 4;

	mov	DWORD PTR size$[rsp], 4

; 124  : 		break;

	jmp	SHORT $LN28@pci_expres
$LN14@pci_expres:

; 125  : 	case PCI_BAR1:
; 126  : 		size = 4;

	mov	DWORD PTR size$[rsp], 4

; 127  : 		break;

	jmp	SHORT $LN28@pci_expres
$LN13@pci_expres:

; 128  : 	case PCI_BAR2:
; 129  : 		size = 4;

	mov	DWORD PTR size$[rsp], 4

; 130  : 		break;

	jmp	SHORT $LN28@pci_expres
$LN12@pci_expres:

; 131  : 	case PCI_BAR3:
; 132  : 		size = 4;

	mov	DWORD PTR size$[rsp], 4

; 133  : 		break;

	jmp	SHORT $LN28@pci_expres
$LN11@pci_expres:

; 134  : 	case PCI_BAR4:
; 135  : 		size = 4;

	mov	DWORD PTR size$[rsp], 4

; 136  : 		break;

	jmp	SHORT $LN28@pci_expres
$LN10@pci_expres:

; 137  : 	case PCI_BAR5:
; 138  : 		size = 4;

	mov	DWORD PTR size$[rsp], 4

; 139  : 		break;

	jmp	SHORT $LN28@pci_expres
$LN9@pci_expres:

; 140  : 	case PCI_CAPABILITIES_PTR:
; 141  : 		size = 1;

	mov	DWORD PTR size$[rsp], 1

; 142  : 		break;

	jmp	SHORT $LN28@pci_expres
$LN8@pci_expres:

; 143  : 	case PCI_INTERRUPT_LINE:
; 144  : 		size = 1;

	mov	DWORD PTR size$[rsp], 1

; 145  : 		break;

	jmp	SHORT $LN28@pci_expres
$LN7@pci_expres:

; 146  : 	case PCI_INTERRUPT_PIN:
; 147  : 		size = 1;

	mov	DWORD PTR size$[rsp], 1

; 148  : 		break;

	jmp	SHORT $LN28@pci_expres
$LN6@pci_expres:

; 149  : 	default:
; 150  : 		size = 1;

	mov	DWORD PTR size$[rsp], 1
$LN28@pci_expres:

; 151  : 		break;
; 152  : 	}
; 153  : 
; 154  : 	if (size == 1){

	cmp	DWORD PTR size$[rsp], 1
	jne	SHORT $LN5@pci_expres

; 155  : 		result = *raw_offset<volatile uint8_t*>(device,reg);

	mov	edx, DWORD PTR reg$[rsp]
	mov	rcx, QWORD PTR device$[rsp]
	call	??$raw_offset@PECE_K@@YAPECE_KH@Z	; raw_offset<unsigned char volatile * __ptr64,unsigned __int64>
	movzx	eax, BYTE PTR [rax]
	movzx	eax, al
	mov	QWORD PTR result$[rsp], rax

; 156  : 		return result;

	mov	eax, DWORD PTR result$[rsp]
	jmp	SHORT $LN33@pci_expres
	jmp	SHORT $LN4@pci_expres
$LN5@pci_expres:

; 157  : 	}else if (size == 2) {

	cmp	DWORD PTR size$[rsp], 2
	jne	SHORT $LN3@pci_expres

; 158  : 		result = *raw_offset<volatile uint16_t*>(device, reg);

	mov	edx, DWORD PTR reg$[rsp]
	mov	rcx, QWORD PTR device$[rsp]
	call	??$raw_offset@PECG_K@@YAPECG_KH@Z	; raw_offset<unsigned short volatile * __ptr64,unsigned __int64>
	movzx	eax, WORD PTR [rax]
	movzx	eax, ax
	mov	QWORD PTR result$[rsp], rax

; 159  : 		return result;

	mov	eax, DWORD PTR result$[rsp]
	jmp	SHORT $LN33@pci_expres
	jmp	SHORT $LN2@pci_expres
$LN3@pci_expres:

; 160  : 	}else if (size == 4) {

	cmp	DWORD PTR size$[rsp], 4
	jne	SHORT $LN1@pci_expres

; 161  : 		result = *raw_offset<volatile uint32_t*>(device,reg);

	mov	edx, DWORD PTR reg$[rsp]
	mov	rcx, QWORD PTR device$[rsp]
	call	??$raw_offset@PECI_K@@YAPECI_KH@Z	; raw_offset<unsigned int volatile * __ptr64,unsigned __int64>
	mov	eax, DWORD PTR [rax]
	mov	eax, eax
	mov	QWORD PTR result$[rsp], rax

; 162  : 		return result;

	mov	eax, DWORD PTR result$[rsp]
	jmp	SHORT $LN33@pci_expres
$LN1@pci_expres:
$LN2@pci_expres:
$LN4@pci_expres:

; 163  : 	}
; 164  : 
; 165  : 	return 0xFFFFFFFF;

	mov	eax, -1					; ffffffffH
$LN33@pci_expres:

; 166  : }

	add	rsp, 88					; 00000058H
	ret	0
	npad	2
$LN36@pci_expres:
	DD	$LN27@pci_expres
	DD	$LN26@pci_expres
	DD	$LN25@pci_expres
	DD	$LN24@pci_expres
	DD	$LN23@pci_expres
	DD	$LN22@pci_expres
	DD	$LN21@pci_expres
	DD	$LN20@pci_expres
	DD	$LN19@pci_expres
	DD	$LN18@pci_expres
	DD	$LN17@pci_expres
	DD	$LN16@pci_expres
	DD	$LN15@pci_expres
	DD	$LN14@pci_expres
	DD	$LN13@pci_expres
	DD	$LN12@pci_expres
	DD	$LN11@pci_expres
	DD	$LN10@pci_expres
	DD	$LN9@pci_expres
	DD	$LN8@pci_expres
	DD	$LN7@pci_expres
	DD	$LN6@pci_expres
$LN35@pci_expres:
	DB	0
	DB	21
	DB	1
	DB	21
	DB	2
	DB	21
	DB	3
	DB	21
	DB	4
	DB	5
	DB	6
	DB	7
	DB	8
	DB	9
	DB	10
	DB	11
	DB	12
	DB	21
	DB	21
	DB	21
	DB	13
	DB	21
	DB	21
	DB	21
	DB	14
	DB	21
	DB	21
	DB	21
	DB	15
	DB	21
	DB	21
	DB	21
	DB	16
	DB	21
	DB	21
	DB	21
	DB	17
	DB	21
	DB	21
	DB	21
	DB	21
	DB	21
	DB	21
	DB	21
	DB	21
	DB	21
	DB	21
	DB	21
	DB	21
	DB	21
	DB	21
	DB	21
	DB	18
	DB	21
	DB	21
	DB	21
	DB	21
	DB	21
	DB	21
	DB	21
	DB	19
	DB	20
pci_express_read ENDP
_TEXT	ENDS
; Function compile flags: /Odtpy
; File e:\xeneva project\xeneva\aurora\aurora\drivers\pcie.cpp
_TEXT	SEGMENT
bus$1 = 48
dev$2 = 52
func$3 = 56
sub_ClassCode$4 = 60
pciSegment$ = 64
prog_if$5 = 68
class_code$6 = 69
address$7 = 72
allocs$ = 80
mcfg$ = 88
classCode$ = 112
subClassCode$ = 120
progIf$ = 128
bus_$ = 136
dev_$ = 144
func_$ = 152
pci_express_scan_class_if PROC

; 373  : uint64_t pci_express_scan_class_if (uint8_t classCode, uint8_t subClassCode, uint8_t progIf, int *bus_, int *dev_, int *func_) {

$LN18:
	mov	QWORD PTR [rsp+32], r9
	mov	BYTE PTR [rsp+24], r8b
	mov	BYTE PTR [rsp+16], dl
	mov	BYTE PTR [rsp+8], cl
	sub	rsp, 104				; 00000068H

; 374  : 	if(acpi_pcie_supported() == false) {

	call	?acpi_pcie_supported@@YA_NXZ		; acpi_pcie_supported
	movzx	eax, al
	test	eax, eax
	jne	SHORT $LN15@pci_expres

; 375  : 		return 0; //pci_scan_class(classCode, subClassCode);

	xor	eax, eax
	jmp	$LN16@pci_expres
$LN15@pci_expres:

; 376  : 	}
; 377  : 
; 378  : 	acpiMcfg *mcfg = acpi_get_mcfg();

	call	?acpi_get_mcfg@@YAPEAUacpiMcfg@@XZ	; acpi_get_mcfg
	mov	QWORD PTR mcfg$[rsp], rax

; 379  : 	acpiMcfgAlloc *allocs = mem_after<acpiMcfgAlloc*>(mcfg);

	mov	rcx, QWORD PTR mcfg$[rsp]
	call	??$mem_after@PEAUacpiMcfgAlloc@@UacpiMcfg@@@@YAPEAUacpiMcfgAlloc@@PEAUacpiMcfg@@@Z ; mem_after<acpiMcfgAlloc * __ptr64,acpiMcfg>
	mov	QWORD PTR allocs$[rsp], rax

; 380  : 	uint16_t pciSegment = 0;

	xor	eax, eax
	mov	WORD PTR pciSegment$[rsp], ax

; 381  : 	if (allocs->pciSegment <= 65535)

	mov	rax, QWORD PTR allocs$[rsp]
	movzx	eax, WORD PTR [rax+8]
	cmp	eax, 65535				; 0000ffffH
	jg	SHORT $LN14@pci_expres

; 382  : 		pciSegment = allocs->pciSegment;

	mov	rax, QWORD PTR allocs$[rsp]
	movzx	eax, WORD PTR [rax+8]
	mov	WORD PTR pciSegment$[rsp], ax

; 383  : 	else

	jmp	SHORT $LN13@pci_expres
$LN14@pci_expres:

; 384  : 		pciSegment = 0;

	xor	eax, eax
	mov	WORD PTR pciSegment$[rsp], ax
$LN13@pci_expres:

; 385  : 
; 386  : 	for (int bus = 0; bus < allocs->endBusNum; bus++){

	mov	DWORD PTR bus$1[rsp], 0
	jmp	SHORT $LN12@pci_expres
$LN11@pci_expres:
	mov	eax, DWORD PTR bus$1[rsp]
	inc	eax
	mov	DWORD PTR bus$1[rsp], eax
$LN12@pci_expres:
	mov	rax, QWORD PTR allocs$[rsp]
	movzx	eax, BYTE PTR [rax+11]
	cmp	DWORD PTR bus$1[rsp], eax
	jge	$LN10@pci_expres

; 387  : 		for (int dev = 0; dev < PCI_DEVICE_PER_BUS; dev++) {

	mov	DWORD PTR dev$2[rsp], 0
	jmp	SHORT $LN9@pci_expres
$LN8@pci_expres:
	mov	eax, DWORD PTR dev$2[rsp]
	inc	eax
	mov	DWORD PTR dev$2[rsp], eax
$LN9@pci_expres:
	cmp	DWORD PTR dev$2[rsp], 32		; 00000020H
	jge	$LN7@pci_expres

; 388  : 			for (int func = 0; func < PCI_FUNCTION_PER_DEVICE; func++) {

	mov	DWORD PTR func$3[rsp], 0
	jmp	SHORT $LN6@pci_expres
$LN5@pci_expres:
	mov	eax, DWORD PTR func$3[rsp]
	inc	eax
	mov	DWORD PTR func$3[rsp], eax
$LN6@pci_expres:
	cmp	DWORD PTR func$3[rsp], 8
	jge	$LN4@pci_expres

; 389  : 				uint64_t address = pci_express_get_device(pciSegment, bus,dev,func);

	mov	r9d, DWORD PTR func$3[rsp]
	mov	r8d, DWORD PTR dev$2[rsp]
	mov	edx, DWORD PTR bus$1[rsp]
	movzx	ecx, WORD PTR pciSegment$[rsp]
	call	?pci_express_get_device@@YA_KGHHH@Z	; pci_express_get_device
	mov	QWORD PTR address$7[rsp], rax

; 390  : 			
; 391  : 				if (address == 0xFFFFFFFF)

	mov	eax, -1					; ffffffffH
	cmp	QWORD PTR address$7[rsp], rax
	jne	SHORT $LN3@pci_expres

; 392  : 					continue;

	jmp	SHORT $LN5@pci_expres
$LN3@pci_expres:

; 393  : 				uint8_t class_code = pci_express_read(address,PCI_CLASS, bus,dev,func);

	mov	eax, DWORD PTR func$3[rsp]
	mov	DWORD PTR [rsp+32], eax
	mov	r9d, DWORD PTR dev$2[rsp]
	mov	r8d, DWORD PTR bus$1[rsp]
	mov	edx, 11
	mov	rcx, QWORD PTR address$7[rsp]
	call	pci_express_read
	mov	BYTE PTR class_code$6[rsp], al

; 394  : 				uint8_t sub_ClassCode = pci_express_read(address, PCI_SUBCLASS, bus, dev, func);

	mov	eax, DWORD PTR func$3[rsp]
	mov	DWORD PTR [rsp+32], eax
	mov	r9d, DWORD PTR dev$2[rsp]
	mov	r8d, DWORD PTR bus$1[rsp]
	mov	edx, 10
	mov	rcx, QWORD PTR address$7[rsp]
	call	pci_express_read
	mov	BYTE PTR sub_ClassCode$4[rsp], al

; 395  : 				uint8_t prog_if = pci_express_read(address,PCI_PROG_IF, bus, dev, func);

	mov	eax, DWORD PTR func$3[rsp]
	mov	DWORD PTR [rsp+32], eax
	mov	r9d, DWORD PTR dev$2[rsp]
	mov	r8d, DWORD PTR bus$1[rsp]
	mov	edx, 9
	mov	rcx, QWORD PTR address$7[rsp]
	call	pci_express_read
	mov	BYTE PTR prog_if$5[rsp], al

; 396  : 				if (classCode == 0xFF)

	movzx	eax, BYTE PTR classCode$[rsp]
	cmp	eax, 255				; 000000ffH
	jne	SHORT $LN2@pci_expres

; 397  : 					continue;

	jmp	$LN5@pci_expres
$LN2@pci_expres:

; 398  : 				if(class_code == classCode && sub_ClassCode == subClassCode && prog_if == progIf) {

	movzx	eax, BYTE PTR class_code$6[rsp]
	movzx	ecx, BYTE PTR classCode$[rsp]
	cmp	eax, ecx
	jne	SHORT $LN1@pci_expres
	movzx	eax, BYTE PTR sub_ClassCode$4[rsp]
	movzx	ecx, BYTE PTR subClassCode$[rsp]
	cmp	eax, ecx
	jne	SHORT $LN1@pci_expres
	movzx	eax, BYTE PTR prog_if$5[rsp]
	movzx	ecx, BYTE PTR progIf$[rsp]
	cmp	eax, ecx
	jne	SHORT $LN1@pci_expres

; 399  : 					*bus_ = bus;

	mov	rax, QWORD PTR bus_$[rsp]
	mov	ecx, DWORD PTR bus$1[rsp]
	mov	DWORD PTR [rax], ecx

; 400  : 					*dev_ = dev;

	mov	rax, QWORD PTR dev_$[rsp]
	mov	ecx, DWORD PTR dev$2[rsp]
	mov	DWORD PTR [rax], ecx

; 401  : 					*func_ = func;

	mov	rax, QWORD PTR func_$[rsp]
	mov	ecx, DWORD PTR func$3[rsp]
	mov	DWORD PTR [rax], ecx

; 402  : 					return address;

	mov	rax, QWORD PTR address$7[rsp]
	jmp	SHORT $LN16@pci_expres
$LN1@pci_expres:

; 403  : 				}
; 404  : 			}

	jmp	$LN5@pci_expres
$LN4@pci_expres:

; 405  : 		}

	jmp	$LN8@pci_expres
$LN7@pci_expres:

; 406  : 	}

	jmp	$LN11@pci_expres
$LN10@pci_expres:

; 407  : 
; 408  : 	return 0xFFFFFFFF;

	mov	eax, -1					; ffffffffH
$LN16@pci_expres:

; 409  : }

	add	rsp, 104				; 00000068H
	ret	0
pci_express_scan_class_if ENDP
_TEXT	ENDS
; Function compile flags: /Odtpy
; File e:\xeneva project\xeneva\aurora\aurora\drivers\pcie.cpp
_TEXT	SEGMENT
sub_ClassCode$1 = 48
dev$2 = 52
func$3 = 56
pciSegment$ = 60
class_code$4 = 64
bus$5 = 68
address$6 = 72
allocs$ = 80
mcfg$ = 88
classCode$ = 112
subClassCode$ = 120
bus_$ = 128
dev_$ = 136
func_$ = 144
pci_express_scan_class PROC

; 326  : uint64_t pci_express_scan_class (uint8_t classCode, uint8_t subClassCode, int *bus_, int *dev_, int *func_) {

$LN19:
	mov	QWORD PTR [rsp+32], r9
	mov	QWORD PTR [rsp+24], r8
	mov	BYTE PTR [rsp+16], dl
	mov	BYTE PTR [rsp+8], cl
	sub	rsp, 104				; 00000068H

; 327  : 	if(acpi_pcie_supported() == false) {

	call	?acpi_pcie_supported@@YA_NXZ		; acpi_pcie_supported
	movzx	eax, al
	test	eax, eax
	jne	SHORT $LN16@pci_expres

; 328  : 		return 0; //pci_scan_class(classCode, subClassCode);

	xor	eax, eax
	jmp	$LN17@pci_expres
$LN16@pci_expres:

; 329  : 	}
; 330  : 
; 331  : 	acpiMcfg *mcfg = acpi_get_mcfg();

	call	?acpi_get_mcfg@@YAPEAUacpiMcfg@@XZ	; acpi_get_mcfg
	mov	QWORD PTR mcfg$[rsp], rax

; 332  : 	acpiMcfgAlloc *allocs = mem_after<acpiMcfgAlloc*>(mcfg);

	mov	rcx, QWORD PTR mcfg$[rsp]
	call	??$mem_after@PEAUacpiMcfgAlloc@@UacpiMcfg@@@@YAPEAUacpiMcfgAlloc@@PEAUacpiMcfg@@@Z ; mem_after<acpiMcfgAlloc * __ptr64,acpiMcfg>
	mov	QWORD PTR allocs$[rsp], rax

; 333  : 	uint16_t pciSegment = 0;

	xor	eax, eax
	mov	WORD PTR pciSegment$[rsp], ax

; 334  : 	if (allocs->pciSegment <= 65535)

	mov	rax, QWORD PTR allocs$[rsp]
	movzx	eax, WORD PTR [rax+8]
	cmp	eax, 65535				; 0000ffffH
	jg	SHORT $LN15@pci_expres

; 335  : 		pciSegment = allocs->pciSegment;

	mov	rax, QWORD PTR allocs$[rsp]
	movzx	eax, WORD PTR [rax+8]
	mov	WORD PTR pciSegment$[rsp], ax

; 336  : 	else

	jmp	SHORT $LN14@pci_expres
$LN15@pci_expres:

; 337  : 		pciSegment = 0;

	xor	eax, eax
	mov	WORD PTR pciSegment$[rsp], ax
$LN14@pci_expres:

; 338  : 
; 339  : 	for (int bus = 0; bus < allocs->endBusNum; bus++){

	mov	DWORD PTR bus$5[rsp], 0
	jmp	SHORT $LN13@pci_expres
$LN12@pci_expres:
	mov	eax, DWORD PTR bus$5[rsp]
	inc	eax
	mov	DWORD PTR bus$5[rsp], eax
$LN13@pci_expres:
	mov	rax, QWORD PTR allocs$[rsp]
	movzx	eax, BYTE PTR [rax+11]
	cmp	DWORD PTR bus$5[rsp], eax
	jge	$LN11@pci_expres

; 340  : 		for (int dev = 0; dev < PCI_DEVICE_PER_BUS; dev++) {

	mov	DWORD PTR dev$2[rsp], 0
	jmp	SHORT $LN10@pci_expres
$LN9@pci_expres:
	mov	eax, DWORD PTR dev$2[rsp]
	inc	eax
	mov	DWORD PTR dev$2[rsp], eax
$LN10@pci_expres:
	cmp	DWORD PTR dev$2[rsp], 32		; 00000020H
	jge	$LN8@pci_expres

; 341  : 			for (int func = 0; func < PCI_FUNCTION_PER_DEVICE; func++) {

	mov	DWORD PTR func$3[rsp], 0
	jmp	SHORT $LN7@pci_expres
$LN6@pci_expres:
	mov	eax, DWORD PTR func$3[rsp]
	inc	eax
	mov	DWORD PTR func$3[rsp], eax
$LN7@pci_expres:
	cmp	DWORD PTR func$3[rsp], 8
	jge	$LN5@pci_expres

; 342  : 				uint64_t address = pci_express_get_device(pciSegment, bus,dev,func);

	mov	r9d, DWORD PTR func$3[rsp]
	mov	r8d, DWORD PTR dev$2[rsp]
	mov	edx, DWORD PTR bus$5[rsp]
	movzx	ecx, WORD PTR pciSegment$[rsp]
	call	?pci_express_get_device@@YA_KGHHH@Z	; pci_express_get_device
	mov	QWORD PTR address$6[rsp], rax

; 343  : 			
; 344  : 				if (address == 0xFFFFFFFF)

	mov	eax, -1					; ffffffffH
	cmp	QWORD PTR address$6[rsp], rax
	jne	SHORT $LN4@pci_expres

; 345  : 					continue;

	jmp	SHORT $LN6@pci_expres
$LN4@pci_expres:

; 346  : 				uint8_t class_code = pci_express_read(address,PCI_CLASS, bus,dev,func);

	mov	eax, DWORD PTR func$3[rsp]
	mov	DWORD PTR [rsp+32], eax
	mov	r9d, DWORD PTR dev$2[rsp]
	mov	r8d, DWORD PTR bus$5[rsp]
	mov	edx, 11
	mov	rcx, QWORD PTR address$6[rsp]
	call	pci_express_read
	mov	BYTE PTR class_code$4[rsp], al

; 347  : 				uint8_t sub_ClassCode = pci_express_read(address, PCI_SUBCLASS, bus, dev, func);

	mov	eax, DWORD PTR func$3[rsp]
	mov	DWORD PTR [rsp+32], eax
	mov	r9d, DWORD PTR dev$2[rsp]
	mov	r8d, DWORD PTR bus$5[rsp]
	mov	edx, 10
	mov	rcx, QWORD PTR address$6[rsp]
	call	pci_express_read
	mov	BYTE PTR sub_ClassCode$1[rsp], al

; 348  : 				if (classCode == 0xFF || sub_ClassCode == 0xFF)

	movzx	eax, BYTE PTR classCode$[rsp]
	cmp	eax, 255				; 000000ffH
	je	SHORT $LN2@pci_expres
	movzx	eax, BYTE PTR sub_ClassCode$1[rsp]
	cmp	eax, 255				; 000000ffH
	jne	SHORT $LN3@pci_expres
$LN2@pci_expres:

; 349  : 					continue;

	jmp	$LN6@pci_expres
$LN3@pci_expres:

; 350  : 				if(class_code == classCode && sub_ClassCode == subClassCode) {

	movzx	eax, BYTE PTR class_code$4[rsp]
	movzx	ecx, BYTE PTR classCode$[rsp]
	cmp	eax, ecx
	jne	SHORT $LN1@pci_expres
	movzx	eax, BYTE PTR sub_ClassCode$1[rsp]
	movzx	ecx, BYTE PTR subClassCode$[rsp]
	cmp	eax, ecx
	jne	SHORT $LN1@pci_expres

; 351  : 					*bus_ = bus;

	mov	rax, QWORD PTR bus_$[rsp]
	mov	ecx, DWORD PTR bus$5[rsp]
	mov	DWORD PTR [rax], ecx

; 352  : 					*dev_ = dev;

	mov	rax, QWORD PTR dev_$[rsp]
	mov	ecx, DWORD PTR dev$2[rsp]
	mov	DWORD PTR [rax], ecx

; 353  : 					*func_ = func;

	mov	rax, QWORD PTR func_$[rsp]
	mov	ecx, DWORD PTR func$3[rsp]
	mov	DWORD PTR [rax], ecx

; 354  : 					return address;

	mov	rax, QWORD PTR address$6[rsp]
	jmp	SHORT $LN17@pci_expres
$LN1@pci_expres:

; 355  : 				}
; 356  : 			}

	jmp	$LN6@pci_expres
$LN5@pci_expres:

; 357  : 		}

	jmp	$LN9@pci_expres
$LN8@pci_expres:

; 358  : 	}

	jmp	$LN12@pci_expres
$LN11@pci_expres:

; 359  : 
; 360  : 	return 0xFFFFFFFF;

	mov	eax, -1					; ffffffffH
$LN17@pci_expres:

; 361  : }

	add	rsp, 104				; 00000068H
	ret	0
pci_express_scan_class ENDP
_TEXT	ENDS
; Function compile flags: /Odtpy
; File e:\xeneva project\xeneva\aurora\aurora\drivers\pcie.cpp
_TEXT	SEGMENT
allocs$ = 32
addr$ = 40
mcfg$ = 48
segment$ = 80
bus$ = 88
device$ = 96
function$ = 104
?pci_express_get_device@@YA_KGHHH@Z PROC		; pci_express_get_device

; 48   : uint64_t pci_express_get_device (uint16_t segment, int bus, int device, int function) {

$LN7:
	mov	DWORD PTR [rsp+32], r9d
	mov	DWORD PTR [rsp+24], r8d
	mov	DWORD PTR [rsp+16], edx
	mov	WORD PTR [rsp+8], cx
	sub	rsp, 72					; 00000048H

; 49   : 	if (bus > 255)

	cmp	DWORD PTR bus$[rsp], 255		; 000000ffH
	jle	SHORT $LN4@pci_expres

; 50   : 		return 0;

	xor	eax, eax
	jmp	$LN5@pci_expres
$LN4@pci_expres:

; 51   : 	if (device > 31)

	cmp	DWORD PTR device$[rsp], 31
	jle	SHORT $LN3@pci_expres

; 52   : 		return 0;

	xor	eax, eax
	jmp	$LN5@pci_expres
$LN3@pci_expres:

; 53   : 	if (function > 7)

	cmp	DWORD PTR function$[rsp], 7
	jle	SHORT $LN2@pci_expres

; 54   : 		return 0;

	xor	eax, eax
	jmp	$LN5@pci_expres
$LN2@pci_expres:

; 55   : 
; 56   : 	uint64_t addr = 0;

	mov	QWORD PTR addr$[rsp], 0

; 57   : 	acpiMcfg *mcfg = acpi_get_mcfg();

	call	?acpi_get_mcfg@@YAPEAUacpiMcfg@@XZ	; acpi_get_mcfg
	mov	QWORD PTR mcfg$[rsp], rax

; 58   : 	acpiMcfgAlloc *allocs = mem_after<acpiMcfgAlloc*>(mcfg);

	mov	rcx, QWORD PTR mcfg$[rsp]
	call	??$mem_after@PEAUacpiMcfgAlloc@@UacpiMcfg@@@@YAPEAUacpiMcfgAlloc@@PEAUacpiMcfg@@@Z ; mem_after<acpiMcfgAlloc * __ptr64,acpiMcfg>
	mov	QWORD PTR allocs$[rsp], rax

; 59   : 	if (allocs->startBusNum <= bus && bus <= allocs->endBusNum) {

	mov	rax, QWORD PTR allocs$[rsp]
	movzx	eax, BYTE PTR [rax+10]
	cmp	eax, DWORD PTR bus$[rsp]
	jg	SHORT $LN1@pci_expres
	mov	rax, QWORD PTR allocs$[rsp]
	movzx	eax, BYTE PTR [rax+11]
	cmp	DWORD PTR bus$[rsp], eax
	jg	SHORT $LN1@pci_expres

; 60   : 		addr = allocs->baseAddress + ((bus - allocs->startBusNum) << 20) | (device << 15) | (function << 12);

	mov	rax, QWORD PTR allocs$[rsp]
	movzx	eax, BYTE PTR [rax+10]
	mov	ecx, DWORD PTR bus$[rsp]
	sub	ecx, eax
	mov	eax, ecx
	shl	eax, 20
	cdqe
	mov	rcx, QWORD PTR allocs$[rsp]
	mov	rcx, QWORD PTR [rcx]
	add	rcx, rax
	mov	rax, rcx
	mov	ecx, DWORD PTR device$[rsp]
	shl	ecx, 15
	movsxd	rcx, ecx
	or	rax, rcx
	mov	ecx, DWORD PTR function$[rsp]
	shl	ecx, 12
	movsxd	rcx, ecx
	or	rax, rcx
	mov	QWORD PTR addr$[rsp], rax

; 61   : 		return addr;

	mov	rax, QWORD PTR addr$[rsp]
	jmp	SHORT $LN5@pci_expres
$LN1@pci_expres:

; 62   : 	}
; 63   : 
; 64   : 	return 0xFFFFFFFF;

	mov	eax, -1					; ffffffffH
$LN5@pci_expres:

; 65   : }

	add	rsp, 72					; 00000048H
	ret	0
?pci_express_get_device@@YA_KGHHH@Z ENDP		; pci_express_get_device
_TEXT	ENDS
END
