; Listing generated by Microsoft (R) Optimizing Compiler Version 17.00.50727.1 

include listing.inc

INCLUDELIB LIBCMT
INCLUDELIB OLDNAMES

PUBLIC	?window_manager_thr@@3PEAU_thread_@@EA		; window_manager_thr
_BSS	SEGMENT
?window_manager_thr@@3PEAU_thread_@@EA DQ 01H DUP (?)	; window_manager_thr
_BSS	ENDS
CONST	SEGMENT
$SG3651	DB	'Allocating new File ', 0dH, 0aH, 00H
	ORG $+1
$SG3655	DB	'mouse', 00H
	ORG $+2
$SG3656	DB	'/dev/mouse', 00H
CONST	ENDS
PUBLIC	?AuPointDevInitialize@@YAXXZ			; AuPointDevInitialize
PUBLIC	?PointDevPutMessage@@YAXPEAU_dwm_message_@@@Z	; PointDevPutMessage
PUBLIC	?mouse_ioquery@@YAHPEAU_vfs_node_@@HPEAX@Z	; mouse_ioquery
PUBLIC	?AuPointerRead@@YA_KPEAU_vfs_node_@@PEA_KI@Z	; AuPointerRead
EXTRN	strcpy:PROC
EXTRN	memset:PROC
EXTRN	memcpy:PROC
EXTRN	AuPmmngrAlloc:PROC
EXTRN	x64_cli:PROC
EXTRN	AuMapPage:PROC
EXTRN	malloc:PROC
EXTRN	AuIrqMask:PROC
EXTRN	vfs_mount:PROC
EXTRN	get_current_thread:PROC
EXTRN	?is_multi_task_enable@@YA_NXZ:PROC		; is_multi_task_enable
EXTRN	?thread_iterate_ready_list@@YAPEAU_thread_@@G@Z:PROC ; thread_iterate_ready_list
EXTRN	?thread_iterate_block_list@@YAPEAU_thread_@@H@Z:PROC ; thread_iterate_block_list
EXTRN	_debug_print_:PROC
pdata	SEGMENT
$pdata$?AuPointDevInitialize@@YAXXZ DD imagerel $LN3
	DD	imagerel $LN3+323
	DD	imagerel $unwind$?AuPointDevInitialize@@YAXXZ
$pdata$?PointDevPutMessage@@YAXPEAU_dwm_message_@@@Z DD imagerel $LN7
	DD	imagerel $LN7+155
	DD	imagerel $unwind$?PointDevPutMessage@@YAXPEAU_dwm_message_@@@Z
$pdata$?mouse_ioquery@@YAHPEAU_vfs_node_@@HPEAX@Z DD imagerel $LN9
	DD	imagerel $LN9+107
	DD	imagerel $unwind$?mouse_ioquery@@YAHPEAU_vfs_node_@@HPEAX@Z
$pdata$?AuPointerRead@@YA_KPEAU_vfs_node_@@PEA_KI@Z DD imagerel $LN3
	DD	imagerel $LN3+69
	DD	imagerel $unwind$?AuPointerRead@@YA_KPEAU_vfs_node_@@PEA_KI@Z
pdata	ENDS
xdata	SEGMENT
$unwind$?AuPointDevInitialize@@YAXXZ DD 010401H
	DD	08204H
$unwind$?PointDevPutMessage@@YAXPEAU_dwm_message_@@@Z DD 010901H
	DD	06209H
$unwind$?mouse_ioquery@@YAHPEAU_vfs_node_@@HPEAX@Z DD 011201H
	DD	06212H
$unwind$?AuPointerRead@@YA_KPEAU_vfs_node_@@PEA_KI@Z DD 011301H
	DD	06213H
xdata	ENDS
; Function compile flags: /Odtpy
; File e:\xeneva project\xeneva\aurora\aurora\ipc\pointdev.cpp
_TEXT	SEGMENT
t$ = 32
file$ = 64
buffer$ = 72
length$ = 80
?AuPointerRead@@YA_KPEAU_vfs_node_@@PEA_KI@Z PROC	; AuPointerRead

; 41   : size_t AuPointerRead (vfs_node_t *file, uint64_t* buffer, uint32_t length) {

$LN3:
	mov	DWORD PTR [rsp+24], r8d
	mov	QWORD PTR [rsp+16], rdx
	mov	QWORD PTR [rsp+8], rcx
	sub	rsp, 56					; 00000038H

; 42   : 	x64_cli();

	call	x64_cli

; 43   : 	thread_t* t = get_current_thread();

	call	get_current_thread
	mov	QWORD PTR t$[rsp], rax

; 44   : 	memcpy (buffer, t->msg_box, sizeof(dwm_message_t));

	mov	r8d, 28
	mov	rax, QWORD PTR t$[rsp]
	mov	rdx, QWORD PTR [rax+248]
	mov	rcx, QWORD PTR buffer$[rsp]
	call	memcpy

; 45   : 	return 0;

	xor	eax, eax

; 46   : }

	add	rsp, 56					; 00000038H
	ret	0
?AuPointerRead@@YA_KPEAU_vfs_node_@@PEA_KI@Z ENDP	; AuPointerRead
_TEXT	ENDS
; Function compile flags: /Odtpy
; File e:\xeneva project\xeneva\aurora\aurora\ipc\pointdev.cpp
_TEXT	SEGMENT
tv64 = 32
node$ = 64
code$ = 72
arg$ = 80
?mouse_ioquery@@YAHPEAU_vfs_node_@@HPEAX@Z PROC		; mouse_ioquery

; 18   : int mouse_ioquery (vfs_node_t *node, int code, void* arg) {

$LN9:
	mov	QWORD PTR [rsp+24], r8
	mov	DWORD PTR [rsp+16], edx
	mov	QWORD PTR [rsp+8], rcx
	sub	rsp, 56					; 00000038H

; 19   : 	x64_cli();

	call	x64_cli

; 20   : 	switch (code) {

	mov	eax, DWORD PTR code$[rsp]
	mov	DWORD PTR tv64[rsp], eax
	cmp	DWORD PTR tv64[rsp], 300		; 0000012cH
	je	SHORT $LN4@mouse_ioqu
	cmp	DWORD PTR tv64[rsp], 301		; 0000012dH
	je	SHORT $LN3@mouse_ioqu
	cmp	DWORD PTR tv64[rsp], 302		; 0000012eH
	je	SHORT $LN2@mouse_ioqu
	jmp	SHORT $LN1@mouse_ioqu
$LN4@mouse_ioqu:

; 21   : 		case MOUSE_IOCODE_DISABLE:
; 22   : 			AuIrqMask(12,true);

	mov	dl, 1
	mov	cl, 12
	call	AuIrqMask

; 23   : 			break;

	jmp	SHORT $LN5@mouse_ioqu
$LN3@mouse_ioqu:

; 24   : 		case MOUSE_IOCODE_ENABLE:
; 25   : 			AuIrqMask(12, false);

	xor	edx, edx
	mov	cl, 12
	call	AuIrqMask

; 26   : 			break;

	jmp	SHORT $LN5@mouse_ioqu
$LN2@mouse_ioqu:

; 27   : 		case MOUSE_REGISTER_WM:
; 28   : 			window_manager_thr = get_current_thread();

	call	get_current_thread
	mov	QWORD PTR ?window_manager_thr@@3PEAU_thread_@@EA, rax ; window_manager_thr
$LN1@mouse_ioqu:
$LN5@mouse_ioqu:

; 29   : 			break;
; 30   : 		default:
; 31   : 			break;
; 32   : 	}
; 33   : 
; 34   : 	return 1;

	mov	eax, 1

; 35   : }

	add	rsp, 56					; 00000038H
	ret	0
?mouse_ioquery@@YAHPEAU_vfs_node_@@HPEAX@Z ENDP		; mouse_ioquery
_TEXT	ENDS
; Function compile flags: /Odtpy
; File e:\xeneva project\xeneva\aurora\aurora\ipc\pointdev.cpp
_TEXT	SEGMENT
t$ = 32
tmsg$ = 40
msg$ = 64
?PointDevPutMessage@@YAXPEAU_dwm_message_@@@Z PROC	; PointDevPutMessage

; 84   : void PointDevPutMessage(dwm_message_t *msg) {

$LN7:
	mov	QWORD PTR [rsp+8], rcx
	sub	rsp, 56					; 00000038H

; 85   : 	if (!is_multi_task_enable())

	call	?is_multi_task_enable@@YA_NXZ		; is_multi_task_enable
	movzx	eax, al
	test	eax, eax
	jne	SHORT $LN4@PointDevPu

; 86   : 		return;

	jmp	SHORT $LN5@PointDevPu
$LN4@PointDevPu:

; 87   : 
; 88   : 	if (window_manager_thr == NULL)

	cmp	QWORD PTR ?window_manager_thr@@3PEAU_thread_@@EA, 0 ; window_manager_thr
	jne	SHORT $LN3@PointDevPu

; 89   : 		return;

	jmp	SHORT $LN5@PointDevPu
$LN3@PointDevPu:

; 90   : 
; 91   : 	thread_t *t  = thread_iterate_ready_list (window_manager_thr->id);   //!ready list

	mov	rax, QWORD PTR ?window_manager_thr@@3PEAU_thread_@@EA ; window_manager_thr
	movzx	ecx, WORD PTR [rax+242]
	call	?thread_iterate_ready_list@@YAPEAU_thread_@@G@Z ; thread_iterate_ready_list
	mov	QWORD PTR t$[rsp], rax

; 92   : 	if (t == NULL) {

	cmp	QWORD PTR t$[rsp], 0
	jne	SHORT $LN2@PointDevPu

; 93   : 		t = thread_iterate_block_list(window_manager_thr->id);

	mov	rax, QWORD PTR ?window_manager_thr@@3PEAU_thread_@@EA ; window_manager_thr
	movzx	eax, WORD PTR [rax+242]
	mov	ecx, eax
	call	?thread_iterate_block_list@@YAPEAU_thread_@@H@Z ; thread_iterate_block_list
	mov	QWORD PTR t$[rsp], rax
$LN2@PointDevPu:

; 94   : 	}
; 95   : 	dwm_message_t *tmsg = (dwm_message_t*)t->msg_box;

	mov	rax, QWORD PTR t$[rsp]
	mov	rax, QWORD PTR [rax+248]
	mov	QWORD PTR tmsg$[rsp], rax

; 96   : 	if (tmsg->type == 0)

	mov	rax, QWORD PTR tmsg$[rsp]
	movzx	eax, WORD PTR [rax]
	test	eax, eax
	jne	SHORT $LN1@PointDevPu

; 97   : 		memcpy (t->msg_box,msg,sizeof(dwm_message_t));

	mov	r8d, 28
	mov	rdx, QWORD PTR msg$[rsp]
	mov	rax, QWORD PTR t$[rsp]
	mov	rcx, QWORD PTR [rax+248]
	call	memcpy
$LN1@PointDevPu:
$LN5@PointDevPu:

; 98   : }

	add	rsp, 56					; 00000038H
	ret	0
?PointDevPutMessage@@YAXPEAU_dwm_message_@@@Z ENDP	; PointDevPutMessage
_TEXT	ENDS
; Function compile flags: /Odtpy
; File e:\xeneva project\xeneva\aurora\aurora\ipc\pointdev.cpp
_TEXT	SEGMENT
node$ = 32
p$ = 40
p2$ = 48
?AuPointDevInitialize@@YAXXZ PROC			; AuPointDevInitialize

; 52   : void AuPointDevInitialize () {

$LN3:
	sub	rsp, 72					; 00000048H

; 53   : 	void* p = AuPmmngrAlloc();

	call	AuPmmngrAlloc
	mov	QWORD PTR p$[rsp], rax

; 54   : 	memset(p, 0, 4096);

	mov	r8d, 4096				; 00001000H
	xor	edx, edx
	mov	rcx, QWORD PTR p$[rsp]
	call	memset

; 55   : 	AuMapPage((uint64_t)p,0xFFFFFD0000000000, PAGING_USER);

	mov	r8b, 4
	mov	rdx, -3298534883328			; fffffd0000000000H
	mov	rcx, QWORD PTR p$[rsp]
	call	AuMapPage

; 56   : 	void *p2 = AuPmmngrAlloc();

	call	AuPmmngrAlloc
	mov	QWORD PTR p2$[rsp], rax

; 57   : 	memset(p2, 0, 4096);

	mov	r8d, 4096				; 00001000H
	xor	edx, edx
	mov	rcx, QWORD PTR p2$[rsp]
	call	memset

; 58   : 	AuMapPage((uint64_t)p2,0xFFFFD00000000000,PAGING_USER);

	mov	r8b, 4
	mov	rdx, -52776558133248			; ffffd00000000000H
	mov	rcx, QWORD PTR p2$[rsp]
	call	AuMapPage

; 59   : 	_debug_print_ ("Allocating new File \r\n");

	lea	rcx, OFFSET FLAT:$SG3651
	call	_debug_print_

; 60   : 
; 61   : 	vfs_node_t *node = (vfs_node_t*)malloc(sizeof(vfs_node_t));

	mov	ecx, 104				; 00000068H
	call	malloc
	mov	QWORD PTR node$[rsp], rax

; 62   : 	
; 63   : 	strcpy (node->filename, "mouse");

	mov	rax, QWORD PTR node$[rsp]
	lea	rdx, OFFSET FLAT:$SG3655
	mov	rcx, rax
	call	strcpy

; 64   : 	node->size = 0;

	mov	rax, QWORD PTR node$[rsp]
	mov	DWORD PTR [rax+32], 0

; 65   : 	node->eof = 0;

	mov	rax, QWORD PTR node$[rsp]
	mov	BYTE PTR [rax+36], 0

; 66   : 	node->pos = 0;

	mov	rax, QWORD PTR node$[rsp]
	mov	DWORD PTR [rax+40], 0

; 67   : 	node->current = 0;

	mov	rax, QWORD PTR node$[rsp]
	mov	DWORD PTR [rax+44], 0

; 68   : 	node->flags = FS_FLAG_GENERAL | FS_FLAG_DEVICE;

	mov	rax, QWORD PTR node$[rsp]
	mov	BYTE PTR [rax+48], 12

; 69   : 	node->status = 0;

	mov	rax, QWORD PTR node$[rsp]
	mov	BYTE PTR [rax+49], 0

; 70   : 	node->open = 0;

	mov	rax, QWORD PTR node$[rsp]
	mov	QWORD PTR [rax+64], 0

; 71   : 	node->read = AuPointerRead;

	mov	rax, QWORD PTR node$[rsp]
	lea	rcx, OFFSET FLAT:?AuPointerRead@@YA_KPEAU_vfs_node_@@PEA_KI@Z ; AuPointerRead
	mov	QWORD PTR [rax+72], rcx

; 72   : 	node->write = 0;

	mov	rax, QWORD PTR node$[rsp]
	mov	QWORD PTR [rax+80], 0

; 73   : 	node->read_blk = 0;

	mov	rax, QWORD PTR node$[rsp]
	mov	QWORD PTR [rax+88], 0

; 74   : 	node->ioquery = mouse_ioquery;

	mov	rax, QWORD PTR node$[rsp]
	lea	rcx, OFFSET FLAT:?mouse_ioquery@@YAHPEAU_vfs_node_@@HPEAX@Z ; mouse_ioquery
	mov	QWORD PTR [rax+96], rcx

; 75   : 	vfs_mount ("/dev/mouse", node, 0);

	xor	r8d, r8d
	mov	rdx, QWORD PTR node$[rsp]
	lea	rcx, OFFSET FLAT:$SG3656
	call	vfs_mount

; 76   : 	window_manager_thr = NULL;

	mov	QWORD PTR ?window_manager_thr@@3PEAU_thread_@@EA, 0 ; window_manager_thr

; 77   : }

	add	rsp, 72					; 00000048H
	ret	0
?AuPointDevInitialize@@YAXXZ ENDP			; AuPointDevInitialize
_TEXT	ENDS
END
