; Listing generated by Microsoft (R) Optimizing Compiler Version 17.00.50727.1 

include listing.inc

INCLUDELIB LIBCMT
INCLUDELIB OLDNAMES

PUBLIC	?first_loop@@3PEAU_pri_loop_box_@@EA		; first_loop
PUBLIC	?last_loop@@3PEAU_pri_loop_box_@@EA		; last_loop
_BSS	SEGMENT
?first_loop@@3PEAU_pri_loop_box_@@EA DQ 01H DUP (?)	; first_loop
?last_loop@@3PEAU_pri_loop_box_@@EA DQ 01H DUP (?)	; last_loop
_BSS	ENDS
CONST	SEGMENT
$SG3627	DB	'pri_loop', 00H
	ORG $+7
$SG3628	DB	'/dev/pri_loop', 00H
CONST	ENDS
PUBLIC	?pri_loop_init@@YAXXZ				; pri_loop_init
PUBLIC	?pri_put_message@@YAXPEAU_pri_event_@@@Z	; pri_put_message
PUBLIC	?pri_loop_destroy@@YAXPEAU_pri_loop_box_@@@Z	; pri_loop_destroy
PUBLIC	?pri_loop_destroy_by_id@@YAXG@Z			; pri_loop_destroy_by_id
PUBLIC	?pri_loop_create@@YAXXZ				; pri_loop_create
PUBLIC	?pri_get_message@@YAXPEAU_pri_event_@@@Z	; pri_get_message
PUBLIC	?pri_loop_ioquery@@YAHPEAU_vfs_node_@@HPEAX@Z	; pri_loop_ioquery
EXTRN	strcpy:PROC
EXTRN	memset:PROC
EXTRN	memcpy:PROC
EXTRN	AuPmmngrAlloc:PROC
EXTRN	AuPmmngrFree:PROC
EXTRN	p2v:PROC
EXTRN	v2p:PROC
EXTRN	x64_cli:PROC
EXTRN	malloc:PROC
EXTRN	free:PROC
EXTRN	vfs_mount:PROC
EXTRN	unblock_thread:PROC
EXTRN	get_current_thread:PROC
EXTRN	?thread_iterate_ready_list@@YAPEAU_thread_@@G@Z:PROC ; thread_iterate_ready_list
EXTRN	?thread_iterate_block_list@@YAPEAU_thread_@@H@Z:PROC ; thread_iterate_block_list
pdata	SEGMENT
$pdata$?pri_loop_init@@YAXXZ DD imagerel $LN3
	DD	imagerel $LN3+195
	DD	imagerel $unwind$?pri_loop_init@@YAXXZ
$pdata$?pri_put_message@@YAXPEAU_pri_event_@@@Z DD imagerel $LN10
	DD	imagerel $LN10+214
	DD	imagerel $unwind$?pri_put_message@@YAXPEAU_pri_event_@@@Z
$pdata$?pri_loop_destroy@@YAXPEAU_pri_loop_box_@@@Z DD imagerel $LN8
	DD	imagerel $LN8+170
	DD	imagerel $unwind$?pri_loop_destroy@@YAXPEAU_pri_loop_box_@@@Z
$pdata$?pri_loop_destroy_by_id@@YAXG@Z DD imagerel $LN7
	DD	imagerel $LN7+82
	DD	imagerel $unwind$?pri_loop_destroy_by_id@@YAXG@Z
$pdata$?pri_loop_create@@YAXXZ DD imagerel $LN5
	DD	imagerel $LN5+202
	DD	imagerel $unwind$?pri_loop_create@@YAXXZ
$pdata$?pri_get_message@@YAXPEAU_pri_event_@@@Z DD imagerel $LN8
	DD	imagerel $LN8+185
	DD	imagerel $unwind$?pri_get_message@@YAXPEAU_pri_event_@@@Z
$pdata$?pri_loop_ioquery@@YAHPEAU_vfs_node_@@HPEAX@Z DD imagerel $LN13
	DD	imagerel $LN13+249
	DD	imagerel $unwind$?pri_loop_ioquery@@YAHPEAU_vfs_node_@@HPEAX@Z
pdata	ENDS
xdata	SEGMENT
$unwind$?pri_loop_init@@YAXXZ DD 010401H
	DD	06204H
$unwind$?pri_put_message@@YAXPEAU_pri_event_@@@Z DD 010901H
	DD	08209H
$unwind$?pri_loop_destroy@@YAXPEAU_pri_loop_box_@@@Z DD 010901H
	DD	04209H
$unwind$?pri_loop_destroy_by_id@@YAXG@Z DD 010901H
	DD	06209H
$unwind$?pri_loop_create@@YAXXZ DD 010401H
	DD	06204H
$unwind$?pri_get_message@@YAXPEAU_pri_event_@@@Z DD 010901H
	DD	06209H
$unwind$?pri_loop_ioquery@@YAHPEAU_vfs_node_@@HPEAX@Z DD 021501H
	DD	01f0115H
xdata	ENDS
; Function compile flags: /Odtpy
; File e:\xeneva project\xeneva\aurora\aurora\ipc\pri_loop.cpp
_TEXT	SEGMENT
tv64 = 32
box$1 = 40
tv68 = 48
event$2 = 56
e$3 = 64
file$ = 256
code$ = 264
arg$ = 272
?pri_loop_ioquery@@YAHPEAU_vfs_node_@@HPEAX@Z PROC	; pri_loop_ioquery

; 171  : int pri_loop_ioquery (vfs_node_t *file, int code, void *arg) {

$LN13:
	mov	QWORD PTR [rsp+24], r8
	mov	DWORD PTR [rsp+16], edx
	mov	QWORD PTR [rsp+8], rcx
	sub	rsp, 248				; 000000f8H

; 172  : 	x64_cli();

	call	x64_cli

; 173  : 	switch (code) {

	mov	eax, DWORD PTR code$[rsp]
	mov	DWORD PTR tv64[rsp], eax
	cmp	DWORD PTR tv64[rsp], 401		; 00000191H
	je	SHORT $LN8@pri_loop_i
	cmp	DWORD PTR tv64[rsp], 402		; 00000192H
	je	SHORT $LN7@pri_loop_i
	cmp	DWORD PTR tv64[rsp], 403		; 00000193H
	je	SHORT $LN2@pri_loop_i
	cmp	DWORD PTR tv64[rsp], 404		; 00000194H
	je	SHORT $LN1@pri_loop_i
	jmp	$LN9@pri_loop_i
$LN8@pri_loop_i:

; 174  : 	case PRI_LOOP_CREATE: {
; 175  : 		pri_loop_create();

	call	?pri_loop_create@@YAXXZ			; pri_loop_create

; 176  : 		break;

	jmp	$LN9@pri_loop_i
$LN7@pri_loop_i:

; 177  : 	}
; 178  : 	case PRI_LOOP_DESTROY: {
; 179  : 		pri_loop_box_t *box;
; 180  : 		for (box = first_loop; box != NULL; box = box->next) {

	mov	rax, QWORD PTR ?first_loop@@3PEAU_pri_loop_box_@@EA ; first_loop
	mov	QWORD PTR box$1[rsp], rax
	jmp	SHORT $LN6@pri_loop_i
$LN5@pri_loop_i:
	mov	rax, QWORD PTR box$1[rsp]
	mov	rax, QWORD PTR [rax+16]
	mov	QWORD PTR box$1[rsp], rax
$LN6@pri_loop_i:
	cmp	QWORD PTR box$1[rsp], 0
	je	SHORT $LN4@pri_loop_i

; 181  : 			if (box->owner_id == get_current_thread()->id) {

	mov	rax, QWORD PTR box$1[rsp]
	movzx	eax, WORD PTR [rax+8]
	mov	DWORD PTR tv68[rsp], eax
	call	get_current_thread
	movzx	eax, WORD PTR [rax+242]
	mov	ecx, DWORD PTR tv68[rsp]
	cmp	ecx, eax
	jne	SHORT $LN3@pri_loop_i

; 182  : 				pri_loop_destroy(box);

	mov	rcx, QWORD PTR box$1[rsp]
	call	?pri_loop_destroy@@YAXPEAU_pri_loop_box_@@@Z ; pri_loop_destroy

; 183  : 				break;

	jmp	SHORT $LN4@pri_loop_i
$LN3@pri_loop_i:

; 184  : 			}
; 185  : 		}

	jmp	SHORT $LN5@pri_loop_i
$LN4@pri_loop_i:

; 186  : 		break;

	jmp	SHORT $LN9@pri_loop_i
$LN2@pri_loop_i:

; 187  : 	}
; 188  : 	case PRI_LOOP_PUT_EVENT: {
; 189  : 		pri_event_t *event = (pri_event_t*)arg;

	mov	rax, QWORD PTR arg$[rsp]
	mov	QWORD PTR event$2[rsp], rax

; 190  : 		pri_put_message(event);

	mov	rcx, QWORD PTR event$2[rsp]
	call	?pri_put_message@@YAXPEAU_pri_event_@@@Z ; pri_put_message

; 191  : 		break;

	jmp	SHORT $LN9@pri_loop_i
$LN1@pri_loop_i:

; 192  : 	}
; 193  : 
; 194  : 	case PRI_LOOP_GET_EVENT: {
; 195  : 		pri_event_t e;
; 196  : 		pri_get_message(&e);

	lea	rcx, QWORD PTR e$3[rsp]
	call	?pri_get_message@@YAXPEAU_pri_event_@@@Z ; pri_get_message

; 197  : 		memcpy (arg,&e,sizeof(pri_event_t));

	mov	r8d, 176				; 000000b0H
	lea	rdx, QWORD PTR e$3[rsp]
	mov	rcx, QWORD PTR arg$[rsp]
	call	memcpy
$LN9@pri_loop_i:

; 198  : 		break;
; 199  : 	}
; 200  : 	}
; 201  : 
; 202  : 	return 1;

	mov	eax, 1

; 203  : }

	add	rsp, 248				; 000000f8H
	ret	0
?pri_loop_ioquery@@YAHPEAU_vfs_node_@@HPEAX@Z ENDP	; pri_loop_ioquery
_TEXT	ENDS
; Function compile flags: /Odtpy
; File e:\xeneva project\xeneva\aurora\aurora\ipc\pri_loop.cpp
_TEXT	SEGMENT
owner_id$ = 32
loop$1 = 40
event$ = 64
?pri_get_message@@YAXPEAU_pri_event_@@@Z PROC		; pri_get_message

; 146  : void pri_get_message (pri_event_t *event) {

$LN8:
	mov	QWORD PTR [rsp+8], rcx
	sub	rsp, 56					; 00000038H

; 147  : 	x64_cli();

	call	x64_cli

; 148  : 
; 149  : 	uint16_t owner_id = get_current_thread()->id;

	call	get_current_thread
	movzx	eax, WORD PTR [rax+242]
	mov	WORD PTR owner_id$[rsp], ax

; 150  : 	for (pri_loop_box_t *loop = first_loop; loop != NULL; loop = loop->next) {

	mov	rax, QWORD PTR ?first_loop@@3PEAU_pri_loop_box_@@EA ; first_loop
	mov	QWORD PTR loop$1[rsp], rax
	jmp	SHORT $LN5@pri_get_me
$LN4@pri_get_me:
	mov	rax, QWORD PTR loop$1[rsp]
	mov	rax, QWORD PTR [rax+16]
	mov	QWORD PTR loop$1[rsp], rax
$LN5@pri_get_me:
	cmp	QWORD PTR loop$1[rsp], 0
	je	SHORT $LN3@pri_get_me

; 151  : 		if (loop->owner_id == owner_id) {

	mov	rax, QWORD PTR loop$1[rsp]
	movzx	eax, WORD PTR [rax+8]
	movzx	ecx, WORD PTR owner_id$[rsp]
	cmp	eax, ecx
	jne	SHORT $LN2@pri_get_me

; 152  : 			if (loop->message_pending){

	mov	rax, QWORD PTR loop$1[rsp]
	movzx	eax, BYTE PTR [rax+10]
	test	eax, eax
	je	SHORT $LN1@pri_get_me

; 153  : 				memcpy (event,loop->address, sizeof(pri_event_t));

	mov	r8d, 176				; 000000b0H
	mov	rax, QWORD PTR loop$1[rsp]
	mov	rdx, QWORD PTR [rax]
	mov	rcx, QWORD PTR event$[rsp]
	call	memcpy

; 154  : 				memset (loop->address, 0, sizeof(pri_event_t));

	mov	r8d, 176				; 000000b0H
	xor	edx, edx
	mov	rax, QWORD PTR loop$1[rsp]
	mov	rcx, QWORD PTR [rax]
	call	memset

; 155  : 				loop->message_pending = false;

	mov	rax, QWORD PTR loop$1[rsp]
	mov	BYTE PTR [rax+10], 0
$LN1@pri_get_me:

; 156  : 			}
; 157  : 			memset (loop->address, 0, sizeof(pri_event_t));

	mov	r8d, 176				; 000000b0H
	xor	edx, edx
	mov	rax, QWORD PTR loop$1[rsp]
	mov	rcx, QWORD PTR [rax]
	call	memset

; 158  : 			break;

	jmp	SHORT $LN3@pri_get_me
$LN2@pri_get_me:

; 159  : 		}
; 160  : 	}

	jmp	$LN4@pri_get_me
$LN3@pri_get_me:

; 161  : 
; 162  : 	return;
; 163  : }

	add	rsp, 56					; 00000038H
	ret	0
?pri_get_message@@YAXPEAU_pri_event_@@@Z ENDP		; pri_get_message
_TEXT	ENDS
; Function compile flags: /Odtpy
; File e:\xeneva project\xeneva\aurora\aurora\ipc\pri_loop.cpp
_TEXT	SEGMENT
loop$ = 32
?pri_loop_create@@YAXXZ PROC				; pri_loop_create

; 52   : void pri_loop_create () {

$LN5:
	sub	rsp, 56					; 00000038H

; 53   : 	pri_loop_box_t *loop = (pri_loop_box_t*)malloc(sizeof(pri_loop_box_t));

	mov	ecx, 32					; 00000020H
	call	malloc
	mov	QWORD PTR loop$[rsp], rax

; 54   : 	loop->address = (void*)p2v((size_t)AuPmmngrAlloc());//malloc(sizeof(pri_event_t));

	call	AuPmmngrAlloc
	mov	rcx, rax
	call	p2v
	mov	rcx, QWORD PTR loop$[rsp]
	mov	QWORD PTR [rcx], rax

; 55   : 	memset(loop->address,0, 4096);

	mov	r8d, 4096				; 00001000H
	xor	edx, edx
	mov	rax, QWORD PTR loop$[rsp]
	mov	rcx, QWORD PTR [rax]
	call	memset

; 56   : 	loop->owner_id = get_current_thread()->id;

	call	get_current_thread
	mov	rcx, QWORD PTR loop$[rsp]
	movzx	eax, WORD PTR [rax+242]
	mov	WORD PTR [rcx+8], ax

; 57   : 	loop->message_pending = 0;

	mov	rax, QWORD PTR loop$[rsp]
	mov	BYTE PTR [rax+10], 0

; 58   : 	loop->next = NULL;

	mov	rax, QWORD PTR loop$[rsp]
	mov	QWORD PTR [rax+16], 0

; 59   : 	loop->prev = NULL;

	mov	rax, QWORD PTR loop$[rsp]
	mov	QWORD PTR [rax+24], 0

; 60   : 
; 61   : 	if (first_loop == NULL)  {

	cmp	QWORD PTR ?first_loop@@3PEAU_pri_loop_box_@@EA, 0 ; first_loop
	jne	SHORT $LN2@pri_loop_c

; 62   : 		first_loop = loop;

	mov	rax, QWORD PTR loop$[rsp]
	mov	QWORD PTR ?first_loop@@3PEAU_pri_loop_box_@@EA, rax ; first_loop

; 63   : 		last_loop = loop;

	mov	rax, QWORD PTR loop$[rsp]
	mov	QWORD PTR ?last_loop@@3PEAU_pri_loop_box_@@EA, rax ; last_loop

; 64   : 	} else {

	jmp	SHORT $LN1@pri_loop_c
$LN2@pri_loop_c:

; 65   : 		last_loop->next = loop;

	mov	rax, QWORD PTR ?last_loop@@3PEAU_pri_loop_box_@@EA ; last_loop
	mov	rcx, QWORD PTR loop$[rsp]
	mov	QWORD PTR [rax+16], rcx

; 66   : 		loop->prev = last_loop;

	mov	rax, QWORD PTR loop$[rsp]
	mov	rcx, QWORD PTR ?last_loop@@3PEAU_pri_loop_box_@@EA ; last_loop
	mov	QWORD PTR [rax+24], rcx

; 67   : 		last_loop = loop;

	mov	rax, QWORD PTR loop$[rsp]
	mov	QWORD PTR ?last_loop@@3PEAU_pri_loop_box_@@EA, rax ; last_loop
$LN1@pri_loop_c:

; 68   : 	}
; 69   : }

	add	rsp, 56					; 00000038H
	ret	0
?pri_loop_create@@YAXXZ ENDP				; pri_loop_create
_TEXT	ENDS
; Function compile flags: /Odtpy
; File e:\xeneva project\xeneva\aurora\aurora\ipc\pri_loop.cpp
_TEXT	SEGMENT
loop$1 = 32
id$ = 64
?pri_loop_destroy_by_id@@YAXG@Z PROC			; pri_loop_destroy_by_id

; 100  : void pri_loop_destroy_by_id (uint16_t id) {

$LN7:
	mov	WORD PTR [rsp+8], cx
	sub	rsp, 56					; 00000038H

; 101  : 	for (pri_loop_box_t *loop = first_loop; loop != NULL; loop = loop->next) {

	mov	rax, QWORD PTR ?first_loop@@3PEAU_pri_loop_box_@@EA ; first_loop
	mov	QWORD PTR loop$1[rsp], rax
	jmp	SHORT $LN4@pri_loop_d
$LN3@pri_loop_d:
	mov	rax, QWORD PTR loop$1[rsp]
	mov	rax, QWORD PTR [rax+16]
	mov	QWORD PTR loop$1[rsp], rax
$LN4@pri_loop_d:
	cmp	QWORD PTR loop$1[rsp], 0
	je	SHORT $LN2@pri_loop_d

; 102  : 		if (loop->owner_id == id) {

	mov	rax, QWORD PTR loop$1[rsp]
	movzx	eax, WORD PTR [rax+8]
	movzx	ecx, WORD PTR id$[rsp]
	cmp	eax, ecx
	jne	SHORT $LN1@pri_loop_d

; 103  : 			pri_loop_destroy (loop);

	mov	rcx, QWORD PTR loop$1[rsp]
	call	?pri_loop_destroy@@YAXPEAU_pri_loop_box_@@@Z ; pri_loop_destroy

; 104  : 			break;

	jmp	SHORT $LN2@pri_loop_d
$LN1@pri_loop_d:

; 105  : 		}
; 106  : 	}

	jmp	SHORT $LN3@pri_loop_d
$LN2@pri_loop_d:

; 107  : 
; 108  : 	return;
; 109  : }

	add	rsp, 56					; 00000038H
	ret	0
?pri_loop_destroy_by_id@@YAXG@Z ENDP			; pri_loop_destroy_by_id
_TEXT	ENDS
; Function compile flags: /Odtpy
; File e:\xeneva project\xeneva\aurora\aurora\ipc\pri_loop.cpp
_TEXT	SEGMENT
box$ = 48
?pri_loop_destroy@@YAXPEAU_pri_loop_box_@@@Z PROC	; pri_loop_destroy

; 75   : void pri_loop_destroy (pri_loop_box_t *box) {

$LN8:
	mov	QWORD PTR [rsp+8], rcx
	sub	rsp, 40					; 00000028H

; 76   : 	if (first_loop == NULL)

	cmp	QWORD PTR ?first_loop@@3PEAU_pri_loop_box_@@EA, 0 ; first_loop
	jne	SHORT $LN5@pri_loop_d

; 77   : 		return;

	jmp	$LN6@pri_loop_d
$LN5@pri_loop_d:

; 78   : 
; 79   : 	if (box == first_loop) {

	mov	rax, QWORD PTR ?first_loop@@3PEAU_pri_loop_box_@@EA ; first_loop
	cmp	QWORD PTR box$[rsp], rax
	jne	SHORT $LN4@pri_loop_d

; 80   : 		first_loop = first_loop->next;

	mov	rax, QWORD PTR ?first_loop@@3PEAU_pri_loop_box_@@EA ; first_loop
	mov	rax, QWORD PTR [rax+16]
	mov	QWORD PTR ?first_loop@@3PEAU_pri_loop_box_@@EA, rax ; first_loop

; 81   : 	} else {

	jmp	SHORT $LN3@pri_loop_d
$LN4@pri_loop_d:

; 82   : 		box->prev->next = box->next;

	mov	rax, QWORD PTR box$[rsp]
	mov	rax, QWORD PTR [rax+24]
	mov	rcx, QWORD PTR box$[rsp]
	mov	rcx, QWORD PTR [rcx+16]
	mov	QWORD PTR [rax+16], rcx
$LN3@pri_loop_d:

; 83   : 	}
; 84   : 
; 85   : 	if (box == last_loop) {

	mov	rax, QWORD PTR ?last_loop@@3PEAU_pri_loop_box_@@EA ; last_loop
	cmp	QWORD PTR box$[rsp], rax
	jne	SHORT $LN2@pri_loop_d

; 86   : 		last_loop = box->prev;

	mov	rax, QWORD PTR box$[rsp]
	mov	rax, QWORD PTR [rax+24]
	mov	QWORD PTR ?last_loop@@3PEAU_pri_loop_box_@@EA, rax ; last_loop

; 87   : 	} else {

	jmp	SHORT $LN1@pri_loop_d
$LN2@pri_loop_d:

; 88   : 		box->next->prev = box->prev;

	mov	rax, QWORD PTR box$[rsp]
	mov	rax, QWORD PTR [rax+16]
	mov	rcx, QWORD PTR box$[rsp]
	mov	rcx, QWORD PTR [rcx+24]
	mov	QWORD PTR [rax+24], rcx
$LN1@pri_loop_d:

; 89   : 	}
; 90   : 
; 91   : 	AuPmmngrFree((void*)v2p((size_t)box->address));

	mov	rax, QWORD PTR box$[rsp]
	mov	rcx, QWORD PTR [rax]
	call	v2p
	mov	rcx, rax
	call	AuPmmngrFree

; 92   : 	//AuPmmngrFree(box);
; 93   : 	free(box);

	mov	rcx, QWORD PTR box$[rsp]
	call	free
$LN6@pri_loop_d:

; 94   : }

	add	rsp, 40					; 00000028H
	ret	0
?pri_loop_destroy@@YAXPEAU_pri_loop_box_@@@Z ENDP	; pri_loop_destroy
_TEXT	ENDS
; Function compile flags: /Odtpy
; File e:\xeneva project\xeneva\aurora\aurora\ipc\pri_loop.cpp
_TEXT	SEGMENT
owner_id$ = 32
loop$1 = 40
thread$ = 48
event$ = 80
?pri_put_message@@YAXPEAU_pri_event_@@@Z PROC		; pri_put_message

; 115  : void pri_put_message (pri_event_t *event) {

$LN10:
	mov	QWORD PTR [rsp+8], rcx
	sub	rsp, 72					; 00000048H

; 116  : 	x64_cli();

	call	x64_cli

; 117  : 
; 118  : 	uint16_t owner_id = event->to_id;

	mov	rax, QWORD PTR event$[rsp]
	movzx	eax, BYTE PTR [rax+1]
	mov	WORD PTR owner_id$[rsp], ax

; 119  : 	for (pri_loop_box_t *loop = first_loop; loop != NULL; loop = loop->next) {

	mov	rax, QWORD PTR ?first_loop@@3PEAU_pri_loop_box_@@EA ; first_loop
	mov	QWORD PTR loop$1[rsp], rax
	jmp	SHORT $LN7@pri_put_me
$LN6@pri_put_me:
	mov	rax, QWORD PTR loop$1[rsp]
	mov	rax, QWORD PTR [rax+16]
	mov	QWORD PTR loop$1[rsp], rax
$LN7@pri_put_me:
	cmp	QWORD PTR loop$1[rsp], 0
	je	SHORT $LN5@pri_put_me

; 120  : 		if (loop->owner_id == owner_id) {

	mov	rax, QWORD PTR loop$1[rsp]
	movzx	eax, WORD PTR [rax+8]
	movzx	ecx, WORD PTR owner_id$[rsp]
	cmp	eax, ecx
	jne	SHORT $LN4@pri_put_me

; 121  : 			if (loop->message_pending)

	mov	rax, QWORD PTR loop$1[rsp]
	movzx	eax, BYTE PTR [rax+10]
	test	eax, eax
	je	SHORT $LN3@pri_put_me

; 122  : 				break;

	jmp	SHORT $LN5@pri_put_me
$LN3@pri_put_me:

; 123  : 			memcpy (loop->address, event, sizeof(pri_event_t));

	mov	r8d, 176				; 000000b0H
	mov	rdx, QWORD PTR event$[rsp]
	mov	rax, QWORD PTR loop$1[rsp]
	mov	rcx, QWORD PTR [rax]
	call	memcpy

; 124  : 			loop->message_pending = 1;

	mov	rax, QWORD PTR loop$1[rsp]
	mov	BYTE PTR [rax+10], 1

; 125  : 			break;

	jmp	SHORT $LN5@pri_put_me
$LN4@pri_put_me:

; 126  : 		}
; 127  : 	}

	jmp	SHORT $LN6@pri_put_me
$LN5@pri_put_me:

; 128  : 
; 129  : 	//! check if the destination thread is blocked or not
; 130  : 	//! if blocked, wake it up, cause new message is pending
; 131  : 	thread_t *thread = thread_iterate_ready_list(owner_id);	

	movzx	ecx, WORD PTR owner_id$[rsp]
	call	?thread_iterate_ready_list@@YAPEAU_thread_@@G@Z ; thread_iterate_ready_list
	mov	QWORD PTR thread$[rsp], rax

; 132  : 	if (thread == NULL) 

	cmp	QWORD PTR thread$[rsp], 0
	jne	SHORT $LN2@pri_put_me

; 133  : 		thread = thread_iterate_block_list(owner_id);

	movzx	eax, WORD PTR owner_id$[rsp]
	mov	ecx, eax
	call	?thread_iterate_block_list@@YAPEAU_thread_@@H@Z ; thread_iterate_block_list
	mov	QWORD PTR thread$[rsp], rax
$LN2@pri_put_me:

; 134  : 	if (thread != NULL && thread->state == THREAD_STATE_BLOCKED) {

	cmp	QWORD PTR thread$[rsp], 0
	je	SHORT $LN1@pri_put_me
	mov	rax, QWORD PTR thread$[rsp]
	movzx	eax, BYTE PTR [rax+240]
	cmp	eax, 3
	jne	SHORT $LN1@pri_put_me

; 135  : 		unblock_thread(thread);

	mov	rcx, QWORD PTR thread$[rsp]
	call	unblock_thread
$LN1@pri_put_me:
$ret$11:

; 136  : 	}
; 137  : ret:
; 138  : 
; 139  : 	return;
; 140  : }

	add	rsp, 72					; 00000048H
	ret	0
?pri_put_message@@YAXPEAU_pri_event_@@@Z ENDP		; pri_put_message
_TEXT	ENDS
; Function compile flags: /Odtpy
; File e:\xeneva project\xeneva\aurora\aurora\ipc\pri_loop.cpp
_TEXT	SEGMENT
node$ = 32
?pri_loop_init@@YAXXZ PROC				; pri_loop_init

; 208  : void pri_loop_init () {

$LN3:
	sub	rsp, 56					; 00000038H

; 209  : 	vfs_node_t *node = (vfs_node_t*)malloc(sizeof(vfs_node_t));

	mov	ecx, 112				; 00000070H
	call	malloc
	mov	QWORD PTR node$[rsp], rax

; 210  : 	strcpy (node->filename, "pri_loop");

	mov	rax, QWORD PTR node$[rsp]
	lea	rdx, OFFSET FLAT:$SG3627
	mov	rcx, rax
	call	strcpy

; 211  : 	node->size = 0;

	mov	rax, QWORD PTR node$[rsp]
	mov	DWORD PTR [rax+32], 0

; 212  : 	node->eof = 0;

	mov	rax, QWORD PTR node$[rsp]
	mov	BYTE PTR [rax+36], 0

; 213  : 	node->pos = 0;

	mov	rax, QWORD PTR node$[rsp]
	mov	DWORD PTR [rax+40], 0

; 214  : 	node->current = 0;

	mov	rax, QWORD PTR node$[rsp]
	mov	DWORD PTR [rax+44], 0

; 215  : 	node->flags = FS_FLAG_GENERAL | FS_FLAG_DEVICE;

	mov	rax, QWORD PTR node$[rsp]
	mov	BYTE PTR [rax+48], 12

; 216  : 	node->status = 0;

	mov	rax, QWORD PTR node$[rsp]
	mov	BYTE PTR [rax+49], 0

; 217  : 	node->open = 0;

	mov	rax, QWORD PTR node$[rsp]
	mov	QWORD PTR [rax+64], 0

; 218  : 	node->read = 0;

	mov	rax, QWORD PTR node$[rsp]
	mov	QWORD PTR [rax+72], 0

; 219  : 	node->write = 0;

	mov	rax, QWORD PTR node$[rsp]
	mov	QWORD PTR [rax+80], 0

; 220  : 	node->read_blk = 0;

	mov	rax, QWORD PTR node$[rsp]
	mov	QWORD PTR [rax+96], 0

; 221  : 	node->ioquery = pri_loop_ioquery;

	mov	rax, QWORD PTR node$[rsp]
	lea	rcx, OFFSET FLAT:?pri_loop_ioquery@@YAHPEAU_vfs_node_@@HPEAX@Z ; pri_loop_ioquery
	mov	QWORD PTR [rax+104], rcx

; 222  : 	vfs_mount ("/dev/pri_loop", node, 0);

	xor	r8d, r8d
	mov	rdx, QWORD PTR node$[rsp]
	lea	rcx, OFFSET FLAT:$SG3628
	call	vfs_mount

; 223  : }

	add	rsp, 56					; 00000038H
	ret	0
?pri_loop_init@@YAXXZ ENDP				; pri_loop_init
_TEXT	ENDS
END
