; Listing generated by Microsoft (R) Optimizing Compiler Version 17.00.50727.1 

include listing.inc

INCLUDELIB LIBCMT
INCLUDELIB OLDNAMES

PUBLIC	?process_head@@3PEAU_process_@@EA		; process_head
PUBLIC	?process_last@@3PEAU_process_@@EA		; process_last
_BSS	SEGMENT
?process_head@@3PEAU_process_@@EA DQ 01H DUP (?)	; process_head
?process_last@@3PEAU_process_@@EA DQ 01H DUP (?)	; process_last
pid	DD	01H DUP (?)
_BSS	ENDS
CONST	SEGMENT
$SG4098	DB	'/dev/stdin', 00H
	ORG $+5
$SG4100	DB	'/dev/stdout', 00H
	ORG $+4
$SG4102	DB	'/dev/stderr', 00H
	ORG $+4
$SG4111	DB	'Process addr -> %x', 0aH, 00H
	ORG $+4
$SG4116	DB	'Executable image not found', 0aH, 00H
	ORG $+4
$SG4149	DB	'xnclib.dll', 00H
	ORG $+5
$SG4161	DB	'xnacrl.dll', 00H
	ORG $+5
$SG4173	DB	'xewid.dll', 00H
	ORG $+6
$SG4192	DB	'PROCESS CR3 -> %x ', 0dH, 0aH, 00H
	ORG $+3
$SG4218	DB	'Used Pmmngr -> %d MB / Total -> %d MB ', 0dH, 0aH, 00H
	ORG $+3
$SG4284	DB	'child', 00H
	ORG $+6
$SG4318	DB	'Linking Libraries -> %x ', 0dH, 0aH, 00H
	ORG $+5
$SG4327	DB	'Libraries linked ', 0dH, 0aH, 00H
CONST	ENDS
PUBLIC	?create_user_stack@@YAPEA_KPEAU_process_@@PEA_K@Z ; create_user_stack
PUBLIC	?create_inc_stack@@YAPEA_KPEA_K@Z		; create_inc_stack
PUBLIC	?AuCreateProcess@@YAHPEBDPEAD@Z			; AuCreateProcess
PUBLIC	?kill_process@@YAXXZ				; kill_process
PUBLIC	?kill_process_by_id@@YAXG@Z			; kill_process_by_id
PUBLIC	?get_num_process@@YAIXZ				; get_num_process
PUBLIC	?get_current_process@@YAPEAU_process_@@XZ	; get_current_process
PUBLIC	?find_process_by_id@@YAPEAU_process_@@I@Z	; find_process_by_id
PUBLIC	?find_process_by_thread@@YAPEAU_process_@@PEAU_thread_@@@Z ; find_process_by_thread
PUBLIC	?process_heap_break@@YAPEAX_K@Z			; process_heap_break
PUBLIC	?process_link_libraries@@YAXXZ			; process_link_libraries
PUBLIC	?process_list_initialize@@YAXXZ			; process_list_initialize
PUBLIC	?add_process@@YAXPEAU_process_@@@Z		; add_process
PUBLIC	?remove_process@@YAXPEAU_process_@@@Z		; remove_process
PUBLIC	?allocate_fd@@YAXPEAU_thread_@@@Z		; allocate_fd
PUBLIC	??$raw_offset@PEAU_IMAGE_NT_HEADERS_PE32PLUS@@PEAU_IMAGE_DOS_HEADER_@@@@YAPEAU_IMAGE_NT_HEADERS_PE32PLUS@@PEAU_IMAGE_DOS_HEADER_@@H@Z ; raw_offset<_IMAGE_NT_HEADERS_PE32PLUS * __ptr64,_IMAGE_DOS_HEADER_ * __ptr64>
PUBLIC	?fork@@YAIXZ					; fork
PUBLIC	?exec@@YAXPEBDI@Z				; exec
EXTRN	memset:PROC
EXTRN	memcpy:PROC
EXTRN	?initialize_list@@YAPEAU_list_@@XZ:PROC		; initialize_list
EXTRN	?vfs_finddir@@YAPEAU_vfs_node_@@PEAD@Z:PROC	; vfs_finddir
EXTRN	AuPmmngrAlloc:PROC
EXTRN	AuPmmngrFree:PROC
EXTRN	?pmmngr_get_used_ram@@YA_KXZ:PROC		; pmmngr_get_used_ram
EXTRN	?pmmngr_get_total_ram@@YA_KXZ:PROC		; pmmngr_get_total_ram
EXTRN	p2v:PROC
EXTRN	v2p:PROC
EXTRN	x64_cli:PROC
EXTRN	x64_read_cr3:PROC
EXTRN	x64_write_cr3:PROC
EXTRN	AuMapPage:PROC
EXTRN	?AuMapPageEx@@YA_NPEA_K_K1E@Z:PROC		; AuMapPageEx
EXTRN	?AuUnmapPageEx@@YAXPEA_K_K_N@Z:PROC		; AuUnmapPageEx
EXTRN	AuUnmapPage:PROC
EXTRN	?AuCreateAddressSpace@@YAPEA_KXZ:PROC		; AuCreateAddressSpace
EXTRN	AuGetFreePage:PROC
EXTRN	malloc:PROC
EXTRN	free:PROC
EXTRN	?create_user_thread@@YAPEAU_thread_@@P6AXPEAX@Z_K2QEADE@Z:PROC ; create_user_thread
EXTRN	?unblock_thread@@YAXPEAU_thread_@@@Z:PROC	; unblock_thread
EXTRN	get_current_thread:PROC
EXTRN	?thread_iterate_ready_list@@YAPEAU_thread_@@G@Z:PROC ; thread_iterate_ready_list
EXTRN	?thread_iterate_block_list@@YAPEAU_thread_@@H@Z:PROC ; thread_iterate_block_list
EXTRN	?task_delete@@YAXPEAU_thread_@@@Z:PROC		; task_delete
EXTRN	printf:PROC
EXTRN	?AuPeLinkLibraryEx@@YAXPEAX0@Z:PROC		; AuPeLinkLibraryEx
EXTRN	?AuInsertVMArea@@YAXPEAU_process_@@PEAU_vma_area_@@@Z:PROC ; AuInsertVMArea
EXTRN	?destroy_timer@@YAXH@Z:PROC			; destroy_timer
EXTRN	?find_timer_id@@YAHG@Z:PROC			; find_timer_id
EXTRN	?fat32_open@@YAPEAU_vfs_node_@@PEAU1@PEAD@Z:PROC ; fat32_open
EXTRN	?fat32_read@@YAXPEAU_vfs_node_@@PEA_K@Z:PROC	; fat32_read
EXTRN	?AuGetSysLib@@YAPEAU_libentry_@@PEAD@Z:PROC	; AuGetSysLib
EXTRN	_debug_print_:PROC
EXTRN	?pri_loop_destroy_by_id@@YAXG@Z:PROC		; pri_loop_destroy_by_id
EXTRN	?free_kstack@@YAXPEA_K@Z:PROC			; free_kstack
pdata	SEGMENT
$pdata$?create_user_stack@@YAPEA_KPEAU_process_@@PEA_K@Z DD imagerel $LN6
	DD	imagerel $LN6+281
	DD	imagerel $unwind$?create_user_stack@@YAPEA_KPEAU_process_@@PEA_K@Z
$pdata$?create_inc_stack@@YAPEA_KPEA_K@Z DD imagerel $LN6
	DD	imagerel $LN6+128
	DD	imagerel $unwind$?create_inc_stack@@YAPEA_KPEA_K@Z
$pdata$?AuCreateProcess@@YAHPEBDPEAD@Z DD imagerel $LN18
	DD	imagerel $LN18+1623
	DD	imagerel $unwind$?AuCreateProcess@@YAHPEBDPEAD@Z
$pdata$?kill_process@@YAXXZ DD imagerel $LN13
	DD	imagerel $LN13+593
	DD	imagerel $unwind$?kill_process@@YAXXZ
$pdata$?kill_process_by_id@@YAXG@Z DD imagerel $LN11
	DD	imagerel $LN11+400
	DD	imagerel $unwind$?kill_process_by_id@@YAXG@Z
$pdata$?get_num_process@@YAIXZ DD imagerel $LN6
	DD	imagerel $LN6+65
	DD	imagerel $unwind$?get_num_process@@YAIXZ
$pdata$?get_current_process@@YAPEAU_process_@@XZ DD imagerel $LN3
	DD	imagerel $LN3+39
	DD	imagerel $unwind$?get_current_process@@YAPEAU_process_@@XZ
$pdata$?find_process_by_id@@YAPEAU_process_@@I@Z DD imagerel $LN7
	DD	imagerel $LN7+67
	DD	imagerel $unwind$?find_process_by_id@@YAPEAU_process_@@I@Z
$pdata$?find_process_by_thread@@YAPEAU_process_@@PEAU_thread_@@@Z DD imagerel $LN7
	DD	imagerel $LN7+69
	DD	imagerel $unwind$?find_process_by_thread@@YAPEAU_process_@@PEAU_thread_@@@Z
$pdata$?process_heap_break@@YAPEAX_K@Z DD imagerel $LN7
	DD	imagerel $LN7+184
	DD	imagerel $unwind$?process_heap_break@@YAPEAX_K@Z
$pdata$?process_link_libraries@@YAXXZ DD imagerel $LN3
	DD	imagerel $LN3+147
	DD	imagerel $unwind$?process_link_libraries@@YAXXZ
$pdata$?remove_process@@YAXPEAU_process_@@@Z DD imagerel $LN8
	DD	imagerel $LN8+163
	DD	imagerel $unwind$?remove_process@@YAXPEAU_process_@@@Z
$pdata$?allocate_fd@@YAXPEAU_thread_@@@Z DD imagerel $LN3
	DD	imagerel $LN3+227
	DD	imagerel $unwind$?allocate_fd@@YAXPEAU_thread_@@@Z
$pdata$?fork@@YAIXZ DD imagerel $LN6
	DD	imagerel $LN6+210
	DD	imagerel $unwind$?fork@@YAIXZ
$pdata$?exec@@YAXPEBDI@Z DD imagerel $LN3
	DD	imagerel $LN3+377
	DD	imagerel $unwind$?exec@@YAXPEBDI@Z
pdata	ENDS
xdata	SEGMENT
$unwind$?create_user_stack@@YAPEA_KPEAU_process_@@PEA_K@Z DD 010e01H
	DD	0a20eH
$unwind$?create_inc_stack@@YAPEA_KPEA_K@Z DD 010901H
	DD	08209H
$unwind$?AuCreateProcess@@YAHPEBDPEAD@Z DD 021101H
	DD	0230111H
$unwind$?kill_process@@YAXXZ DD 020701H
	DD	0110107H
$unwind$?kill_process_by_id@@YAXG@Z DD 010901H
	DD	0e209H
$unwind$?get_num_process@@YAIXZ DD 010401H
	DD	02204H
$unwind$?get_current_process@@YAPEAU_process_@@XZ DD 010401H
	DD	06204H
$unwind$?find_process_by_id@@YAPEAU_process_@@I@Z DD 010801H
	DD	02208H
$unwind$?find_process_by_thread@@YAPEAU_process_@@PEAU_thread_@@@Z DD 010901H
	DD	02209H
$unwind$?process_heap_break@@YAPEAX_K@Z DD 010901H
	DD	0a209H
$unwind$?process_link_libraries@@YAXXZ DD 010401H
	DD	06204H
$unwind$?remove_process@@YAXPEAU_process_@@@Z DD 010901H
	DD	04209H
$unwind$?allocate_fd@@YAXPEAU_thread_@@@Z DD 010901H
	DD	08209H
$unwind$?fork@@YAIXZ DD 010401H
	DD	0a204H
$unwind$?exec@@YAXPEBDI@Z DD 021001H
	DD	0130110H
xdata	ENDS
; Function compile flags: /Odtpy
; File e:\xeneva project\xeneva\aurora\aurora\proc.cpp
_TEXT	SEGMENT
child_proc$ = 48
new_cr3$ = 56
nt$ = 64
c_cr3$ = 72
dos$ = 80
buffer$ = 88
_image_base_$ = 96
ent$ = 104
stack$ = 112
p_cr3$ = 120
position$ = 128
t$ = 136
filename$ = 160
pid$ = 168
?exec@@YAXPEBDI@Z PROC					; exec

; 400  : void exec (const char* filename, uint32_t pid) {

$LN3:
	mov	DWORD PTR [rsp+16], edx
	mov	QWORD PTR [rsp+8], rcx
	sub	rsp, 152				; 00000098H

; 401  : 	process_t *child_proc = find_process_by_id (pid);

	mov	ecx, DWORD PTR pid$[rsp]
	call	?find_process_by_id@@YAPEAU_process_@@I@Z ; find_process_by_id
	mov	QWORD PTR child_proc$[rsp], rax

; 402  : 	uint64_t p_cr3 = x64_read_cr3();

	call	x64_read_cr3
	mov	QWORD PTR p_cr3$[rsp], rax

; 403  : 
; 404  : 	//!Clear up the child address space
; 405  : 	uint64_t c_cr3 = (uint64_t)child_proc->cr3;

	mov	rax, QWORD PTR child_proc$[rsp]
	mov	rax, QWORD PTR [rax+40]
	mov	QWORD PTR c_cr3$[rsp], rax

; 406  : 	memset((void*)c_cr3, 0, 4096);

	mov	r8d, 4096				; 00001000H
	xor	edx, edx
	mov	rcx, QWORD PTR c_cr3$[rsp]
	call	memset

; 407  : 	/*FILE f = open (filename);
; 408  : 	if (f.status == FILE_FLAG_INVALID)
; 409  : 		return;*/
; 410  : 	unsigned char* buffer = (unsigned char*)AuPmmngrAlloc();

	call	AuPmmngrAlloc
	mov	QWORD PTR buffer$[rsp], rax

; 411  : /*	read_blk (&f, buffer, f.id);
; 412  : */
; 413  : 	//! Create new mappings for exec
; 414  : 	uint64_t* new_cr3 = AuCreateAddressSpace();

	call	?AuCreateAddressSpace@@YAPEA_KXZ	; AuCreateAddressSpace
	mov	QWORD PTR new_cr3$[rsp], rax

; 415  : 	//! copy the new mappings to child_cr3
; 416  : 	memcpy ((void*)c_cr3, new_cr3, 4096);

	mov	r8d, 4096				; 00001000H
	mov	rdx, QWORD PTR new_cr3$[rsp]
	mov	rcx, QWORD PTR c_cr3$[rsp]
	call	memcpy

; 417  : 	//! deallocate the new mappings
; 418  : 	memset((void*)new_cr3, 0, 4096);

	mov	r8d, 4096				; 00001000H
	xor	edx, edx
	mov	rcx, QWORD PTR new_cr3$[rsp]
	call	memset

; 419  : 	AuPmmngrFree(new_cr3);

	mov	rcx, QWORD PTR new_cr3$[rsp]
	call	AuPmmngrFree

; 420  : 
; 421  : 
; 422  : 	//!After reading we can change cr3
; 423  :     x64_write_cr3((size_t)c_cr3);

	mov	rcx, QWORD PTR c_cr3$[rsp]
	call	x64_write_cr3

; 424  : 
; 425  : 	//!create the stack
; 426  : 	uint64_t stack = (uint64_t)create_user_stack(child_proc,child_proc->cr3);

	mov	rax, QWORD PTR child_proc$[rsp]
	mov	rdx, QWORD PTR [rax+40]
	mov	rcx, QWORD PTR child_proc$[rsp]
	call	?create_user_stack@@YAPEA_KPEAU_process_@@PEA_K@Z ; create_user_stack
	mov	QWORD PTR stack$[rsp], rax

; 427  : 	child_proc->stack = stack;

	mov	rax, QWORD PTR child_proc$[rsp]
	mov	rcx, QWORD PTR stack$[rsp]
	mov	QWORD PTR [rax+56], rcx

; 428  : 
; 429  : 	IMAGE_DOS_HEADER* dos = (IMAGE_DOS_HEADER*)buffer;

	mov	rax, QWORD PTR buffer$[rsp]
	mov	QWORD PTR dos$[rsp], rax

; 430  : 	PIMAGE_NT_HEADERS nt = raw_offset<PIMAGE_NT_HEADERS>(dos, dos->e_lfanew);

	mov	rax, QWORD PTR dos$[rsp]
	movzx	eax, WORD PTR [rax+60]
	mov	edx, eax
	mov	rcx, QWORD PTR dos$[rsp]
	call	??$raw_offset@PEAU_IMAGE_NT_HEADERS_PE32PLUS@@PEAU_IMAGE_DOS_HEADER_@@@@YAPEAU_IMAGE_NT_HEADERS_PE32PLUS@@PEAU_IMAGE_DOS_HEADER_@@H@Z ; raw_offset<_IMAGE_NT_HEADERS_PE32PLUS * __ptr64,_IMAGE_DOS_HEADER_ * __ptr64>
	mov	QWORD PTR nt$[rsp], rax

; 431  : 	
; 432  : 	//!extract the informations
; 433  :     //load_pe_file(buffer,f.size);
; 434  : 	uint64_t _image_base_ = nt->OptionalHeader.ImageBase;

	mov	rax, QWORD PTR nt$[rsp]
	mov	rax, QWORD PTR [rax+48]
	mov	QWORD PTR _image_base_$[rsp], rax

; 435  : 	ientry ent = (ientry)(nt->OptionalHeader.AddressOfEntryPoint + nt->OptionalHeader.ImageBase); //buffer

	mov	rax, QWORD PTR nt$[rsp]
	mov	eax, DWORD PTR [rax+40]
	mov	rcx, QWORD PTR nt$[rsp]
	add	rax, QWORD PTR [rcx+48]
	mov	QWORD PTR ent$[rsp], rax

; 436  : 
; 437  : 	AuMapPage((uint64_t)buffer,_image_base_, PAGING_USER);

	mov	r8b, 4
	mov	rdx, QWORD PTR _image_base_$[rsp]
	mov	rcx, QWORD PTR buffer$[rsp]
	call	AuMapPage

; 438  : 	int position = 1;  //we already read 4096 bytes at first

	mov	DWORD PTR position$[rsp], 1

; 439  : 	//while(f.eof != 1){
; 440  : 	//	unsigned char* block = (unsigned char*)pmmngr_alloc();
; 441  : 	//	//read_blk(&f,block, f.id);
; 442  : 	//	map_page((uint64_t)block,_image_base_ + position * 4096);
; 443  : 	//	position++;
; 444  : 	//}
; 445  : 
; 446  : 	child_proc->entry_point = ent;

	mov	rax, QWORD PTR child_proc$[rsp]
	mov	rcx, QWORD PTR ent$[rsp]
	mov	QWORD PTR [rax+16], rcx

; 447  : 	x64_write_cr3(p_cr3);

	mov	rcx, QWORD PTR p_cr3$[rsp]
	call	x64_write_cr3

; 448  : 
; 449  : 
; 450  : 	thread_t *t = create_user_thread(child_proc->entry_point,child_proc->stack,(uint64_t)child_proc->cr3,"child",1);

	mov	BYTE PTR [rsp+32], 1
	lea	r9, OFFSET FLAT:$SG4284
	mov	rax, QWORD PTR child_proc$[rsp]
	mov	r8, QWORD PTR [rax+40]
	mov	rax, QWORD PTR child_proc$[rsp]
	mov	rdx, QWORD PTR [rax+56]
	mov	rax, QWORD PTR child_proc$[rsp]
	mov	rcx, QWORD PTR [rax+16]
	call	?create_user_thread@@YAPEAU_thread_@@P6AXPEAX@Z_K2QEADE@Z ; create_user_thread
	mov	QWORD PTR t$[rsp], rax

; 451  : }

	add	rsp, 152				; 00000098H
	ret	0
?exec@@YAXPEBDI@Z ENDP					; exec
_TEXT	ENDS
; Function compile flags: /Odtpy
; File e:\xeneva project\xeneva\aurora\aurora\proc.cpp
_TEXT	SEGMENT
i$1 = 32
child_process$ = 40
parent$ = 48
child_cr3$ = 56
p_thread$ = 64
parent_cr3$ = 72
?fork@@YAIXZ PROC					; fork

; 379  : uint32_t fork () {

$LN6:
	sub	rsp, 88					; 00000058H

; 380  : 	process_t *child_process = (process_t*)AuPmmngrAlloc();

	call	AuPmmngrAlloc
	mov	QWORD PTR child_process$[rsp], rax

; 381  : 	
; 382  : 	thread_t * p_thread = get_current_thread();

	call	get_current_thread
	mov	QWORD PTR p_thread$[rsp], rax

; 383  : 	process_t *parent = find_process_by_thread (p_thread);

	mov	rcx, QWORD PTR p_thread$[rsp]
	call	?find_process_by_thread@@YAPEAU_process_@@PEAU_thread_@@@Z ; find_process_by_thread
	mov	QWORD PTR parent$[rsp], rax

; 384  : 
; 385  : 	uint64_t *child_cr3 = (uint64_t*)AuPmmngrAlloc(); //create_user_address_space();

	call	AuPmmngrAlloc
	mov	QWORD PTR child_cr3$[rsp], rax

; 386  : 	uint64_t *parent_cr3 = parent->cr3;

	mov	rax, QWORD PTR parent$[rsp]
	mov	rax, QWORD PTR [rax+40]
	mov	QWORD PTR parent_cr3$[rsp], rax

; 387  : 
; 388  : 	for (int i = 0; i < 512; i++)

	mov	DWORD PTR i$1[rsp], 0
	jmp	SHORT $LN3@fork
$LN2@fork:
	mov	eax, DWORD PTR i$1[rsp]
	inc	eax
	mov	DWORD PTR i$1[rsp], eax
$LN3@fork:
	cmp	DWORD PTR i$1[rsp], 512			; 00000200H
	jge	SHORT $LN1@fork

; 389  : 		child_cr3[i] = parent_cr3[i];

	movsxd	rax, DWORD PTR i$1[rsp]
	movsxd	rcx, DWORD PTR i$1[rsp]
	mov	rdx, QWORD PTR child_cr3$[rsp]
	mov	r8, QWORD PTR parent_cr3$[rsp]
	mov	rax, QWORD PTR [r8+rax*8]
	mov	QWORD PTR [rdx+rcx*8], rax
	jmp	SHORT $LN2@fork
$LN1@fork:

; 390  : 
; 391  : 	memcpy (child_process, parent,sizeof(process_t));

	mov	r8d, 136				; 00000088H
	mov	rdx, QWORD PTR parent$[rsp]
	mov	rcx, QWORD PTR child_process$[rsp]
	call	memcpy

; 392  : 	child_process->pid_t = pid;

	mov	rax, QWORD PTR child_process$[rsp]
	mov	ecx, DWORD PTR pid
	mov	DWORD PTR [rax], ecx

; 393  : 	child_process->cr3 = child_cr3; //parent->cr3;

	mov	rax, QWORD PTR child_process$[rsp]
	mov	rcx, QWORD PTR child_cr3$[rsp]
	mov	QWORD PTR [rax+40], rcx

; 394  : 	child_process->parent = parent;

	mov	rax, QWORD PTR child_process$[rsp]
	mov	rcx, QWORD PTR parent$[rsp]
	mov	QWORD PTR [rax+128], rcx

; 395  : 	add_process (child_process);

	mov	rcx, QWORD PTR child_process$[rsp]
	call	?add_process@@YAXPEAU_process_@@@Z	; add_process

; 396  : 	return child_process->pid_t;

	mov	rax, QWORD PTR child_process$[rsp]
	mov	eax, DWORD PTR [rax]

; 397  : }

	add	rsp, 88					; 00000058H
	ret	0
?fork@@YAIXZ ENDP					; fork
_TEXT	ENDS
; Function compile flags: /Odtpy
; File e:\xeneva project\xeneva\aurora\include\stdint.h
;	COMDAT ??$raw_offset@PEAU_IMAGE_NT_HEADERS_PE32PLUS@@PEAU_IMAGE_DOS_HEADER_@@@@YAPEAU_IMAGE_NT_HEADERS_PE32PLUS@@PEAU_IMAGE_DOS_HEADER_@@H@Z
_TEXT	SEGMENT
p1$ = 8
offset$ = 16
??$raw_offset@PEAU_IMAGE_NT_HEADERS_PE32PLUS@@PEAU_IMAGE_DOS_HEADER_@@@@YAPEAU_IMAGE_NT_HEADERS_PE32PLUS@@PEAU_IMAGE_DOS_HEADER_@@H@Z PROC ; raw_offset<_IMAGE_NT_HEADERS_PE32PLUS * __ptr64,_IMAGE_DOS_HEADER_ * __ptr64>, COMDAT

; 183  : 	{

	mov	DWORD PTR [rsp+16], edx
	mov	QWORD PTR [rsp+8], rcx

; 184  : 		return (T) ((size_t)p1 + offset);

	movsxd	rax, DWORD PTR offset$[rsp]
	mov	rcx, QWORD PTR p1$[rsp]
	add	rcx, rax
	mov	rax, rcx

; 185  : 	};

	ret	0
??$raw_offset@PEAU_IMAGE_NT_HEADERS_PE32PLUS@@PEAU_IMAGE_DOS_HEADER_@@@@YAPEAU_IMAGE_NT_HEADERS_PE32PLUS@@PEAU_IMAGE_DOS_HEADER_@@H@Z ENDP ; raw_offset<_IMAGE_NT_HEADERS_PE32PLUS * __ptr64,_IMAGE_DOS_HEADER_ * __ptr64>
_TEXT	ENDS
; Function compile flags: /Odtpy
; File e:\xeneva project\xeneva\aurora\aurora\proc.cpp
_TEXT	SEGMENT
stdin$ = 32
stdout$ = 40
stderr$ = 48
t$ = 80
?allocate_fd@@YAXPEAU_thread_@@@Z PROC			; allocate_fd

; 138  : void allocate_fd (thread_t *t) {

$LN3:
	mov	QWORD PTR [rsp+8], rcx
	sub	rsp, 72					; 00000048H

; 139  : 	vfs_node_t * stdin = vfs_finddir("/dev/stdin");

	lea	rcx, OFFSET FLAT:$SG4098
	call	?vfs_finddir@@YAPEAU_vfs_node_@@PEAD@Z	; vfs_finddir
	mov	QWORD PTR stdin$[rsp], rax

; 140  : 	t->fd[t->fd_current] = stdin;

	mov	rax, QWORD PTR t$[rsp]
	movsxd	rax, DWORD PTR [rax+752]
	mov	rcx, QWORD PTR t$[rsp]
	mov	rdx, QWORD PTR stdin$[rsp]
	mov	QWORD PTR [rcx+rax*8+272], rdx

; 141  : 	t->fd_current++;

	mov	rax, QWORD PTR t$[rsp]
	mov	eax, DWORD PTR [rax+752]
	inc	eax
	mov	rcx, QWORD PTR t$[rsp]
	mov	DWORD PTR [rcx+752], eax

; 142  : 	vfs_node_t* stdout = vfs_finddir("/dev/stdout");

	lea	rcx, OFFSET FLAT:$SG4100
	call	?vfs_finddir@@YAPEAU_vfs_node_@@PEAD@Z	; vfs_finddir
	mov	QWORD PTR stdout$[rsp], rax

; 143  : 	t->fd[t->fd_current] = stdout;

	mov	rax, QWORD PTR t$[rsp]
	movsxd	rax, DWORD PTR [rax+752]
	mov	rcx, QWORD PTR t$[rsp]
	mov	rdx, QWORD PTR stdout$[rsp]
	mov	QWORD PTR [rcx+rax*8+272], rdx

; 144  : 	t->fd_current++;

	mov	rax, QWORD PTR t$[rsp]
	mov	eax, DWORD PTR [rax+752]
	inc	eax
	mov	rcx, QWORD PTR t$[rsp]
	mov	DWORD PTR [rcx+752], eax

; 145  : 	vfs_node_t* stderr = vfs_finddir("/dev/stderr");

	lea	rcx, OFFSET FLAT:$SG4102
	call	?vfs_finddir@@YAPEAU_vfs_node_@@PEAD@Z	; vfs_finddir
	mov	QWORD PTR stderr$[rsp], rax

; 146  : 	t->fd[t->fd_current] = stderr;

	mov	rax, QWORD PTR t$[rsp]
	movsxd	rax, DWORD PTR [rax+752]
	mov	rcx, QWORD PTR t$[rsp]
	mov	rdx, QWORD PTR stderr$[rsp]
	mov	QWORD PTR [rcx+rax*8+272], rdx

; 147  : 	t->fd_current++;

	mov	rax, QWORD PTR t$[rsp]
	mov	eax, DWORD PTR [rax+752]
	inc	eax
	mov	rcx, QWORD PTR t$[rsp]
	mov	DWORD PTR [rcx+752], eax

; 148  : 
; 149  : }

	add	rsp, 72					; 00000048H
	ret	0
?allocate_fd@@YAXPEAU_thread_@@@Z ENDP			; allocate_fd
_TEXT	ENDS
; Function compile flags: /Odtpy
; File e:\xeneva project\xeneva\aurora\aurora\proc.cpp
_TEXT	SEGMENT
proc$ = 48
?remove_process@@YAXPEAU_process_@@@Z PROC		; remove_process

; 51   : void remove_process (process_t *proc) {

$LN8:
	mov	QWORD PTR [rsp+8], rcx
	sub	rsp, 40					; 00000028H

; 52   : 	
; 53   : 	if (process_head == NULL)

	cmp	QWORD PTR ?process_head@@3PEAU_process_@@EA, 0 ; process_head
	jne	SHORT $LN5@remove_pro

; 54   : 		return;

	jmp	$LN6@remove_pro
$LN5@remove_pro:

; 55   : 
; 56   : 	if (proc == process_head) {

	mov	rax, QWORD PTR ?process_head@@3PEAU_process_@@EA ; process_head
	cmp	QWORD PTR proc$[rsp], rax
	jne	SHORT $LN4@remove_pro

; 57   : 		process_head = process_head->next;

	mov	rax, QWORD PTR ?process_head@@3PEAU_process_@@EA ; process_head
	mov	rax, QWORD PTR [rax+112]
	mov	QWORD PTR ?process_head@@3PEAU_process_@@EA, rax ; process_head

; 58   : 	} else {

	jmp	SHORT $LN3@remove_pro
$LN4@remove_pro:

; 59   : 		proc->prev->next = proc->next;

	mov	rax, QWORD PTR proc$[rsp]
	mov	rax, QWORD PTR [rax+120]
	mov	rcx, QWORD PTR proc$[rsp]
	mov	rcx, QWORD PTR [rcx+112]
	mov	QWORD PTR [rax+112], rcx
$LN3@remove_pro:

; 60   : 	}
; 61   : 
; 62   : 	if (proc == process_last) {

	mov	rax, QWORD PTR ?process_last@@3PEAU_process_@@EA ; process_last
	cmp	QWORD PTR proc$[rsp], rax
	jne	SHORT $LN2@remove_pro

; 63   : 		process_last = proc->prev;

	mov	rax, QWORD PTR proc$[rsp]
	mov	rax, QWORD PTR [rax+120]
	mov	QWORD PTR ?process_last@@3PEAU_process_@@EA, rax ; process_last

; 64   : 	} else {

	jmp	SHORT $LN1@remove_pro
$LN2@remove_pro:

; 65   : 		proc->next->prev = proc->prev;

	mov	rax, QWORD PTR proc$[rsp]
	mov	rax, QWORD PTR [rax+112]
	mov	rcx, QWORD PTR proc$[rsp]
	mov	rcx, QWORD PTR [rcx+120]
	mov	QWORD PTR [rax+120], rcx
$LN1@remove_pro:

; 66   : 	}
; 67   : 	pid--;

	mov	eax, DWORD PTR pid
	dec	eax
	mov	DWORD PTR pid, eax

; 68   : 	AuPmmngrFree(proc);

	mov	rcx, QWORD PTR proc$[rsp]
	call	AuPmmngrFree
$LN6@remove_pro:

; 69   : }

	add	rsp, 40					; 00000028H
	ret	0
?remove_process@@YAXPEAU_process_@@@Z ENDP		; remove_process
_TEXT	ENDS
; Function compile flags: /Odtpy
; File e:\xeneva project\xeneva\aurora\aurora\proc.cpp
_TEXT	SEGMENT
proc$ = 8
?add_process@@YAXPEAU_process_@@@Z PROC			; add_process

; 30   : void add_process (process_t *proc) {

	mov	QWORD PTR [rsp+8], rcx

; 31   : 	//mutex_lock (add_mutex);
; 32   : 	proc->next = NULL;

	mov	rax, QWORD PTR proc$[rsp]
	mov	QWORD PTR [rax+112], 0

; 33   : 	proc->prev = NULL;

	mov	rax, QWORD PTR proc$[rsp]
	mov	QWORD PTR [rax+120], 0

; 34   : 
; 35   : 	if (process_head == NULL) {

	cmp	QWORD PTR ?process_head@@3PEAU_process_@@EA, 0 ; process_head
	jne	SHORT $LN2@add_proces

; 36   : 		process_head = proc;

	mov	rax, QWORD PTR proc$[rsp]
	mov	QWORD PTR ?process_head@@3PEAU_process_@@EA, rax ; process_head

; 37   : 		process_last = proc;

	mov	rax, QWORD PTR proc$[rsp]
	mov	QWORD PTR ?process_last@@3PEAU_process_@@EA, rax ; process_last

; 38   : 	} else {

	jmp	SHORT $LN1@add_proces
$LN2@add_proces:

; 39   : 		process_last->next = proc;

	mov	rax, QWORD PTR ?process_last@@3PEAU_process_@@EA ; process_last
	mov	rcx, QWORD PTR proc$[rsp]
	mov	QWORD PTR [rax+112], rcx

; 40   : 		proc->prev = process_last;

	mov	rax, QWORD PTR proc$[rsp]
	mov	rcx, QWORD PTR ?process_last@@3PEAU_process_@@EA ; process_last
	mov	QWORD PTR [rax+120], rcx

; 41   : 		process_last = proc;

	mov	rax, QWORD PTR proc$[rsp]
	mov	QWORD PTR ?process_last@@3PEAU_process_@@EA, rax ; process_last
$LN1@add_proces:

; 42   : 	}
; 43   : 	pid++;

	mov	eax, DWORD PTR pid
	inc	eax
	mov	DWORD PTR pid, eax

; 44   : 	//mutex_unlock (add_mutex);
; 45   : }

	ret	0
?add_process@@YAXPEAU_process_@@@Z ENDP			; add_process
_TEXT	ENDS
; Function compile flags: /Odtpy
; File e:\xeneva project\xeneva\aurora\aurora\proc.cpp
_TEXT	SEGMENT
?process_list_initialize@@YAXXZ PROC			; process_list_initialize

; 471  : 	pid = 0;

	mov	DWORD PTR pid, 0

; 472  : 	process_head = NULL;

	mov	QWORD PTR ?process_head@@3PEAU_process_@@EA, 0 ; process_head

; 473  : 	process_last = NULL;

	mov	QWORD PTR ?process_last@@3PEAU_process_@@EA, 0 ; process_last

; 474  : }

	ret	0
?process_list_initialize@@YAXXZ ENDP			; process_list_initialize
_TEXT	ENDS
; Function compile flags: /Odtpy
; File e:\xeneva project\xeneva\aurora\aurora\proc.cpp
_TEXT	SEGMENT
proc$ = 32
?process_link_libraries@@YAXXZ PROC			; process_link_libraries

; 500  : void process_link_libraries () {

$LN3:
	sub	rsp, 56					; 00000038H

; 501  : 	x64_cli();

	call	x64_cli

; 502  : 
; 503  : 	process_t *proc = get_current_process();

	call	?get_current_process@@YAPEAU_process_@@XZ ; get_current_process
	mov	QWORD PTR proc$[rsp], rax

; 504  : 	printf ("Linking Libraries -> %x \r\n", proc->image_base);

	mov	rax, QWORD PTR proc$[rsp]
	mov	rdx, QWORD PTR [rax+48]
	lea	rcx, OFFSET FLAT:$SG4318
	call	printf

; 505  : 
; 506  : 	AuPeLinkLibraryEx((void*)0x0000000100400000,(void*)0x0000000100000000);

	mov	rdx, 4294967296				; 0000000100000000H
	mov	rcx, 4299161600				; 0000000100400000H
	call	?AuPeLinkLibraryEx@@YAXPEAX0@Z		; AuPeLinkLibraryEx

; 507  :     AuPeLinkLibraryEx((void*)0x0000000100200000,(void*)0x0000000100000000);

	mov	rdx, 4294967296				; 0000000100000000H
	mov	rcx, 4297064448				; 0000000100200000H
	call	?AuPeLinkLibraryEx@@YAXPEAX0@Z		; AuPeLinkLibraryEx

; 508  : 
; 509  : 	AuPeLinkLibraryEx((void*)0x0000000000600000,(void*)0x0000000100000000);  //

	mov	rdx, 4294967296				; 0000000100000000H
	mov	ecx, 6291456				; 00600000H
	call	?AuPeLinkLibraryEx@@YAXPEAX0@Z		; AuPeLinkLibraryEx

; 510  : 	AuPeLinkLibraryEx((void*)0x0000000100000000,(void*)0x0000000000600000); //

	mov	edx, 6291456				; 00600000H
	mov	rcx, 4294967296				; 0000000100000000H
	call	?AuPeLinkLibraryEx@@YAXPEAX0@Z		; AuPeLinkLibraryEx

; 511  : 	
; 512  : 	//AuPeLinkLibraryEx((void*)0x0000000000600000,(void*)0x0000000100400000);
; 513  : 	///* Link the CLIB to every DLL */
; 514  : 	
; 515  : 
; 516  : 	
; 517  :     //AuPeLinkLibraryEx((void*)0x0000000000600000,(void*)0x0000000100200000);
; 518  : 	
; 519  : 	
; 520  : 	_debug_print_ ("Libraries linked \r\n");

	lea	rcx, OFFSET FLAT:$SG4327
	call	_debug_print_

; 521  : }

	add	rsp, 56					; 00000038H
	ret	0
?process_link_libraries@@YAXXZ ENDP			; process_link_libraries
_TEXT	ENDS
; Function compile flags: /Odtpy
; File e:\xeneva project\xeneva\aurora\aurora\proc.cpp
_TEXT	SEGMENT
i$ = 32
proc$ = 40
first_page$ = 48
page$1 = 56
p$2 = 64
pages$ = 96
?process_heap_break@@YAPEAX_K@Z PROC			; process_heap_break

; 481  : void* process_heap_break (uint64_t pages) {

$LN7:
	mov	QWORD PTR [rsp+8], rcx
	sub	rsp, 88					; 00000058H

; 482  : 	x64_cli();

	call	x64_cli

; 483  : 	process_t *proc = get_current_process();

	call	?get_current_process@@YAPEAU_process_@@XZ ; get_current_process
	mov	QWORD PTR proc$[rsp], rax

; 484  : 	int i = 0;

	mov	DWORD PTR i$[rsp], 0

; 485  : 	uint64_t first_page = 0;

	mov	QWORD PTR first_page$[rsp], 0

; 486  : 	for (i = 0; i < pages; i++) {

	mov	DWORD PTR i$[rsp], 0
	jmp	SHORT $LN4@process_he
$LN3@process_he:
	mov	eax, DWORD PTR i$[rsp]
	inc	eax
	mov	DWORD PTR i$[rsp], eax
$LN4@process_he:
	movsxd	rax, DWORD PTR i$[rsp]
	cmp	rax, QWORD PTR pages$[rsp]
	jae	SHORT $LN2@process_he

; 487  : 		uint64_t page = (uint64_t)AuGetFreePage(0,true,(void*)proc->_image_heap_break_);

	mov	rax, QWORD PTR proc$[rsp]
	mov	r8, QWORD PTR [rax+64]
	mov	dl, 1
	xor	ecx, ecx
	call	AuGetFreePage
	mov	QWORD PTR page$1[rsp], rax

; 488  : 		if (first_page == 0)

	cmp	QWORD PTR first_page$[rsp], 0
	jne	SHORT $LN1@process_he

; 489  : 			first_page = page;

	mov	rax, QWORD PTR page$1[rsp]
	mov	QWORD PTR first_page$[rsp], rax
$LN1@process_he:

; 490  : 		uint64_t p = (uint64_t)AuPmmngrAlloc();

	call	AuPmmngrAlloc
	mov	QWORD PTR p$2[rsp], rax

; 491  : 		AuMapPage((uint64_t)p, page, PAGING_USER);

	mov	r8b, 4
	mov	rdx, QWORD PTR page$1[rsp]
	mov	rcx, QWORD PTR p$2[rsp]
	call	AuMapPage

; 492  : 	}

	jmp	SHORT $LN3@process_he
$LN2@process_he:

; 493  : 	proc->_heap_size_ += pages * 4096;

	mov	rax, QWORD PTR pages$[rsp]
	imul	rax, 4096				; 00001000H
	mov	rcx, QWORD PTR proc$[rsp]
	add	rax, QWORD PTR [rcx+72]
	mov	rcx, QWORD PTR proc$[rsp]
	mov	QWORD PTR [rcx+72], rax

; 494  : 	return (void*)first_page;

	mov	rax, QWORD PTR first_page$[rsp]

; 495  : }

	add	rsp, 88					; 00000058H
	ret	0
?process_heap_break@@YAPEAX_K@Z ENDP			; process_heap_break
_TEXT	ENDS
; Function compile flags: /Odtpy
; File e:\xeneva project\xeneva\aurora\aurora\proc.cpp
_TEXT	SEGMENT
proc$1 = 0
thread$ = 32
?find_process_by_thread@@YAPEAU_process_@@PEAU_thread_@@@Z PROC ; find_process_by_thread

; 76   : process_t *find_process_by_thread (thread_t *thread) {

$LN7:
	mov	QWORD PTR [rsp+8], rcx
	sub	rsp, 24

; 77   : 	for (process_t *proc = process_head; proc != NULL; proc = proc->next) {

	mov	rax, QWORD PTR ?process_head@@3PEAU_process_@@EA ; process_head
	mov	QWORD PTR proc$1[rsp], rax
	jmp	SHORT $LN4@find_proce
$LN3@find_proce:
	mov	rax, QWORD PTR proc$1[rsp]
	mov	rax, QWORD PTR [rax+112]
	mov	QWORD PTR proc$1[rsp], rax
$LN4@find_proce:
	cmp	QWORD PTR proc$1[rsp], 0
	je	SHORT $LN2@find_proce

; 78   : 		if (proc->thread_data_pointer == thread) {

	mov	rax, QWORD PTR proc$1[rsp]
	mov	rcx, QWORD PTR thread$[rsp]
	cmp	QWORD PTR [rax+24], rcx
	jne	SHORT $LN1@find_proce

; 79   : 			return proc;

	mov	rax, QWORD PTR proc$1[rsp]
	jmp	SHORT $LN5@find_proce
$LN1@find_proce:

; 80   : 		}
; 81   : 	}

	jmp	SHORT $LN3@find_proce
$LN2@find_proce:
$LN5@find_proce:

; 82   : }

	add	rsp, 24
	ret	0
?find_process_by_thread@@YAPEAU_process_@@PEAU_thread_@@@Z ENDP ; find_process_by_thread
_TEXT	ENDS
; Function compile flags: /Odtpy
; File e:\xeneva project\xeneva\aurora\aurora\proc.cpp
_TEXT	SEGMENT
proc$1 = 0
pid$ = 32
?find_process_by_id@@YAPEAU_process_@@I@Z PROC		; find_process_by_id

; 88   : process_t *find_process_by_id (uint32_t pid) {

$LN7:
	mov	DWORD PTR [rsp+8], ecx
	sub	rsp, 24

; 89   : 	for (process_t *proc = process_head; proc != NULL; proc = proc->next) {

	mov	rax, QWORD PTR ?process_head@@3PEAU_process_@@EA ; process_head
	mov	QWORD PTR proc$1[rsp], rax
	jmp	SHORT $LN4@find_proce
$LN3@find_proce:
	mov	rax, QWORD PTR proc$1[rsp]
	mov	rax, QWORD PTR [rax+112]
	mov	QWORD PTR proc$1[rsp], rax
$LN4@find_proce:
	cmp	QWORD PTR proc$1[rsp], 0
	je	SHORT $LN2@find_proce

; 90   : 		if (proc->pid_t == pid) {

	mov	rax, QWORD PTR proc$1[rsp]
	mov	ecx, DWORD PTR pid$[rsp]
	cmp	DWORD PTR [rax], ecx
	jne	SHORT $LN1@find_proce

; 91   : 			return proc;

	mov	rax, QWORD PTR proc$1[rsp]
	jmp	SHORT $LN5@find_proce
$LN1@find_proce:

; 92   : 		}
; 93   : 	}

	jmp	SHORT $LN3@find_proce
$LN2@find_proce:

; 94   : 	return NULL;

	xor	eax, eax
$LN5@find_proce:

; 95   : }

	add	rsp, 24
	ret	0
?find_process_by_id@@YAPEAU_process_@@I@Z ENDP		; find_process_by_id
_TEXT	ENDS
; Function compile flags: /Odtpy
; File e:\xeneva project\xeneva\aurora\aurora\proc.cpp
_TEXT	SEGMENT
p_thread$ = 32
c_proc$ = 40
?get_current_process@@YAPEAU_process_@@XZ PROC		; get_current_process

; 464  : process_t * get_current_process () {

$LN3:
	sub	rsp, 56					; 00000038H

; 465  : 	thread_t * p_thread = get_current_thread();

	call	get_current_thread
	mov	QWORD PTR p_thread$[rsp], rax

; 466  : 	process_t *c_proc = find_process_by_thread (p_thread);

	mov	rcx, QWORD PTR p_thread$[rsp]
	call	?find_process_by_thread@@YAPEAU_process_@@PEAU_thread_@@@Z ; find_process_by_thread
	mov	QWORD PTR c_proc$[rsp], rax

; 467  : 	return c_proc;

	mov	rax, QWORD PTR c_proc$[rsp]

; 468  : }

	add	rsp, 56					; 00000038H
	ret	0
?get_current_process@@YAPEAU_process_@@XZ ENDP		; get_current_process
_TEXT	ENDS
; Function compile flags: /Odtpy
; File e:\xeneva project\xeneva\aurora\aurora\proc.cpp
_TEXT	SEGMENT
num_process$ = 0
current_proc$1 = 8
?get_num_process@@YAIXZ PROC				; get_num_process

; 455  : uint32_t get_num_process () {

$LN6:
	sub	rsp, 24

; 456  : 	uint32_t num_process = 0;

	mov	DWORD PTR num_process$[rsp], 0

; 457  : 	for (process_t * current_proc = process_head; current_proc != NULL; current_proc = current_proc->next) {

	mov	rax, QWORD PTR ?process_head@@3PEAU_process_@@EA ; process_head
	mov	QWORD PTR current_proc$1[rsp], rax
	jmp	SHORT $LN3@get_num_pr
$LN2@get_num_pr:
	mov	rax, QWORD PTR current_proc$1[rsp]
	mov	rax, QWORD PTR [rax+112]
	mov	QWORD PTR current_proc$1[rsp], rax
$LN3@get_num_pr:
	cmp	QWORD PTR current_proc$1[rsp], 0
	je	SHORT $LN1@get_num_pr

; 458  : 		num_process++;

	mov	eax, DWORD PTR num_process$[rsp]
	inc	eax
	mov	DWORD PTR num_process$[rsp], eax

; 459  : 	}

	jmp	SHORT $LN2@get_num_pr
$LN1@get_num_pr:

; 460  : 	return num_process;

	mov	eax, DWORD PTR num_process$[rsp]

; 461  : }

	add	rsp, 24
	ret	0
?get_num_process@@YAIXZ ENDP				; get_num_process
_TEXT	ENDS
; Function compile flags: /Odtpy
; File e:\xeneva project\xeneva\aurora\aurora\proc.cpp
_TEXT	SEGMENT
was_blocked$ = 32
i$1 = 36
i$2 = 40
remove_thread$ = 48
proc$ = 56
cr3$ = 64
tv93 = 72
init_stack$ = 80
image_base$ = 88
image_size$ = 96
virtual_addr$3 = 104
id$ = 128
?kill_process_by_id@@YAXG@Z PROC			; kill_process_by_id

; 335  : void kill_process_by_id (uint16_t id) {

$LN11:
	mov	WORD PTR [rsp+8], cx
	sub	rsp, 120				; 00000078H

; 336  : 	x64_cli();

	call	x64_cli

; 337  : 	bool was_blocked = false;

	mov	BYTE PTR was_blocked$[rsp], 0

; 338  : 	thread_t * remove_thread = thread_iterate_ready_list(id);

	movzx	ecx, WORD PTR id$[rsp]
	call	?thread_iterate_ready_list@@YAPEAU_thread_@@G@Z ; thread_iterate_ready_list
	mov	QWORD PTR remove_thread$[rsp], rax

; 339  : 	if (remove_thread == NULL) {

	cmp	QWORD PTR remove_thread$[rsp], 0
	jne	SHORT $LN8@kill_proce

; 340  : 		remove_thread = (thread_t*)thread_iterate_block_list(id);

	movzx	eax, WORD PTR id$[rsp]
	mov	ecx, eax
	call	?thread_iterate_block_list@@YAPEAU_thread_@@H@Z ; thread_iterate_block_list
	mov	QWORD PTR remove_thread$[rsp], rax

; 341  : 		was_blocked = true;

	mov	BYTE PTR was_blocked$[rsp], 1
$LN8@kill_proce:

; 342  : 	}
; 343  : 	process_t *proc = find_process_by_thread (remove_thread);

	mov	rcx, QWORD PTR remove_thread$[rsp]
	call	?find_process_by_thread@@YAPEAU_process_@@PEAU_thread_@@@Z ; find_process_by_thread
	mov	QWORD PTR proc$[rsp], rax

; 344  : 
; 345  : 	uint64_t  init_stack = proc->stack - 0x100000;

	mov	rax, QWORD PTR proc$[rsp]
	mov	rax, QWORD PTR [rax+56]
	sub	rax, 1048576				; 00100000H
	mov	QWORD PTR init_stack$[rsp], rax

; 346  : 	uint64_t image_base = proc->image_base;

	mov	rax, QWORD PTR proc$[rsp]
	mov	rax, QWORD PTR [rax+48]
	mov	QWORD PTR image_base$[rsp], rax

; 347  : 	size_t image_size = proc->image_size;

	mov	rax, QWORD PTR proc$[rsp]
	mov	rax, QWORD PTR [rax+32]
	mov	QWORD PTR image_size$[rsp], rax

; 348  : 	//uint64_t heap_base = (uint64_t)proc->user_heap_start;
; 349  : 	uint64_t *cr3 = (uint64_t*)remove_thread->cr3;

	mov	rax, QWORD PTR remove_thread$[rsp]
	mov	rax, QWORD PTR [rax+192]
	mov	QWORD PTR cr3$[rsp], rax

; 350  : 
; 351  : 	if (was_blocked)

	movzx	eax, BYTE PTR was_blocked$[rsp]
	test	eax, eax
	je	SHORT $LN7@kill_proce

; 352  : 		unblock_thread(remove_thread);

	mov	rcx, QWORD PTR remove_thread$[rsp]
	call	?unblock_thread@@YAXPEAU_thread_@@@Z	; unblock_thread
$LN7@kill_proce:

; 353  : 	remove_thread->state = THREAD_STATE_BLOCKED;

	mov	rax, QWORD PTR remove_thread$[rsp]
	mov	BYTE PTR [rax+232], 3

; 354  : 	task_delete (remove_thread);

	mov	rcx, QWORD PTR remove_thread$[rsp]
	call	?task_delete@@YAXPEAU_thread_@@@Z	; task_delete

; 355  : 	AuPmmngrFree(remove_thread);

	mov	rcx, QWORD PTR remove_thread$[rsp]
	call	AuPmmngrFree

; 356  : 	remove_process (proc);

	mov	rcx, QWORD PTR proc$[rsp]
	call	?remove_process@@YAXPEAU_process_@@@Z	; remove_process

; 357  : 
; 358  : 	
; 359  : 	//!unmap the runtime stack
; 360  : 	for (int i = 0; i < 0x100000 / 4096; i++) {

	mov	DWORD PTR i$2[rsp], 0
	jmp	SHORT $LN6@kill_proce
$LN5@kill_proce:
	mov	eax, DWORD PTR i$2[rsp]
	inc	eax
	mov	DWORD PTR i$2[rsp], eax
$LN6@kill_proce:
	cmp	DWORD PTR i$2[rsp], 256			; 00000100H
	jge	SHORT $LN4@kill_proce

; 361  : 		AuUnmapPageEx(cr3,init_stack + i * 4096, true);

	mov	eax, DWORD PTR i$2[rsp]
	imul	eax, 4096				; 00001000H
	cdqe
	mov	rcx, QWORD PTR init_stack$[rsp]
	add	rcx, rax
	mov	rax, rcx
	mov	r8b, 1
	mov	rdx, rax
	mov	rcx, QWORD PTR cr3$[rsp]
	call	?AuUnmapPageEx@@YAXPEA_K_K_N@Z		; AuUnmapPageEx

; 362  : 	}

	jmp	SHORT $LN5@kill_proce
$LN4@kill_proce:

; 363  : 
; 364  : 	//!unmap the binary image
; 365  : 	for (int i = 0; i < image_size / 4096; i++) {

	mov	DWORD PTR i$1[rsp], 0
	jmp	SHORT $LN3@kill_proce
$LN2@kill_proce:
	mov	eax, DWORD PTR i$1[rsp]
	inc	eax
	mov	DWORD PTR i$1[rsp], eax
$LN3@kill_proce:
	movsxd	rax, DWORD PTR i$1[rsp]
	mov	QWORD PTR tv93[rsp], rax
	xor	edx, edx
	mov	rax, QWORD PTR image_size$[rsp]
	mov	ecx, 4096				; 00001000H
	div	rcx
	mov	rcx, QWORD PTR tv93[rsp]
	cmp	rcx, rax
	jae	SHORT $LN1@kill_proce

; 366  : 		uint64_t virtual_addr = image_base + (i * 4096);

	mov	eax, DWORD PTR i$1[rsp]
	imul	eax, 4096				; 00001000H
	cdqe
	mov	rcx, QWORD PTR image_base$[rsp]
	add	rcx, rax
	mov	rax, rcx
	mov	QWORD PTR virtual_addr$3[rsp], rax

; 367  : 		AuUnmapPageEx(cr3, virtual_addr, true);

	mov	r8b, 1
	mov	rdx, QWORD PTR virtual_addr$3[rsp]
	mov	rcx, QWORD PTR cr3$[rsp]
	call	?AuUnmapPageEx@@YAXPEA_K_K_N@Z		; AuUnmapPageEx

; 368  : 	}

	jmp	SHORT $LN2@kill_proce
$LN1@kill_proce:

; 369  : 
; 370  : 	//!unmap user heap
; 371  : 	/*for (int i = 0; i < 0xB01000 / 4096; i++) {
; 372  : 		unmap_page_ex(cr3,heap_base + i * 4096, true);
; 373  : 	}*/
; 374  : 
; 375  : 	AuPmmngrFree(cr3);

	mov	rcx, QWORD PTR cr3$[rsp]
	call	AuPmmngrFree

; 376  : }

	add	rsp, 120				; 00000078H
	ret	0
?kill_process_by_id@@YAXG@Z ENDP			; kill_process_by_id
_TEXT	ENDS
; Function compile flags: /Odtpy
; File e:\xeneva project\xeneva\aurora\aurora\proc.cpp
_TEXT	SEGMENT
i$1 = 32
i$2 = 36
i$3 = 40
t_id$ = 44
remove_thread$ = 48
proc$ = 56
timer$ = 64
cr3$ = 72
image_base$ = 80
init_stack$ = 88
tv94 = 96
tv77 = 104
tv149 = 112
?kill_process@@YAXXZ PROC				; kill_process

; 285  : void kill_process () {

$LN13:
	sub	rsp, 136				; 00000088H

; 286  : 	x64_cli();

	call	x64_cli

; 287  : 	thread_t * remove_thread = get_current_thread();

	call	get_current_thread
	mov	QWORD PTR remove_thread$[rsp], rax

; 288  : 	uint16_t t_id = remove_thread->id;

	mov	rax, QWORD PTR remove_thread$[rsp]
	movzx	eax, WORD PTR [rax+234]
	mov	WORD PTR t_id$[rsp], ax

; 289  : 	process_t *proc = get_current_process();

	call	?get_current_process@@YAPEAU_process_@@XZ ; get_current_process
	mov	QWORD PTR proc$[rsp], rax

; 290  : 	uint64_t  init_stack = proc->stack - (2*1024*1024);

	mov	rax, QWORD PTR proc$[rsp]
	mov	rax, QWORD PTR [rax+56]
	sub	rax, 2097152				; 00200000H
	mov	QWORD PTR init_stack$[rsp], rax

; 291  : 	uint64_t image_base = proc->image_base;

	mov	rax, QWORD PTR proc$[rsp]
	mov	rax, QWORD PTR [rax+48]
	mov	QWORD PTR image_base$[rsp], rax

; 292  : 	uint64_t *cr3 = (uint64_t*)remove_thread->cr3;

	mov	rax, QWORD PTR remove_thread$[rsp]
	mov	rax, QWORD PTR [rax+192]
	mov	QWORD PTR cr3$[rsp], rax

; 293  : 	
; 294  : 	int timer = find_timer_id (remove_thread->id);

	mov	rax, QWORD PTR remove_thread$[rsp]
	movzx	ecx, WORD PTR [rax+234]
	call	?find_timer_id@@YAHG@Z			; find_timer_id
	mov	DWORD PTR timer$[rsp], eax

; 295  : 
; 296  : 	/** destroy the timer */
; 297  : 	if (timer != -1) {

	cmp	DWORD PTR timer$[rsp], -1
	je	SHORT $LN10@kill_proce

; 298  : 		destroy_timer (timer);

	mov	ecx, DWORD PTR timer$[rsp]
	call	?destroy_timer@@YAXH@Z			; destroy_timer
$LN10@kill_proce:

; 299  : 	}
; 300  : 	
; 301  : 
; 302  : 	//!unmap the binary image
; 303  : 	for (uint32_t i = 0; i < proc->image_size / 4096; i++) {

	mov	DWORD PTR i$3[rsp], 0
	jmp	SHORT $LN9@kill_proce
$LN8@kill_proce:
	mov	eax, DWORD PTR i$3[rsp]
	inc	eax
	mov	DWORD PTR i$3[rsp], eax
$LN9@kill_proce:
	mov	eax, DWORD PTR i$3[rsp]
	mov	QWORD PTR tv77[rsp], rax
	xor	edx, edx
	mov	rcx, QWORD PTR proc$[rsp]
	mov	rax, QWORD PTR [rcx+32]
	mov	ecx, 4096				; 00001000H
	div	rcx
	mov	rcx, QWORD PTR tv77[rsp]
	cmp	rcx, rax
	jae	SHORT $LN7@kill_proce

; 304  : 	//	uint64_t virtual_addr = proc->image_base + (i * 4096);
; 305  : 		AuUnmapPage(image_base + i * 4096, true);

	mov	eax, DWORD PTR i$3[rsp]
	imul	eax, 4096				; 00001000H
	mov	eax, eax
	mov	rcx, QWORD PTR image_base$[rsp]
	add	rcx, rax
	mov	rax, rcx
	mov	dl, 1
	mov	rcx, rax
	call	AuUnmapPage

; 306  : 	}

	jmp	SHORT $LN8@kill_proce
$LN7@kill_proce:

; 307  : 	
; 308  : 	//!unmap the runtime stack
; 309  : 	for (int i = 0; i < (2*1024*1024) / 4096; i++) {

	mov	DWORD PTR i$1[rsp], 0
	jmp	SHORT $LN6@kill_proce
$LN5@kill_proce:
	mov	eax, DWORD PTR i$1[rsp]
	inc	eax
	mov	DWORD PTR i$1[rsp], eax
$LN6@kill_proce:
	cmp	DWORD PTR i$1[rsp], 512			; 00000200H
	jge	SHORT $LN4@kill_proce

; 310  : 		AuUnmapPage(init_stack + i * 4096, true);

	mov	eax, DWORD PTR i$1[rsp]
	imul	eax, 4096				; 00001000H
	cdqe
	mov	rcx, QWORD PTR init_stack$[rsp]
	add	rcx, rax
	mov	rax, rcx
	mov	dl, 1
	mov	rcx, rax
	call	AuUnmapPage

; 311  : 	}

	jmp	SHORT $LN5@kill_proce
$LN4@kill_proce:

; 312  : 
; 313  : 	for (int i = 0; i < proc->_heap_size_ / 4096; i++) {

	mov	DWORD PTR i$2[rsp], 0
	jmp	SHORT $LN3@kill_proce
$LN2@kill_proce:
	mov	eax, DWORD PTR i$2[rsp]
	inc	eax
	mov	DWORD PTR i$2[rsp], eax
$LN3@kill_proce:
	movsxd	rax, DWORD PTR i$2[rsp]
	mov	QWORD PTR tv94[rsp], rax
	xor	edx, edx
	mov	rcx, QWORD PTR proc$[rsp]
	mov	rax, QWORD PTR [rcx+72]
	mov	ecx, 4096				; 00001000H
	div	rcx
	mov	rcx, QWORD PTR tv94[rsp]
	cmp	rcx, rax
	jae	SHORT $LN1@kill_proce

; 314  : 		AuUnmapPage(PROCESS_HEAP_BREAK + i * 4096, true);

	mov	eax, DWORD PTR i$2[rsp]
	imul	eax, 4096				; 00001000H
	cdqe
	mov	rcx, 15032385536			; 0000000380000000H
	add	rax, rcx
	mov	dl, 1
	mov	rcx, rax
	call	AuUnmapPage

; 315  : 	}

	jmp	SHORT $LN2@kill_proce
$LN1@kill_proce:

; 316  : 	
; 317  : 	free(remove_thread->fx_state);

	mov	rax, QWORD PTR remove_thread$[rsp]
	mov	rcx, QWORD PTR [rax+208]
	call	free

; 318  : 	free(proc->process_file);

	mov	rax, QWORD PTR proc$[rsp]
	mov	rcx, QWORD PTR [rax+96]
	call	free

; 319  : 	remove_process (proc);

	mov	rcx, QWORD PTR proc$[rsp]
	call	?remove_process@@YAXPEAU_process_@@@Z	; remove_process

; 320  : 	task_delete (remove_thread);

	mov	rcx, QWORD PTR remove_thread$[rsp]
	call	?task_delete@@YAXPEAU_thread_@@@Z	; task_delete

; 321  : 	free(remove_thread);

	mov	rcx, QWORD PTR remove_thread$[rsp]
	call	free

; 322  : 	AuPmmngrFree((void*)v2p((size_t)remove_thread->msg_box));

	mov	rax, QWORD PTR remove_thread$[rsp]
	mov	rcx, QWORD PTR [rax+248]
	call	v2p
	mov	rcx, rax
	call	AuPmmngrFree

; 323  : 	pri_loop_destroy_by_id (t_id);

	movzx	ecx, WORD PTR t_id$[rsp]
	call	?pri_loop_destroy_by_id@@YAXG@Z		; pri_loop_destroy_by_id

; 324  : 
; 325  : 	_debug_print_ ("Used Pmmngr -> %d MB / Total -> %d MB \r\n", pmmngr_get_used_ram () / 1024 / 1024, pmmngr_get_total_ram() / 1024 / 1024);

	call	?pmmngr_get_total_ram@@YA_KXZ		; pmmngr_get_total_ram
	xor	edx, edx
	mov	ecx, 1024				; 00000400H
	div	rcx
	xor	edx, edx
	mov	ecx, 1024				; 00000400H
	div	rcx
	mov	QWORD PTR tv149[rsp], rax
	call	?pmmngr_get_used_ram@@YA_KXZ		; pmmngr_get_used_ram
	xor	edx, edx
	mov	ecx, 1024				; 00000400H
	div	rcx
	xor	edx, edx
	mov	ecx, 1024				; 00000400H
	div	rcx
	mov	rcx, QWORD PTR tv149[rsp]
	mov	r8, rcx
	mov	rdx, rax
	lea	rcx, OFFSET FLAT:$SG4218
	call	_debug_print_

; 326  : 
; 327  : 	free_kstack(cr3);

	mov	rcx, QWORD PTR cr3$[rsp]
	call	?free_kstack@@YAXPEA_K@Z		; free_kstack

; 328  : 	AuPmmngrFree(cr3);

	mov	rcx, QWORD PTR cr3$[rsp]
	call	AuPmmngrFree

; 329  : }

	add	rsp, 136				; 00000088H
	ret	0
?kill_process@@YAXXZ ENDP				; kill_process
_TEXT	ENDS
; Function compile flags: /Odtpy
; File e:\xeneva project\xeneva\aurora\aurora\proc.cpp
_TEXT	SEGMENT
process$ = 48
i$1 = 56
i$2 = 60
i$3 = 64
position$ = 68
cr3$ = 72
vma$ = 80
file$ = 88
_image_base_$ = 96
lib$ = 104
nt$ = 112
buf$ = 120
lib2$ = 128
block$4 = 136
phys$5 = 144
dos$ = 152
phys$6 = 160
lib3$ = 168
stack$ = 176
phys$7 = 184
ent$ = 192
fname$ = 200
tv234 = 208
tv152 = 216
text_section_start$ = 224
tv207 = 232
text_section_end$ = 240
tv180 = 248
t$ = 256
filename$ = 288
procname$ = 296
?AuCreateProcess@@YAHPEBDPEAD@Z PROC			; AuCreateProcess

; 158  : int AuCreateProcess(const char* filename, char* procname) {

$LN18:
	mov	QWORD PTR [rsp+16], rdx
	mov	QWORD PTR [rsp+8], rcx
	sub	rsp, 280				; 00000118H

; 159  : 	//!allocate a data-structure for process 
; 160  : 	process_t *process = (process_t*)malloc(sizeof(process_t)); //pmmngr_alloc();

	mov	ecx, 136				; 00000088H
	call	malloc
	mov	QWORD PTR process$[rsp], rax

; 161  : 	memset(process, 0,sizeof(process_t));

	mov	r8d, 136				; 00000088H
	xor	edx, edx
	mov	rcx, QWORD PTR process$[rsp]
	call	memset

; 162  : 	printf ("Process addr -> %x\n", process);

	mov	rdx, QWORD PTR process$[rsp]
	lea	rcx, OFFSET FLAT:$SG4111
	call	printf

; 163  : 	process->pid_t = pid;

	mov	rax, QWORD PTR process$[rsp]
	mov	ecx, DWORD PTR pid
	mov	DWORD PTR [rax], ecx

; 164  : 
; 165  : 	//!open the process file-binary
; 166  : 	char *fname = (char*)filename;

	mov	rax, QWORD PTR filename$[rsp]
	mov	QWORD PTR fname$[rsp], rax

; 167  : 
; 168  : 	//vfs_node_t file = openfs (n,fname);
; 169  : 	vfs_node_t *file = fat32_open(NULL, fname);

	mov	rdx, QWORD PTR fname$[rsp]
	xor	ecx, ecx
	call	?fat32_open@@YAPEAU_vfs_node_@@PEAU1@PEAD@Z ; fat32_open
	mov	QWORD PTR file$[rsp], rax

; 170  : 	if (file->status == FS_FLAG_INVALID) {

	mov	rax, QWORD PTR file$[rsp]
	movzx	eax, BYTE PTR [rax+49]
	cmp	eax, 3
	jne	SHORT $LN15@AuCreatePr

; 171  : 		printf("Executable image not found\n");

	lea	rcx, OFFSET FLAT:$SG4116
	call	printf

; 172  : 		return -1;

	mov	eax, -1
	jmp	$LN16@AuCreatePr
$LN15@AuCreatePr:

; 173  : 	}
; 174  : 
; 175  : 	//!open the binary file and read it
; 176  : 	uint64_t* buf = (uint64_t*)p2v((size_t)AuPmmngrAlloc());   

	call	AuPmmngrAlloc
	mov	rcx, rax
	call	p2v
	mov	QWORD PTR buf$[rsp], rax

; 177  : 	//readfs_block(n,&file,buf);
; 178  : 	
; 179  : 	fat32_read (file,(uint64_t*)v2p((size_t)buf));

	mov	rcx, QWORD PTR buf$[rsp]
	call	v2p
	mov	rdx, rax
	mov	rcx, QWORD PTR file$[rsp]
	call	?fat32_read@@YAXPEAU_vfs_node_@@PEA_K@Z	; fat32_read

; 180  : 	
; 181  : 
; 182  : 	IMAGE_DOS_HEADER* dos = (IMAGE_DOS_HEADER*)buf;

	mov	rax, QWORD PTR buf$[rsp]
	mov	QWORD PTR dos$[rsp], rax

; 183  : 	PIMAGE_NT_HEADERS nt = raw_offset<PIMAGE_NT_HEADERS>(dos, dos->e_lfanew);

	mov	rax, QWORD PTR dos$[rsp]
	movzx	eax, WORD PTR [rax+60]
	mov	edx, eax
	mov	rcx, QWORD PTR dos$[rsp]
	call	??$raw_offset@PEAU_IMAGE_NT_HEADERS_PE32PLUS@@PEAU_IMAGE_DOS_HEADER_@@@@YAPEAU_IMAGE_NT_HEADERS_PE32PLUS@@PEAU_IMAGE_DOS_HEADER_@@H@Z ; raw_offset<_IMAGE_NT_HEADERS_PE32PLUS * __ptr64,_IMAGE_DOS_HEADER_ * __ptr64>
	mov	QWORD PTR nt$[rsp], rax

; 184  : 
; 185  : 	//!extract the informations
; 186  :  
; 187  : 	uint64_t _image_base_ = nt->OptionalHeader.ImageBase;

	mov	rax, QWORD PTR nt$[rsp]
	mov	rax, QWORD PTR [rax+48]
	mov	QWORD PTR _image_base_$[rsp], rax

; 188  : 	ientry ent = (ientry)(nt->OptionalHeader.AddressOfEntryPoint + nt->OptionalHeader.ImageBase); //buffer

	mov	rax, QWORD PTR nt$[rsp]
	mov	eax, DWORD PTR [rax+40]
	mov	rcx, QWORD PTR nt$[rsp]
	add	rax, QWORD PTR [rcx+48]
	mov	QWORD PTR ent$[rsp], rax

; 189  : 
; 190  : 	//! create the user stack and address space
; 191  : 	uint64_t *cr3 = AuCreateAddressSpace();	

	call	?AuCreateAddressSpace@@YAPEA_KXZ	; AuCreateAddressSpace
	mov	QWORD PTR cr3$[rsp], rax

; 192  : 
; 193  : 	AuMapPageEx(cr3,v2p((size_t)buf),_image_base_, PAGING_USER);

	mov	rcx, QWORD PTR buf$[rsp]
	call	v2p
	mov	r9b, 4
	mov	r8, QWORD PTR _image_base_$[rsp]
	mov	rdx, rax
	mov	rcx, QWORD PTR cr3$[rsp]
	call	?AuMapPageEx@@YA_NPEA_K_K1E@Z		; AuMapPageEx

; 194  : 	////! read rest of the image
; 195  : 	int position = 1;  //we already read 4096 bytes at first

	mov	DWORD PTR position$[rsp], 1

; 196  : 
; 197  : 	uint64_t text_section_start = _image_base_;

	mov	rax, QWORD PTR _image_base_$[rsp]
	mov	QWORD PTR text_section_start$[rsp], rax
$LN14@AuCreatePr:

; 198  : 
; 199  : 
; 200  : 	while (file->eof != 1){

	mov	rax, QWORD PTR file$[rsp]
	movzx	eax, BYTE PTR [rax+36]
	cmp	eax, 1
	je	$LN13@AuCreatePr

; 201  : 		uint64_t* block = (uint64_t*)p2v((size_t)AuPmmngrAlloc());

	call	AuPmmngrAlloc
	mov	rcx, rax
	call	p2v
	mov	QWORD PTR block$4[rsp], rax

; 202  : 		
; 203  : 		fat32_read (file,(uint64_t*)v2p((size_t)block));

	mov	rcx, QWORD PTR block$4[rsp]
	call	v2p
	mov	rdx, rax
	mov	rcx, QWORD PTR file$[rsp]
	call	?fat32_read@@YAXPEAU_vfs_node_@@PEA_K@Z	; fat32_read

; 204  : 		AuMapPageEx(cr3,v2p((size_t)block),_image_base_ + position * 4096, PAGING_USER);

	mov	eax, DWORD PTR position$[rsp]
	imul	eax, 4096				; 00001000H
	cdqe
	mov	rcx, QWORD PTR _image_base_$[rsp]
	add	rcx, rax
	mov	rax, rcx
	mov	QWORD PTR tv152[rsp], rax
	mov	rcx, QWORD PTR block$4[rsp]
	call	v2p
	mov	r9b, 4
	mov	rcx, QWORD PTR tv152[rsp]
	mov	r8, rcx
	mov	rdx, rax
	mov	rcx, QWORD PTR cr3$[rsp]
	call	?AuMapPageEx@@YA_NPEA_K_K1E@Z		; AuMapPageEx

; 205  : 		position++;

	mov	eax, DWORD PTR position$[rsp]
	inc	eax
	mov	DWORD PTR position$[rsp], eax

; 206  : 	}

	jmp	$LN14@AuCreatePr
$LN13@AuCreatePr:

; 207  : 
; 208  : 	/*
; 209  : 	 * Hacky way, for now we just have two system known shared library
; 210  : 	 * the graphics library and the widget library
; 211  : 	 */
; 212  : 
; 213  : 	AuLibEntry_t *lib = AuGetSysLib("xnclib.dll");

	lea	rcx, OFFSET FLAT:$SG4149
	call	?AuGetSysLib@@YAPEAU_libentry_@@PEAD@Z	; AuGetSysLib
	mov	QWORD PTR lib$[rsp], rax

; 214  : 	if (lib != NULL)

	cmp	QWORD PTR lib$[rsp], 0
	je	$LN12@AuCreatePr

; 215  : 		for (int i = 0; i < lib->phys_blocks_count; i++) {

	mov	DWORD PTR i$3[rsp], 0
	jmp	SHORT $LN11@AuCreatePr
$LN10@AuCreatePr:
	mov	eax, DWORD PTR i$3[rsp]
	inc	eax
	mov	DWORD PTR i$3[rsp], eax
$LN11@AuCreatePr:
	mov	rax, QWORD PTR lib$[rsp]
	mov	eax, DWORD PTR [rax+88]
	cmp	DWORD PTR i$3[rsp], eax
	jge	$LN9@AuCreatePr

; 216  : 			void* phys = (void*)p2v((size_t)AuPmmngrAlloc());

	call	AuPmmngrAlloc
	mov	rcx, rax
	call	p2v
	mov	QWORD PTR phys$7[rsp], rax

; 217  : 			memcpy (phys, (void*)p2v(lib->phys_start + i * 4096), 4096);

	mov	eax, DWORD PTR i$3[rsp]
	imul	eax, 4096				; 00001000H
	cdqe
	mov	rcx, QWORD PTR lib$[rsp]
	add	rax, QWORD PTR [rcx+72]
	mov	rcx, rax
	call	p2v
	mov	r8d, 4096				; 00001000H
	mov	rdx, rax
	mov	rcx, QWORD PTR phys$7[rsp]
	call	memcpy

; 218  : 			AuMapPageEx(cr3, v2p((size_t)phys),0x100000000 + i * 4096, PAGING_USER); 

	mov	eax, DWORD PTR i$3[rsp]
	imul	eax, 4096				; 00001000H
	cdqe
	mov	rcx, 4294967296				; 0000000100000000H
	add	rax, rcx
	mov	QWORD PTR tv180[rsp], rax
	mov	rcx, QWORD PTR phys$7[rsp]
	call	v2p
	mov	r9b, 4
	mov	rcx, QWORD PTR tv180[rsp]
	mov	r8, rcx
	mov	rdx, rax
	mov	rcx, QWORD PTR cr3$[rsp]
	call	?AuMapPageEx@@YA_NPEA_K_K1E@Z		; AuMapPageEx

; 219  : 		}

	jmp	$LN10@AuCreatePr
$LN9@AuCreatePr:
$LN12@AuCreatePr:

; 220  : 
; 221  : 	AuLibEntry_t *lib3 = AuGetSysLib("xnacrl.dll");

	lea	rcx, OFFSET FLAT:$SG4161
	call	?AuGetSysLib@@YAPEAU_libentry_@@PEAD@Z	; AuGetSysLib
	mov	QWORD PTR lib3$[rsp], rax

; 222  : 	if (lib != NULL) {

	cmp	QWORD PTR lib$[rsp], 0
	je	$LN8@AuCreatePr

; 223  : 		for (int i = 0; i < lib3->phys_blocks_count; i++) {

	mov	DWORD PTR i$2[rsp], 0
	jmp	SHORT $LN7@AuCreatePr
$LN6@AuCreatePr:
	mov	eax, DWORD PTR i$2[rsp]
	inc	eax
	mov	DWORD PTR i$2[rsp], eax
$LN7@AuCreatePr:
	mov	rax, QWORD PTR lib3$[rsp]
	mov	eax, DWORD PTR [rax+88]
	cmp	DWORD PTR i$2[rsp], eax
	jge	$LN5@AuCreatePr

; 224  : 			void* phys = (void*)p2v((size_t)AuPmmngrAlloc());

	call	AuPmmngrAlloc
	mov	rcx, rax
	call	p2v
	mov	QWORD PTR phys$5[rsp], rax

; 225  : 			memcpy (phys, (void*)p2v(lib3->phys_start + i * 4096), 4096);

	mov	eax, DWORD PTR i$2[rsp]
	imul	eax, 4096				; 00001000H
	cdqe
	mov	rcx, QWORD PTR lib3$[rsp]
	add	rax, QWORD PTR [rcx+72]
	mov	rcx, rax
	call	p2v
	mov	r8d, 4096				; 00001000H
	mov	rdx, rax
	mov	rcx, QWORD PTR phys$5[rsp]
	call	memcpy

; 226  : 			AuMapPageEx(cr3, v2p((size_t)phys), 0x100400000 + i * 4096, PAGING_USER);

	mov	eax, DWORD PTR i$2[rsp]
	imul	eax, 4096				; 00001000H
	cdqe
	mov	rcx, 4299161600				; 0000000100400000H
	add	rax, rcx
	mov	QWORD PTR tv207[rsp], rax
	mov	rcx, QWORD PTR phys$5[rsp]
	call	v2p
	mov	r9b, 4
	mov	rcx, QWORD PTR tv207[rsp]
	mov	r8, rcx
	mov	rdx, rax
	mov	rcx, QWORD PTR cr3$[rsp]
	call	?AuMapPageEx@@YA_NPEA_K_K1E@Z		; AuMapPageEx

; 227  : 		}

	jmp	$LN6@AuCreatePr
$LN5@AuCreatePr:
$LN8@AuCreatePr:

; 228  : 	}
; 229  : 
; 230  : 	AuLibEntry_t *lib2 = AuGetSysLib("xewid.dll");

	lea	rcx, OFFSET FLAT:$SG4173
	call	?AuGetSysLib@@YAPEAU_libentry_@@PEAD@Z	; AuGetSysLib
	mov	QWORD PTR lib2$[rsp], rax

; 231  : 	if (lib2 != NULL)

	cmp	QWORD PTR lib2$[rsp], 0
	je	$LN4@AuCreatePr

; 232  : 		for (int i = 0; i < lib2->phys_blocks_count; i++) {

	mov	DWORD PTR i$1[rsp], 0
	jmp	SHORT $LN3@AuCreatePr
$LN2@AuCreatePr:
	mov	eax, DWORD PTR i$1[rsp]
	inc	eax
	mov	DWORD PTR i$1[rsp], eax
$LN3@AuCreatePr:
	mov	rax, QWORD PTR lib2$[rsp]
	mov	eax, DWORD PTR [rax+88]
	cmp	DWORD PTR i$1[rsp], eax
	jge	$LN1@AuCreatePr

; 233  : 			void* phys = (void*)p2v((size_t)AuPmmngrAlloc());

	call	AuPmmngrAlloc
	mov	rcx, rax
	call	p2v
	mov	QWORD PTR phys$6[rsp], rax

; 234  : 			memcpy (phys, (void*)p2v(lib2->phys_start + i * 4096), 4096);

	mov	eax, DWORD PTR i$1[rsp]
	imul	eax, 4096				; 00001000H
	cdqe
	mov	rcx, QWORD PTR lib2$[rsp]
	add	rax, QWORD PTR [rcx+72]
	mov	rcx, rax
	call	p2v
	mov	r8d, 4096				; 00001000H
	mov	rdx, rax
	mov	rcx, QWORD PTR phys$6[rsp]
	call	memcpy

; 235  : 			AuMapPageEx(cr3, v2p((size_t)phys),0x100200000 + i * 4096, PAGING_USER); 

	mov	eax, DWORD PTR i$1[rsp]
	imul	eax, 4096				; 00001000H
	cdqe
	mov	rcx, 4297064448				; 0000000100200000H
	add	rax, rcx
	mov	QWORD PTR tv234[rsp], rax
	mov	rcx, QWORD PTR phys$6[rsp]
	call	v2p
	mov	r9b, 4
	mov	rcx, QWORD PTR tv234[rsp]
	mov	r8, rcx
	mov	rdx, rax
	mov	rcx, QWORD PTR cr3$[rsp]
	call	?AuMapPageEx@@YA_NPEA_K_K1E@Z		; AuMapPageEx

; 236  : 		}

	jmp	$LN2@AuCreatePr
$LN1@AuCreatePr:
$LN4@AuCreatePr:

; 237  : 
; 238  : 	
; 239  : 
; 240  : 
; 241  : 
; 242  : 	uint64_t text_section_end = _image_base_ + position * 4096;

	mov	eax, DWORD PTR position$[rsp]
	imul	eax, 4096				; 00001000H
	cdqe
	mov	rcx, QWORD PTR _image_base_$[rsp]
	add	rcx, rax
	mov	rax, rcx
	mov	QWORD PTR text_section_end$[rsp], rax

; 243  : 	
; 244  : 	au_vm_area_t *vma = (au_vm_area_t*)malloc(sizeof(au_vm_area_t));

	mov	ecx, 72					; 00000048H
	call	malloc
	mov	QWORD PTR vma$[rsp], rax

; 245  : 	vma->start = text_section_start;

	mov	rax, QWORD PTR vma$[rsp]
	mov	rcx, QWORD PTR text_section_start$[rsp]
	mov	QWORD PTR [rax], rcx

; 246  : 	vma->end = text_section_end;

	mov	rax, QWORD PTR vma$[rsp]
	mov	rcx, QWORD PTR text_section_end$[rsp]
	mov	QWORD PTR [rax+8], rcx

; 247  : 	vma->file = NULL;

	mov	rax, QWORD PTR vma$[rsp]
	mov	QWORD PTR [rax+24], 0

; 248  : 	vma->offset = 0;

	mov	rax, QWORD PTR vma$[rsp]
	mov	QWORD PTR [rax+32], 0

; 249  : 	vma->prot_flags = VM_READ | VM_EXEC;

	mov	eax, 5
	mov	rcx, QWORD PTR vma$[rsp]
	mov	WORD PTR [rcx+16], ax

; 250  : 	vma->type = VM_TYPE_TEXT;

	mov	rax, QWORD PTR vma$[rsp]
	mov	BYTE PTR [rax+48], 1

; 251  : 	vma->length = file->size;

	mov	rax, QWORD PTR file$[rsp]
	mov	eax, DWORD PTR [rax+32]
	mov	rcx, QWORD PTR vma$[rsp]
	mov	QWORD PTR [rcx+40], rax

; 252  : 	AuInsertVMArea(process, vma);

	mov	rdx, QWORD PTR vma$[rsp]
	mov	rcx, QWORD PTR process$[rsp]
	call	?AuInsertVMArea@@YAXPEAU_process_@@PEAU_vma_area_@@@Z ; AuInsertVMArea

; 253  : 
; 254  : 	uint64_t stack = (uint64_t)create_user_stack(process,cr3);

	mov	rdx, QWORD PTR cr3$[rsp]
	mov	rcx, QWORD PTR process$[rsp]
	call	?create_user_stack@@YAPEA_KPEAU_process_@@PEA_K@Z ; create_user_stack
	mov	QWORD PTR stack$[rsp], rax

; 255  : 
; 256  : 	//!allocate current process
; 257  : 	//strcpy (process->name,procname);
; 258  : 	process->name = procname;

	mov	rax, QWORD PTR process$[rsp]
	mov	rcx, QWORD PTR procname$[rsp]
	mov	QWORD PTR [rax+8], rcx

; 259  : 	process->entry_point = ent;

	mov	rax, QWORD PTR process$[rsp]
	mov	rcx, QWORD PTR ent$[rsp]
	mov	QWORD PTR [rax+16], rcx

; 260  : 
; 261  : 	process->cr3 = cr3;

	mov	rax, QWORD PTR process$[rsp]
	mov	rcx, QWORD PTR cr3$[rsp]
	mov	QWORD PTR [rax+40], rcx

; 262  : 	process->image_base = _image_base_;

	mov	rax, QWORD PTR process$[rsp]
	mov	rcx, QWORD PTR _image_base_$[rsp]
	mov	QWORD PTR [rax+48], rcx

; 263  : 	process->stack = stack;

	mov	rax, QWORD PTR process$[rsp]
	mov	rcx, QWORD PTR stack$[rsp]
	mov	QWORD PTR [rax+56], rcx

; 264  : 	process->image_size = nt->OptionalHeader.SizeOfImage;

	mov	rax, QWORD PTR nt$[rsp]
	mov	eax, DWORD PTR [rax+80]
	mov	rcx, QWORD PTR process$[rsp]
	mov	QWORD PTR [rcx+32], rax

; 265  : 	process->parent = NULL;

	mov	rax, QWORD PTR process$[rsp]
	mov	QWORD PTR [rax+128], 0

; 266  : 	process->_image_heap_break_ = PROCESS_HEAP_BREAK;

	mov	rax, QWORD PTR process$[rsp]
	mov	rcx, 15032385536			; 0000000380000000H
	mov	QWORD PTR [rax+64], rcx

; 267  : 	process->_heap_size_ = 0;

	mov	rax, QWORD PTR process$[rsp]
	mov	QWORD PTR [rax+72], 0

; 268  : 	process->process_file = file;

	mov	rax, QWORD PTR process$[rsp]
	mov	rcx, QWORD PTR file$[rsp]
	mov	QWORD PTR [rax+96], rcx

; 269  : 	process->shared_mem_list = initialize_list();

	call	?initialize_list@@YAPEAU_list_@@XZ	; initialize_list
	mov	rcx, QWORD PTR process$[rsp]
	mov	QWORD PTR [rcx+104], rax

; 270  : 	//! Create and thread and start scheduling when scheduler starts */
; 271  : 	thread_t *t = create_user_thread(ent,stack,(uint64_t)cr3,procname,0);

	mov	BYTE PTR [rsp+32], 0
	mov	r9, QWORD PTR procname$[rsp]
	mov	r8, QWORD PTR cr3$[rsp]
	mov	rdx, QWORD PTR stack$[rsp]
	mov	rcx, QWORD PTR ent$[rsp]
	call	?create_user_thread@@YAPEAU_thread_@@P6AXPEAX@Z_K2QEADE@Z ; create_user_thread
	mov	QWORD PTR t$[rsp], rax

; 272  : 	//! add the process to process manager
; 273  : 	process->thread_data_pointer = t;

	mov	rax, QWORD PTR process$[rsp]
	mov	rcx, QWORD PTR t$[rsp]
	mov	QWORD PTR [rax+24], rcx

; 274  :     add_process(process);

	mov	rcx, QWORD PTR process$[rsp]
	call	?add_process@@YAXPEAU_process_@@@Z	; add_process

; 275  : 
; 276  : 	//free(file);
; 277  : 
; 278  : 	_debug_print_ ("PROCESS CR3 -> %x \r\n", cr3);

	mov	rdx, QWORD PTR cr3$[rsp]
	lea	rcx, OFFSET FLAT:$SG4192
	call	_debug_print_

; 279  : 	return process->pid_t;

	mov	rax, QWORD PTR process$[rsp]
	mov	eax, DWORD PTR [rax]
$LN16@AuCreatePr:

; 280  : }

	add	rsp, 280				; 00000118H
	ret	0
?AuCreateProcess@@YAHPEBDPEAD@Z ENDP			; AuCreateProcess
_TEXT	ENDS
; Function compile flags: /Odtpy
; File e:\xeneva project\xeneva\aurora\aurora\proc.cpp
_TEXT	SEGMENT
i$1 = 32
location$ = 40
tv70 = 48
cr3$ = 80
?create_inc_stack@@YAPEA_KPEA_K@Z PROC			; create_inc_stack

; 126  : uint64_t* create_inc_stack (uint64_t* cr3) {

$LN6:
	mov	QWORD PTR [rsp+8], rcx
	sub	rsp, 72					; 00000048H

; 127  : #define INC_STACK 0x0000010000000000 
; 128  : 	uint64_t location = INC_STACK ; //+ user_stack_index;

	mov	rax, 1099511627776			; 0000010000000000H
	mov	QWORD PTR location$[rsp], rax

; 129  : 
; 130  : 	for (int i = 0; i < (2*1024*1024) / 4096; i++) {

	mov	DWORD PTR i$1[rsp], 0
	jmp	SHORT $LN3@create_inc
$LN2@create_inc:
	mov	eax, DWORD PTR i$1[rsp]
	inc	eax
	mov	DWORD PTR i$1[rsp], eax
$LN3@create_inc:
	cmp	DWORD PTR i$1[rsp], 512			; 00000200H
	jge	SHORT $LN1@create_inc

; 131  : 		AuMapPageEx(cr3,(uint64_t)AuPmmngrAlloc(), location + i * 4096, PAGING_USER);

	mov	eax, DWORD PTR i$1[rsp]
	imul	eax, 4096				; 00001000H
	cdqe
	mov	rcx, QWORD PTR location$[rsp]
	add	rcx, rax
	mov	rax, rcx
	mov	QWORD PTR tv70[rsp], rax
	call	AuPmmngrAlloc
	mov	r9b, 4
	mov	rcx, QWORD PTR tv70[rsp]
	mov	r8, rcx
	mov	rdx, rax
	mov	rcx, QWORD PTR cr3$[rsp]
	call	?AuMapPageEx@@YA_NPEA_K_K1E@Z		; AuMapPageEx

; 132  : 	}

	jmp	SHORT $LN2@create_inc
$LN1@create_inc:

; 133  : 
; 134  : 	//user_stack_index += 0x100000;
; 135  : 	return (uint64_t*)(INC_STACK + (1*1024*1024));

	mov	rax, 1099512676352			; 0000010000100000H

; 136  : }

	add	rsp, 72					; 00000048H
	ret	0
?create_inc_stack@@YAPEA_KPEA_K@Z ENDP			; create_inc_stack
_TEXT	ENDS
; Function compile flags: /Odtpy
; File e:\xeneva project\xeneva\aurora\aurora\proc.cpp
_TEXT	SEGMENT
i$1 = 32
vma$ = 40
location$ = 48
block$2 = 56
tv73 = 64
proc$ = 96
cr3$ = 104
?create_user_stack@@YAPEA_KPEAU_process_@@PEA_K@Z PROC	; create_user_stack

; 101  : uint64_t *create_user_stack (process_t *proc, uint64_t* cr3) {

$LN6:
	mov	QWORD PTR [rsp+16], rdx
	mov	QWORD PTR [rsp+8], rcx
	sub	rsp, 88					; 00000058H

; 102  : #define USER_STACK  0x0000700000000000 
; 103  : 	uint64_t location = USER_STACK;

	mov	rax, 123145302310912			; 0000700000000000H
	mov	QWORD PTR location$[rsp], rax

; 104  : 	
; 105  : 	/* 2 mb stack / process */
; 106  : 	for (int i=0; i < (2*1024*1024)/4096; i++) {

	mov	DWORD PTR i$1[rsp], 0
	jmp	SHORT $LN3@create_use
$LN2@create_use:
	mov	eax, DWORD PTR i$1[rsp]
	inc	eax
	mov	DWORD PTR i$1[rsp], eax
$LN3@create_use:
	cmp	DWORD PTR i$1[rsp], 512			; 00000200H
	jge	SHORT $LN1@create_use

; 107  : 		uint64_t *block = (uint64_t*)p2v((size_t)AuPmmngrAlloc());

	call	AuPmmngrAlloc
	mov	rcx, rax
	call	p2v
	mov	QWORD PTR block$2[rsp], rax

; 108  : 		AuMapPageEx(cr3,v2p((size_t)block),location + i * 4096, PAGING_USER);

	mov	eax, DWORD PTR i$1[rsp]
	imul	eax, 4096				; 00001000H
	cdqe
	mov	rcx, QWORD PTR location$[rsp]
	add	rcx, rax
	mov	rax, rcx
	mov	QWORD PTR tv73[rsp], rax
	mov	rcx, QWORD PTR block$2[rsp]
	call	v2p
	mov	r9b, 4
	mov	rcx, QWORD PTR tv73[rsp]
	mov	r8, rcx
	mov	rdx, rax
	mov	rcx, QWORD PTR cr3$[rsp]
	call	?AuMapPageEx@@YA_NPEA_K_K1E@Z		; AuMapPageEx

; 109  : 	}

	jmp	SHORT $LN2@create_use
$LN1@create_use:

; 110  : 
; 111  : 	au_vm_area_t *vma = (au_vm_area_t*)malloc(sizeof(au_vm_area_t));

	mov	ecx, 72					; 00000048H
	call	malloc
	mov	QWORD PTR vma$[rsp], rax

; 112  : 	vma->start = location;

	mov	rax, QWORD PTR vma$[rsp]
	mov	rcx, QWORD PTR location$[rsp]
	mov	QWORD PTR [rax], rcx

; 113  : 	vma->end = (location + 2*1024*1024);

	mov	rax, QWORD PTR location$[rsp]
	add	rax, 2097152				; 00200000H
	mov	rcx, QWORD PTR vma$[rsp]
	mov	QWORD PTR [rcx+8], rax

; 114  : 	vma->file = NULL;

	mov	rax, QWORD PTR vma$[rsp]
	mov	QWORD PTR [rax+24], 0

; 115  : 	vma->offset = 0;

	mov	rax, QWORD PTR vma$[rsp]
	mov	QWORD PTR [rax+32], 0

; 116  : 	vma->prot_flags = VM_READ | VM_EXEC;

	mov	eax, 5
	mov	rcx, QWORD PTR vma$[rsp]
	mov	WORD PTR [rcx+16], ax

; 117  : 	vma->type = VM_TYPE_STACK;

	mov	rax, QWORD PTR vma$[rsp]
	mov	BYTE PTR [rax+48], 3

; 118  : 	vma->length = 2*1024*1024;

	mov	rax, QWORD PTR vma$[rsp]
	mov	QWORD PTR [rax+40], 2097152		; 00200000H

; 119  : 	AuInsertVMArea(proc, vma);

	mov	rdx, QWORD PTR vma$[rsp]
	mov	rcx, QWORD PTR proc$[rsp]
	call	?AuInsertVMArea@@YAXPEAU_process_@@PEAU_vma_area_@@@Z ; AuInsertVMArea

; 120  : 	return (uint64_t*)(USER_STACK + (2*1024*1024));

	mov	rax, 123145304408064			; 0000700000200000H

; 121  : }

	add	rsp, 88					; 00000058H
	ret	0
?create_user_stack@@YAPEA_KPEAU_process_@@PEA_K@Z ENDP	; create_user_stack
_TEXT	ENDS
END
