; Listing generated by Microsoft (R) Optimizing Compiler Version 17.00.50727.1 

include listing.inc

INCLUDELIB LIBCMT
INCLUDELIB OLDNAMES

PUBLIC	?process_head@@3PEAU_process_@@EA		; process_head
PUBLIC	?process_last@@3PEAU_process_@@EA		; process_last
_BSS	SEGMENT
?process_head@@3PEAU_process_@@EA DQ 01H DUP (?)	; process_head
?process_last@@3PEAU_process_@@EA DQ 01H DUP (?)	; process_last
pid	DD	01H DUP (?)
_BSS	ENDS
CONST	SEGMENT
$SG4140	DB	'child', 00H
	ORG $+2
$SG4002	DB	'/dev/stdin', 00H
	ORG $+5
$SG4004	DB	'/dev/stdout', 00H
	ORG $+4
$SG4006	DB	'/dev/stderr', 00H
	ORG $+4
$SG4020	DB	'Executable image not found', 0aH, 00H
	ORG $+4
$SG4074	DB	'Used Pmmngr -> %d MB / Total -> %d MB ', 0dH, 0aH, 00H
CONST	ENDS
PUBLIC	?create_user_stack@@YAPEA_KPEA_K@Z		; create_user_stack
PUBLIC	?create_inc_stack@@YAPEA_KPEA_K@Z		; create_inc_stack
PUBLIC	?AuCreateProcess@@YAHPEBDPEAD@Z			; AuCreateProcess
PUBLIC	?kill_process@@YAXXZ				; kill_process
PUBLIC	?kill_process_by_id@@YAXG@Z			; kill_process_by_id
PUBLIC	?get_num_process@@YAIXZ				; get_num_process
PUBLIC	?get_current_process@@YAPEAU_process_@@XZ	; get_current_process
PUBLIC	?find_process_by_id@@YAPEAU_process_@@I@Z	; find_process_by_id
PUBLIC	?find_process_by_thread@@YAPEAU_process_@@PEAU_thread_@@@Z ; find_process_by_thread
PUBLIC	?process_list_initialize@@YAXXZ			; process_list_initialize
PUBLIC	?add_process@@YAXPEAU_process_@@@Z		; add_process
PUBLIC	?remove_process@@YAXPEAU_process_@@@Z		; remove_process
PUBLIC	?allocate_fd@@YAXPEAU_thread_@@@Z		; allocate_fd
PUBLIC	??$raw_offset@PEAU_IMAGE_NT_HEADERS_PE32PLUS@@PEAU_IMAGE_DOS_HEADER_@@@@YAPEAU_IMAGE_NT_HEADERS_PE32PLUS@@PEAU_IMAGE_DOS_HEADER_@@H@Z ; raw_offset<_IMAGE_NT_HEADERS_PE32PLUS * __ptr64,_IMAGE_DOS_HEADER_ * __ptr64>
PUBLIC	?fork@@YAIXZ					; fork
PUBLIC	?exec@@YAXPEBDI@Z				; exec
EXTRN	memset:PROC
EXTRN	memcpy:PROC
EXTRN	?vfs_finddir@@YAPEAU_vfs_node_@@PEAD@Z:PROC	; vfs_finddir
EXTRN	AuPmmngrAlloc:PROC
EXTRN	AuPmmngrFree:PROC
EXTRN	?pmmngr_get_used_ram@@YA_KXZ:PROC		; pmmngr_get_used_ram
EXTRN	?pmmngr_get_total_ram@@YA_KXZ:PROC		; pmmngr_get_total_ram
EXTRN	p2v:PROC
EXTRN	v2p:PROC
EXTRN	x64_cli:PROC
EXTRN	x64_read_cr3:PROC
EXTRN	x64_write_cr3:PROC
EXTRN	AuMapPage:PROC
EXTRN	?AuMapPageEx@@YA_NPEA_K_K1E@Z:PROC		; AuMapPageEx
EXTRN	?AuUnmapPageEx@@YAXPEA_K_K_N@Z:PROC		; AuUnmapPageEx
EXTRN	AuUnmapPage:PROC
EXTRN	?AuCreateAddressSpace@@YAPEA_KXZ:PROC		; AuCreateAddressSpace
EXTRN	malloc:PROC
EXTRN	?create_user_thread@@YAPEAU_thread_@@P6AXPEAX@Z_K2QEADE@Z:PROC ; create_user_thread
EXTRN	?unblock_thread@@YAXPEAU_thread_@@@Z:PROC	; unblock_thread
EXTRN	?get_current_thread@@YAPEAU_thread_@@XZ:PROC	; get_current_thread
EXTRN	?thread_iterate_ready_list@@YAPEAU_thread_@@G@Z:PROC ; thread_iterate_ready_list
EXTRN	?thread_iterate_block_list@@YAPEAU_thread_@@H@Z:PROC ; thread_iterate_block_list
EXTRN	?task_delete@@YAXPEAU_thread_@@@Z:PROC		; task_delete
EXTRN	printf:PROC
EXTRN	?destroy_timer@@YAXH@Z:PROC			; destroy_timer
EXTRN	?find_timer_id@@YAHG@Z:PROC			; find_timer_id
EXTRN	?fat32_open@@YA?AU_vfs_node_@@PEAU1@PEAD@Z:PROC	; fat32_open
EXTRN	?fat32_read@@YAXPEAU_vfs_node_@@PEA_K@Z:PROC	; fat32_read
EXTRN	?_debug_print_@@YAXPEADZZ:PROC			; _debug_print_
EXTRN	?pri_loop_destroy_by_id@@YAXG@Z:PROC		; pri_loop_destroy_by_id
pdata	SEGMENT
$pdata$?create_user_stack@@YAPEA_KPEA_K@Z DD imagerel $LN6
	DD	imagerel $LN6+151
	DD	imagerel $unwind$?create_user_stack@@YAPEA_KPEA_K@Z
$pdata$?create_inc_stack@@YAPEA_KPEA_K@Z DD imagerel $LN6
	DD	imagerel $LN6+143
	DD	imagerel $unwind$?create_inc_stack@@YAPEA_KPEA_K@Z
$pdata$?AuCreateProcess@@YAHPEBDPEAD@Z DD imagerel $LN6
	DD	imagerel $LN6+718
	DD	imagerel $unwind$?AuCreateProcess@@YAHPEBDPEAD@Z
$pdata$?kill_process@@YAXXZ DD imagerel $LN10
	DD	imagerel $LN10+443
	DD	imagerel $unwind$?kill_process@@YAXXZ
$pdata$?kill_process_by_id@@YAXG@Z DD imagerel $LN11
	DD	imagerel $LN11+400
	DD	imagerel $unwind$?kill_process_by_id@@YAXG@Z
$pdata$?get_num_process@@YAIXZ DD imagerel $LN6
	DD	imagerel $LN6+65
	DD	imagerel $unwind$?get_num_process@@YAIXZ
$pdata$?get_current_process@@YAPEAU_process_@@XZ DD imagerel $LN3
	DD	imagerel $LN3+39
	DD	imagerel $unwind$?get_current_process@@YAPEAU_process_@@XZ
$pdata$?find_process_by_id@@YAPEAU_process_@@I@Z DD imagerel $LN7
	DD	imagerel $LN7+67
	DD	imagerel $unwind$?find_process_by_id@@YAPEAU_process_@@I@Z
$pdata$?find_process_by_thread@@YAPEAU_process_@@PEAU_thread_@@@Z DD imagerel $LN7
	DD	imagerel $LN7+69
	DD	imagerel $unwind$?find_process_by_thread@@YAPEAU_process_@@PEAU_thread_@@@Z
$pdata$?remove_process@@YAXPEAU_process_@@@Z DD imagerel $LN8
	DD	imagerel $LN8+163
	DD	imagerel $unwind$?remove_process@@YAXPEAU_process_@@@Z
$pdata$?allocate_fd@@YAXPEAU_thread_@@@Z DD imagerel $LN3
	DD	imagerel $LN3+227
	DD	imagerel $unwind$?allocate_fd@@YAXPEAU_thread_@@@Z
$pdata$?fork@@YAIXZ DD imagerel $LN6
	DD	imagerel $LN6+207
	DD	imagerel $unwind$?fork@@YAIXZ
$pdata$?exec@@YAXPEBDI@Z DD imagerel $LN3
	DD	imagerel $LN3+372
	DD	imagerel $unwind$?exec@@YAXPEBDI@Z
pdata	ENDS
xdata	SEGMENT
$unwind$?create_user_stack@@YAPEA_KPEA_K@Z DD 010901H
	DD	08209H
$unwind$?create_inc_stack@@YAPEA_KPEA_K@Z DD 010901H
	DD	08209H
$unwind$?AuCreateProcess@@YAHPEBDPEAD@Z DD 041301H
	DD	03d0113H
	DD	0600b700cH
$unwind$?kill_process@@YAXXZ DD 010401H
	DD	0e204H
$unwind$?kill_process_by_id@@YAXG@Z DD 010901H
	DD	0e209H
$unwind$?get_num_process@@YAIXZ DD 010401H
	DD	02204H
$unwind$?get_current_process@@YAPEAU_process_@@XZ DD 010401H
	DD	06204H
$unwind$?find_process_by_id@@YAPEAU_process_@@I@Z DD 010801H
	DD	02208H
$unwind$?find_process_by_thread@@YAPEAU_process_@@PEAU_thread_@@@Z DD 010901H
	DD	02209H
$unwind$?remove_process@@YAXPEAU_process_@@@Z DD 010901H
	DD	04209H
$unwind$?allocate_fd@@YAXPEAU_thread_@@@Z DD 010901H
	DD	08209H
$unwind$?fork@@YAIXZ DD 010401H
	DD	0a204H
$unwind$?exec@@YAXPEBDI@Z DD 021001H
	DD	0130110H
xdata	ENDS
; Function compile flags: /Odtpy
; File e:\xeneva project\xeneva\aurora\aurora\proc.cpp
_TEXT	SEGMENT
child_proc$ = 48
new_cr3$ = 56
nt$ = 64
c_cr3$ = 72
dos$ = 80
buffer$ = 88
_image_base_$ = 96
ent$ = 104
stack$ = 112
p_cr3$ = 120
position$ = 128
t$ = 136
filename$ = 160
pid$ = 168
?exec@@YAXPEBDI@Z PROC					; exec

; 338  : void exec (const char* filename, uint32_t pid) {

$LN3:
	mov	DWORD PTR [rsp+16], edx
	mov	QWORD PTR [rsp+8], rcx
	sub	rsp, 152				; 00000098H

; 339  : 	process_t *child_proc = find_process_by_id (pid);

	mov	ecx, DWORD PTR pid$[rsp]
	call	?find_process_by_id@@YAPEAU_process_@@I@Z ; find_process_by_id
	mov	QWORD PTR child_proc$[rsp], rax

; 340  : 	uint64_t p_cr3 = x64_read_cr3();

	call	x64_read_cr3
	mov	QWORD PTR p_cr3$[rsp], rax

; 341  : 
; 342  : 	//!Clear up the child address space
; 343  : 	uint64_t c_cr3 = (uint64_t)child_proc->cr3;

	mov	rax, QWORD PTR child_proc$[rsp]
	mov	rax, QWORD PTR [rax+40]
	mov	QWORD PTR c_cr3$[rsp], rax

; 344  : 	memset((void*)c_cr3, 0, 4096);

	mov	r8d, 4096				; 00001000H
	xor	edx, edx
	mov	rcx, QWORD PTR c_cr3$[rsp]
	call	memset

; 345  : 	/*FILE f = open (filename);
; 346  : 	if (f.status == FILE_FLAG_INVALID)
; 347  : 		return;*/
; 348  : 	unsigned char* buffer = (unsigned char*)AuPmmngrAlloc();

	call	AuPmmngrAlloc
	mov	QWORD PTR buffer$[rsp], rax

; 349  : /*	read_blk (&f, buffer, f.id);
; 350  : */
; 351  : 	//! Create new mappings for exec
; 352  : 	uint64_t* new_cr3 = AuCreateAddressSpace();

	call	?AuCreateAddressSpace@@YAPEA_KXZ	; AuCreateAddressSpace
	mov	QWORD PTR new_cr3$[rsp], rax

; 353  : 	//! copy the new mappings to child_cr3
; 354  : 	memcpy ((void*)c_cr3, new_cr3, 4096);

	mov	r8d, 4096				; 00001000H
	mov	rdx, QWORD PTR new_cr3$[rsp]
	mov	rcx, QWORD PTR c_cr3$[rsp]
	call	memcpy

; 355  : 	//! deallocate the new mappings
; 356  : 	memset((void*)new_cr3, 0, 4096);

	mov	r8d, 4096				; 00001000H
	xor	edx, edx
	mov	rcx, QWORD PTR new_cr3$[rsp]
	call	memset

; 357  : 	AuPmmngrFree(new_cr3);

	mov	rcx, QWORD PTR new_cr3$[rsp]
	call	AuPmmngrFree

; 358  : 
; 359  : 
; 360  : 	//!After reading we can change cr3
; 361  :     x64_write_cr3((size_t)c_cr3);

	mov	rcx, QWORD PTR c_cr3$[rsp]
	call	x64_write_cr3

; 362  : 
; 363  : 	//!create the stack
; 364  : 	uint64_t stack = (uint64_t)create_user_stack(child_proc->cr3);

	mov	rax, QWORD PTR child_proc$[rsp]
	mov	rcx, QWORD PTR [rax+40]
	call	?create_user_stack@@YAPEA_KPEA_K@Z	; create_user_stack
	mov	QWORD PTR stack$[rsp], rax

; 365  : 	child_proc->stack = stack;

	mov	rax, QWORD PTR child_proc$[rsp]
	mov	rcx, QWORD PTR stack$[rsp]
	mov	QWORD PTR [rax+56], rcx

; 366  : 
; 367  : 	IMAGE_DOS_HEADER* dos = (IMAGE_DOS_HEADER*)buffer;

	mov	rax, QWORD PTR buffer$[rsp]
	mov	QWORD PTR dos$[rsp], rax

; 368  : 	PIMAGE_NT_HEADERS nt = raw_offset<PIMAGE_NT_HEADERS>(dos, dos->e_lfanew);

	mov	rax, QWORD PTR dos$[rsp]
	movzx	eax, WORD PTR [rax+60]
	mov	edx, eax
	mov	rcx, QWORD PTR dos$[rsp]
	call	??$raw_offset@PEAU_IMAGE_NT_HEADERS_PE32PLUS@@PEAU_IMAGE_DOS_HEADER_@@@@YAPEAU_IMAGE_NT_HEADERS_PE32PLUS@@PEAU_IMAGE_DOS_HEADER_@@H@Z ; raw_offset<_IMAGE_NT_HEADERS_PE32PLUS * __ptr64,_IMAGE_DOS_HEADER_ * __ptr64>
	mov	QWORD PTR nt$[rsp], rax

; 369  : 	
; 370  : 	//!extract the informations
; 371  :     //load_pe_file(buffer,f.size);
; 372  : 	uint64_t _image_base_ = nt->OptionalHeader.ImageBase;

	mov	rax, QWORD PTR nt$[rsp]
	mov	rax, QWORD PTR [rax+48]
	mov	QWORD PTR _image_base_$[rsp], rax

; 373  : 	ientry ent = (ientry)(nt->OptionalHeader.AddressOfEntryPoint + nt->OptionalHeader.ImageBase); //buffer

	mov	rax, QWORD PTR nt$[rsp]
	mov	eax, DWORD PTR [rax+40]
	mov	rcx, QWORD PTR nt$[rsp]
	add	rax, QWORD PTR [rcx+48]
	mov	QWORD PTR ent$[rsp], rax

; 374  : 
; 375  : 	AuMapPage((uint64_t)buffer,_image_base_, PAGING_USER);

	mov	r8b, 4
	mov	rdx, QWORD PTR _image_base_$[rsp]
	mov	rcx, QWORD PTR buffer$[rsp]
	call	AuMapPage

; 376  : 	int position = 1;  //we already read 4096 bytes at first

	mov	DWORD PTR position$[rsp], 1

; 377  : 	//while(f.eof != 1){
; 378  : 	//	unsigned char* block = (unsigned char*)pmmngr_alloc();
; 379  : 	//	//read_blk(&f,block, f.id);
; 380  : 	//	map_page((uint64_t)block,_image_base_ + position * 4096);
; 381  : 	//	position++;
; 382  : 	//}
; 383  : 
; 384  : 	child_proc->entry_point = ent;

	mov	rax, QWORD PTR child_proc$[rsp]
	mov	rcx, QWORD PTR ent$[rsp]
	mov	QWORD PTR [rax+16], rcx

; 385  : 	x64_write_cr3(p_cr3);

	mov	rcx, QWORD PTR p_cr3$[rsp]
	call	x64_write_cr3

; 386  : 
; 387  : 
; 388  : 	thread_t *t = create_user_thread(child_proc->entry_point,child_proc->stack,(uint64_t)child_proc->cr3,"child",1);

	mov	BYTE PTR [rsp+32], 1
	lea	r9, OFFSET FLAT:$SG4140
	mov	rax, QWORD PTR child_proc$[rsp]
	mov	r8, QWORD PTR [rax+40]
	mov	rax, QWORD PTR child_proc$[rsp]
	mov	rdx, QWORD PTR [rax+56]
	mov	rax, QWORD PTR child_proc$[rsp]
	mov	rcx, QWORD PTR [rax+16]
	call	?create_user_thread@@YAPEAU_thread_@@P6AXPEAX@Z_K2QEADE@Z ; create_user_thread
	mov	QWORD PTR t$[rsp], rax

; 389  : }

	add	rsp, 152				; 00000098H
	ret	0
?exec@@YAXPEBDI@Z ENDP					; exec
_TEXT	ENDS
; Function compile flags: /Odtpy
; File e:\xeneva project\xeneva\aurora\aurora\proc.cpp
_TEXT	SEGMENT
i$1 = 32
child_process$ = 40
parent$ = 48
child_cr3$ = 56
p_thread$ = 64
parent_cr3$ = 72
?fork@@YAIXZ PROC					; fork

; 317  : uint32_t fork () {

$LN6:
	sub	rsp, 88					; 00000058H

; 318  : 	process_t *child_process = (process_t*)AuPmmngrAlloc();

	call	AuPmmngrAlloc
	mov	QWORD PTR child_process$[rsp], rax

; 319  : 	
; 320  : 	thread_t * p_thread = get_current_thread();

	call	?get_current_thread@@YAPEAU_thread_@@XZ	; get_current_thread
	mov	QWORD PTR p_thread$[rsp], rax

; 321  : 	process_t *parent = find_process_by_thread (p_thread);

	mov	rcx, QWORD PTR p_thread$[rsp]
	call	?find_process_by_thread@@YAPEAU_process_@@PEAU_thread_@@@Z ; find_process_by_thread
	mov	QWORD PTR parent$[rsp], rax

; 322  : 
; 323  : 	uint64_t *child_cr3 = (uint64_t*)AuPmmngrAlloc(); //create_user_address_space();

	call	AuPmmngrAlloc
	mov	QWORD PTR child_cr3$[rsp], rax

; 324  : 	uint64_t *parent_cr3 = parent->cr3;

	mov	rax, QWORD PTR parent$[rsp]
	mov	rax, QWORD PTR [rax+40]
	mov	QWORD PTR parent_cr3$[rsp], rax

; 325  : 
; 326  : 	for (int i = 0; i < 512; i++)

	mov	DWORD PTR i$1[rsp], 0
	jmp	SHORT $LN3@fork
$LN2@fork:
	mov	eax, DWORD PTR i$1[rsp]
	inc	eax
	mov	DWORD PTR i$1[rsp], eax
$LN3@fork:
	cmp	DWORD PTR i$1[rsp], 512			; 00000200H
	jge	SHORT $LN1@fork

; 327  : 		child_cr3[i] = parent_cr3[i];

	movsxd	rax, DWORD PTR i$1[rsp]
	movsxd	rcx, DWORD PTR i$1[rsp]
	mov	rdx, QWORD PTR child_cr3$[rsp]
	mov	r8, QWORD PTR parent_cr3$[rsp]
	mov	rax, QWORD PTR [r8+rax*8]
	mov	QWORD PTR [rdx+rcx*8], rax
	jmp	SHORT $LN2@fork
$LN1@fork:

; 328  : 
; 329  : 	memcpy (child_process, parent,sizeof(process_t));

	mov	r8d, 96					; 00000060H
	mov	rdx, QWORD PTR parent$[rsp]
	mov	rcx, QWORD PTR child_process$[rsp]
	call	memcpy

; 330  : 	child_process->pid_t = pid;

	mov	rax, QWORD PTR child_process$[rsp]
	mov	ecx, DWORD PTR pid
	mov	DWORD PTR [rax], ecx

; 331  : 	child_process->cr3 = child_cr3; //parent->cr3;

	mov	rax, QWORD PTR child_process$[rsp]
	mov	rcx, QWORD PTR child_cr3$[rsp]
	mov	QWORD PTR [rax+40], rcx

; 332  : 	child_process->parent = parent;

	mov	rax, QWORD PTR child_process$[rsp]
	mov	rcx, QWORD PTR parent$[rsp]
	mov	QWORD PTR [rax+88], rcx

; 333  : 	add_process (child_process);

	mov	rcx, QWORD PTR child_process$[rsp]
	call	?add_process@@YAXPEAU_process_@@@Z	; add_process

; 334  : 	return child_process->pid_t;

	mov	rax, QWORD PTR child_process$[rsp]
	mov	eax, DWORD PTR [rax]

; 335  : }

	add	rsp, 88					; 00000058H
	ret	0
?fork@@YAIXZ ENDP					; fork
_TEXT	ENDS
; Function compile flags: /Odtpy
; File e:\xeneva project\xeneva\aurora\include\stdint.h
;	COMDAT ??$raw_offset@PEAU_IMAGE_NT_HEADERS_PE32PLUS@@PEAU_IMAGE_DOS_HEADER_@@@@YAPEAU_IMAGE_NT_HEADERS_PE32PLUS@@PEAU_IMAGE_DOS_HEADER_@@H@Z
_TEXT	SEGMENT
p1$ = 8
offset$ = 16
??$raw_offset@PEAU_IMAGE_NT_HEADERS_PE32PLUS@@PEAU_IMAGE_DOS_HEADER_@@@@YAPEAU_IMAGE_NT_HEADERS_PE32PLUS@@PEAU_IMAGE_DOS_HEADER_@@H@Z PROC ; raw_offset<_IMAGE_NT_HEADERS_PE32PLUS * __ptr64,_IMAGE_DOS_HEADER_ * __ptr64>, COMDAT

; 183  : 	{

	mov	DWORD PTR [rsp+16], edx
	mov	QWORD PTR [rsp+8], rcx

; 184  : 		return (T) ((size_t)p1 + offset);

	movsxd	rax, DWORD PTR offset$[rsp]
	mov	rcx, QWORD PTR p1$[rsp]
	add	rcx, rax
	mov	rax, rcx

; 185  : 	};

	ret	0
??$raw_offset@PEAU_IMAGE_NT_HEADERS_PE32PLUS@@PEAU_IMAGE_DOS_HEADER_@@@@YAPEAU_IMAGE_NT_HEADERS_PE32PLUS@@PEAU_IMAGE_DOS_HEADER_@@H@Z ENDP ; raw_offset<_IMAGE_NT_HEADERS_PE32PLUS * __ptr64,_IMAGE_DOS_HEADER_ * __ptr64>
_TEXT	ENDS
; Function compile flags: /Odtpy
; File e:\xeneva project\xeneva\aurora\aurora\proc.cpp
_TEXT	SEGMENT
stdin$ = 32
stdout$ = 40
stderr$ = 48
t$ = 80
?allocate_fd@@YAXPEAU_thread_@@@Z PROC			; allocate_fd

; 129  : void allocate_fd (thread_t *t) {

$LN3:
	mov	QWORD PTR [rsp+8], rcx
	sub	rsp, 72					; 00000048H

; 130  : 	vfs_node_t * stdin = vfs_finddir("/dev/stdin");

	lea	rcx, OFFSET FLAT:$SG4002
	call	?vfs_finddir@@YAPEAU_vfs_node_@@PEAD@Z	; vfs_finddir
	mov	QWORD PTR stdin$[rsp], rax

; 131  : 	t->fd[t->fd_current] = stdin;

	mov	rax, QWORD PTR t$[rsp]
	movsxd	rax, DWORD PTR [rax+1256]
	mov	rcx, QWORD PTR t$[rsp]
	mov	rdx, QWORD PTR stdin$[rsp]
	mov	QWORD PTR [rcx+rax*8+776], rdx

; 132  : 	t->fd_current++;

	mov	rax, QWORD PTR t$[rsp]
	mov	eax, DWORD PTR [rax+1256]
	inc	eax
	mov	rcx, QWORD PTR t$[rsp]
	mov	DWORD PTR [rcx+1256], eax

; 133  : 	vfs_node_t* stdout = vfs_finddir("/dev/stdout");

	lea	rcx, OFFSET FLAT:$SG4004
	call	?vfs_finddir@@YAPEAU_vfs_node_@@PEAD@Z	; vfs_finddir
	mov	QWORD PTR stdout$[rsp], rax

; 134  : 	t->fd[t->fd_current] = stdout;

	mov	rax, QWORD PTR t$[rsp]
	movsxd	rax, DWORD PTR [rax+1256]
	mov	rcx, QWORD PTR t$[rsp]
	mov	rdx, QWORD PTR stdout$[rsp]
	mov	QWORD PTR [rcx+rax*8+776], rdx

; 135  : 	t->fd_current++;

	mov	rax, QWORD PTR t$[rsp]
	mov	eax, DWORD PTR [rax+1256]
	inc	eax
	mov	rcx, QWORD PTR t$[rsp]
	mov	DWORD PTR [rcx+1256], eax

; 136  : 	vfs_node_t* stderr = vfs_finddir("/dev/stderr");

	lea	rcx, OFFSET FLAT:$SG4006
	call	?vfs_finddir@@YAPEAU_vfs_node_@@PEAD@Z	; vfs_finddir
	mov	QWORD PTR stderr$[rsp], rax

; 137  : 	t->fd[t->fd_current] = stderr;

	mov	rax, QWORD PTR t$[rsp]
	movsxd	rax, DWORD PTR [rax+1256]
	mov	rcx, QWORD PTR t$[rsp]
	mov	rdx, QWORD PTR stderr$[rsp]
	mov	QWORD PTR [rcx+rax*8+776], rdx

; 138  : 	t->fd_current++;

	mov	rax, QWORD PTR t$[rsp]
	mov	eax, DWORD PTR [rax+1256]
	inc	eax
	mov	rcx, QWORD PTR t$[rsp]
	mov	DWORD PTR [rcx+1256], eax

; 139  : 
; 140  : }

	add	rsp, 72					; 00000048H
	ret	0
?allocate_fd@@YAXPEAU_thread_@@@Z ENDP			; allocate_fd
_TEXT	ENDS
; Function compile flags: /Odtpy
; File e:\xeneva project\xeneva\aurora\aurora\proc.cpp
_TEXT	SEGMENT
proc$ = 48
?remove_process@@YAXPEAU_process_@@@Z PROC		; remove_process

; 50   : void remove_process (process_t *proc) {

$LN8:
	mov	QWORD PTR [rsp+8], rcx
	sub	rsp, 40					; 00000028H

; 51   : 	
; 52   : 	if (process_head == NULL)

	cmp	QWORD PTR ?process_head@@3PEAU_process_@@EA, 0 ; process_head
	jne	SHORT $LN5@remove_pro

; 53   : 		return;

	jmp	$LN6@remove_pro
$LN5@remove_pro:

; 54   : 
; 55   : 	if (proc == process_head) {

	mov	rax, QWORD PTR ?process_head@@3PEAU_process_@@EA ; process_head
	cmp	QWORD PTR proc$[rsp], rax
	jne	SHORT $LN4@remove_pro

; 56   : 		process_head = process_head->next;

	mov	rax, QWORD PTR ?process_head@@3PEAU_process_@@EA ; process_head
	mov	rax, QWORD PTR [rax+72]
	mov	QWORD PTR ?process_head@@3PEAU_process_@@EA, rax ; process_head

; 57   : 	} else {

	jmp	SHORT $LN3@remove_pro
$LN4@remove_pro:

; 58   : 		proc->prev->next = proc->next;

	mov	rax, QWORD PTR proc$[rsp]
	mov	rax, QWORD PTR [rax+80]
	mov	rcx, QWORD PTR proc$[rsp]
	mov	rcx, QWORD PTR [rcx+72]
	mov	QWORD PTR [rax+72], rcx
$LN3@remove_pro:

; 59   : 	}
; 60   : 
; 61   : 	if (proc == process_last) {

	mov	rax, QWORD PTR ?process_last@@3PEAU_process_@@EA ; process_last
	cmp	QWORD PTR proc$[rsp], rax
	jne	SHORT $LN2@remove_pro

; 62   : 		process_last = proc->prev;

	mov	rax, QWORD PTR proc$[rsp]
	mov	rax, QWORD PTR [rax+80]
	mov	QWORD PTR ?process_last@@3PEAU_process_@@EA, rax ; process_last

; 63   : 	} else {

	jmp	SHORT $LN1@remove_pro
$LN2@remove_pro:

; 64   : 		proc->next->prev = proc->prev;

	mov	rax, QWORD PTR proc$[rsp]
	mov	rax, QWORD PTR [rax+72]
	mov	rcx, QWORD PTR proc$[rsp]
	mov	rcx, QWORD PTR [rcx+80]
	mov	QWORD PTR [rax+80], rcx
$LN1@remove_pro:

; 65   : 	}
; 66   : 	pid--;

	mov	eax, DWORD PTR pid
	dec	eax
	mov	DWORD PTR pid, eax

; 67   : 	AuPmmngrFree(proc);

	mov	rcx, QWORD PTR proc$[rsp]
	call	AuPmmngrFree
$LN6@remove_pro:

; 68   : }

	add	rsp, 40					; 00000028H
	ret	0
?remove_process@@YAXPEAU_process_@@@Z ENDP		; remove_process
_TEXT	ENDS
; Function compile flags: /Odtpy
; File e:\xeneva project\xeneva\aurora\aurora\proc.cpp
_TEXT	SEGMENT
proc$ = 8
?add_process@@YAXPEAU_process_@@@Z PROC			; add_process

; 29   : void add_process (process_t *proc) {

	mov	QWORD PTR [rsp+8], rcx

; 30   : 	//mutex_lock (add_mutex);
; 31   : 	proc->next = NULL;

	mov	rax, QWORD PTR proc$[rsp]
	mov	QWORD PTR [rax+72], 0

; 32   : 	proc->prev = NULL;

	mov	rax, QWORD PTR proc$[rsp]
	mov	QWORD PTR [rax+80], 0

; 33   : 
; 34   : 	if (process_head == NULL) {

	cmp	QWORD PTR ?process_head@@3PEAU_process_@@EA, 0 ; process_head
	jne	SHORT $LN2@add_proces

; 35   : 		process_head = proc;

	mov	rax, QWORD PTR proc$[rsp]
	mov	QWORD PTR ?process_head@@3PEAU_process_@@EA, rax ; process_head

; 36   : 		process_last = proc;

	mov	rax, QWORD PTR proc$[rsp]
	mov	QWORD PTR ?process_last@@3PEAU_process_@@EA, rax ; process_last

; 37   : 	} else {

	jmp	SHORT $LN1@add_proces
$LN2@add_proces:

; 38   : 		process_last->next = proc;

	mov	rax, QWORD PTR ?process_last@@3PEAU_process_@@EA ; process_last
	mov	rcx, QWORD PTR proc$[rsp]
	mov	QWORD PTR [rax+72], rcx

; 39   : 		proc->prev = process_last;

	mov	rax, QWORD PTR proc$[rsp]
	mov	rcx, QWORD PTR ?process_last@@3PEAU_process_@@EA ; process_last
	mov	QWORD PTR [rax+80], rcx

; 40   : 		process_last = proc;

	mov	rax, QWORD PTR proc$[rsp]
	mov	QWORD PTR ?process_last@@3PEAU_process_@@EA, rax ; process_last
$LN1@add_proces:

; 41   : 	}
; 42   : 	pid++;

	mov	eax, DWORD PTR pid
	inc	eax
	mov	DWORD PTR pid, eax

; 43   : 	//mutex_unlock (add_mutex);
; 44   : }

	ret	0
?add_process@@YAXPEAU_process_@@@Z ENDP			; add_process
_TEXT	ENDS
; Function compile flags: /Odtpy
; File e:\xeneva project\xeneva\aurora\aurora\proc.cpp
_TEXT	SEGMENT
?process_list_initialize@@YAXXZ PROC			; process_list_initialize

; 409  : 	pid = 0;

	mov	DWORD PTR pid, 0

; 410  : 	process_head = NULL;

	mov	QWORD PTR ?process_head@@3PEAU_process_@@EA, 0 ; process_head

; 411  : 	process_last = NULL;

	mov	QWORD PTR ?process_last@@3PEAU_process_@@EA, 0 ; process_last

; 412  : }

	ret	0
?process_list_initialize@@YAXXZ ENDP			; process_list_initialize
_TEXT	ENDS
; Function compile flags: /Odtpy
; File e:\xeneva project\xeneva\aurora\aurora\proc.cpp
_TEXT	SEGMENT
proc$1 = 0
thread$ = 32
?find_process_by_thread@@YAPEAU_process_@@PEAU_thread_@@@Z PROC ; find_process_by_thread

; 75   : process_t *find_process_by_thread (thread_t *thread) {

$LN7:
	mov	QWORD PTR [rsp+8], rcx
	sub	rsp, 24

; 76   : 	for (process_t *proc = process_head; proc != NULL; proc = proc->next) {

	mov	rax, QWORD PTR ?process_head@@3PEAU_process_@@EA ; process_head
	mov	QWORD PTR proc$1[rsp], rax
	jmp	SHORT $LN4@find_proce
$LN3@find_proce:
	mov	rax, QWORD PTR proc$1[rsp]
	mov	rax, QWORD PTR [rax+72]
	mov	QWORD PTR proc$1[rsp], rax
$LN4@find_proce:
	cmp	QWORD PTR proc$1[rsp], 0
	je	SHORT $LN2@find_proce

; 77   : 		if (proc->thread_data_pointer == thread) {

	mov	rax, QWORD PTR proc$1[rsp]
	mov	rcx, QWORD PTR thread$[rsp]
	cmp	QWORD PTR [rax+24], rcx
	jne	SHORT $LN1@find_proce

; 78   : 			return proc;

	mov	rax, QWORD PTR proc$1[rsp]
	jmp	SHORT $LN5@find_proce
$LN1@find_proce:

; 79   : 		}
; 80   : 	}

	jmp	SHORT $LN3@find_proce
$LN2@find_proce:
$LN5@find_proce:

; 81   : }

	add	rsp, 24
	ret	0
?find_process_by_thread@@YAPEAU_process_@@PEAU_thread_@@@Z ENDP ; find_process_by_thread
_TEXT	ENDS
; Function compile flags: /Odtpy
; File e:\xeneva project\xeneva\aurora\aurora\proc.cpp
_TEXT	SEGMENT
proc$1 = 0
pid$ = 32
?find_process_by_id@@YAPEAU_process_@@I@Z PROC		; find_process_by_id

; 87   : process_t *find_process_by_id (uint32_t pid) {

$LN7:
	mov	DWORD PTR [rsp+8], ecx
	sub	rsp, 24

; 88   : 	for (process_t *proc = process_head; proc != NULL; proc = proc->next) {

	mov	rax, QWORD PTR ?process_head@@3PEAU_process_@@EA ; process_head
	mov	QWORD PTR proc$1[rsp], rax
	jmp	SHORT $LN4@find_proce
$LN3@find_proce:
	mov	rax, QWORD PTR proc$1[rsp]
	mov	rax, QWORD PTR [rax+72]
	mov	QWORD PTR proc$1[rsp], rax
$LN4@find_proce:
	cmp	QWORD PTR proc$1[rsp], 0
	je	SHORT $LN2@find_proce

; 89   : 		if (proc->pid_t == pid) {

	mov	rax, QWORD PTR proc$1[rsp]
	mov	ecx, DWORD PTR pid$[rsp]
	cmp	DWORD PTR [rax], ecx
	jne	SHORT $LN1@find_proce

; 90   : 			return proc;

	mov	rax, QWORD PTR proc$1[rsp]
	jmp	SHORT $LN5@find_proce
$LN1@find_proce:

; 91   : 		}
; 92   : 	}

	jmp	SHORT $LN3@find_proce
$LN2@find_proce:

; 93   : 	return NULL;

	xor	eax, eax
$LN5@find_proce:

; 94   : }

	add	rsp, 24
	ret	0
?find_process_by_id@@YAPEAU_process_@@I@Z ENDP		; find_process_by_id
_TEXT	ENDS
; Function compile flags: /Odtpy
; File e:\xeneva project\xeneva\aurora\aurora\proc.cpp
_TEXT	SEGMENT
p_thread$ = 32
c_proc$ = 40
?get_current_process@@YAPEAU_process_@@XZ PROC		; get_current_process

; 402  : process_t * get_current_process () {

$LN3:
	sub	rsp, 56					; 00000038H

; 403  : 	thread_t * p_thread = get_current_thread();

	call	?get_current_thread@@YAPEAU_thread_@@XZ	; get_current_thread
	mov	QWORD PTR p_thread$[rsp], rax

; 404  : 	process_t *c_proc = find_process_by_thread (p_thread);

	mov	rcx, QWORD PTR p_thread$[rsp]
	call	?find_process_by_thread@@YAPEAU_process_@@PEAU_thread_@@@Z ; find_process_by_thread
	mov	QWORD PTR c_proc$[rsp], rax

; 405  : 	return c_proc;

	mov	rax, QWORD PTR c_proc$[rsp]

; 406  : }

	add	rsp, 56					; 00000038H
	ret	0
?get_current_process@@YAPEAU_process_@@XZ ENDP		; get_current_process
_TEXT	ENDS
; Function compile flags: /Odtpy
; File e:\xeneva project\xeneva\aurora\aurora\proc.cpp
_TEXT	SEGMENT
num_process$ = 0
current_proc$1 = 8
?get_num_process@@YAIXZ PROC				; get_num_process

; 393  : uint32_t get_num_process () {

$LN6:
	sub	rsp, 24

; 394  : 	uint32_t num_process = 0;

	mov	DWORD PTR num_process$[rsp], 0

; 395  : 	for (process_t * current_proc = process_head; current_proc != NULL; current_proc = current_proc->next) {

	mov	rax, QWORD PTR ?process_head@@3PEAU_process_@@EA ; process_head
	mov	QWORD PTR current_proc$1[rsp], rax
	jmp	SHORT $LN3@get_num_pr
$LN2@get_num_pr:
	mov	rax, QWORD PTR current_proc$1[rsp]
	mov	rax, QWORD PTR [rax+72]
	mov	QWORD PTR current_proc$1[rsp], rax
$LN3@get_num_pr:
	cmp	QWORD PTR current_proc$1[rsp], 0
	je	SHORT $LN1@get_num_pr

; 396  : 		num_process++;

	mov	eax, DWORD PTR num_process$[rsp]
	inc	eax
	mov	DWORD PTR num_process$[rsp], eax

; 397  : 	}

	jmp	SHORT $LN2@get_num_pr
$LN1@get_num_pr:

; 398  : 	return num_process;

	mov	eax, DWORD PTR num_process$[rsp]

; 399  : }

	add	rsp, 24
	ret	0
?get_num_process@@YAIXZ ENDP				; get_num_process
_TEXT	ENDS
; Function compile flags: /Odtpy
; File e:\xeneva project\xeneva\aurora\aurora\proc.cpp
_TEXT	SEGMENT
was_blocked$ = 32
i$1 = 36
i$2 = 40
remove_thread$ = 48
proc$ = 56
cr3$ = 64
tv93 = 72
init_stack$ = 80
image_base$ = 88
image_size$ = 96
virtual_addr$3 = 104
id$ = 128
?kill_process_by_id@@YAXG@Z PROC			; kill_process_by_id

; 273  : void kill_process_by_id (uint16_t id) {

$LN11:
	mov	WORD PTR [rsp+8], cx
	sub	rsp, 120				; 00000078H

; 274  : 	x64_cli();

	call	x64_cli

; 275  : 	bool was_blocked = false;

	mov	BYTE PTR was_blocked$[rsp], 0

; 276  : 	thread_t * remove_thread = thread_iterate_ready_list(id);

	movzx	ecx, WORD PTR id$[rsp]
	call	?thread_iterate_ready_list@@YAPEAU_thread_@@G@Z ; thread_iterate_ready_list
	mov	QWORD PTR remove_thread$[rsp], rax

; 277  : 	if (remove_thread == NULL) {

	cmp	QWORD PTR remove_thread$[rsp], 0
	jne	SHORT $LN8@kill_proce

; 278  : 		remove_thread = (thread_t*)thread_iterate_block_list(id);

	movzx	eax, WORD PTR id$[rsp]
	mov	ecx, eax
	call	?thread_iterate_block_list@@YAPEAU_thread_@@H@Z ; thread_iterate_block_list
	mov	QWORD PTR remove_thread$[rsp], rax

; 279  : 		was_blocked = true;

	mov	BYTE PTR was_blocked$[rsp], 1
$LN8@kill_proce:

; 280  : 	}
; 281  : 	process_t *proc = find_process_by_thread (remove_thread);

	mov	rcx, QWORD PTR remove_thread$[rsp]
	call	?find_process_by_thread@@YAPEAU_process_@@PEAU_thread_@@@Z ; find_process_by_thread
	mov	QWORD PTR proc$[rsp], rax

; 282  : 
; 283  : 	uint64_t  init_stack = proc->stack - 0x100000;

	mov	rax, QWORD PTR proc$[rsp]
	mov	rax, QWORD PTR [rax+56]
	sub	rax, 1048576				; 00100000H
	mov	QWORD PTR init_stack$[rsp], rax

; 284  : 	uint64_t image_base = proc->image_base;

	mov	rax, QWORD PTR proc$[rsp]
	mov	rax, QWORD PTR [rax+48]
	mov	QWORD PTR image_base$[rsp], rax

; 285  : 	size_t image_size = proc->image_size;

	mov	rax, QWORD PTR proc$[rsp]
	mov	rax, QWORD PTR [rax+32]
	mov	QWORD PTR image_size$[rsp], rax

; 286  : 	//uint64_t heap_base = (uint64_t)proc->user_heap_start;
; 287  : 	uint64_t *cr3 = (uint64_t*)remove_thread->cr3;

	mov	rax, QWORD PTR remove_thread$[rsp]
	mov	rax, QWORD PTR [rax+192]
	mov	QWORD PTR cr3$[rsp], rax

; 288  : 
; 289  : 	if (was_blocked)

	movzx	eax, BYTE PTR was_blocked$[rsp]
	test	eax, eax
	je	SHORT $LN7@kill_proce

; 290  : 		unblock_thread(remove_thread);

	mov	rcx, QWORD PTR remove_thread$[rsp]
	call	?unblock_thread@@YAXPEAU_thread_@@@Z	; unblock_thread
$LN7@kill_proce:

; 291  : 	remove_thread->state = THREAD_STATE_BLOCKED;

	mov	rax, QWORD PTR remove_thread$[rsp]
	mov	BYTE PTR [rax+736], 3

; 292  : 	task_delete (remove_thread);

	mov	rcx, QWORD PTR remove_thread$[rsp]
	call	?task_delete@@YAXPEAU_thread_@@@Z	; task_delete

; 293  : 	AuPmmngrFree(remove_thread);

	mov	rcx, QWORD PTR remove_thread$[rsp]
	call	AuPmmngrFree

; 294  : 	remove_process (proc);

	mov	rcx, QWORD PTR proc$[rsp]
	call	?remove_process@@YAXPEAU_process_@@@Z	; remove_process

; 295  : 
; 296  : 	
; 297  : 	//!unmap the runtime stack
; 298  : 	for (int i = 0; i < 0x100000 / 4096; i++) {

	mov	DWORD PTR i$2[rsp], 0
	jmp	SHORT $LN6@kill_proce
$LN5@kill_proce:
	mov	eax, DWORD PTR i$2[rsp]
	inc	eax
	mov	DWORD PTR i$2[rsp], eax
$LN6@kill_proce:
	cmp	DWORD PTR i$2[rsp], 256			; 00000100H
	jge	SHORT $LN4@kill_proce

; 299  : 		AuUnmapPageEx(cr3,init_stack + i * 4096, true);

	mov	eax, DWORD PTR i$2[rsp]
	imul	eax, 4096				; 00001000H
	cdqe
	mov	rcx, QWORD PTR init_stack$[rsp]
	add	rcx, rax
	mov	rax, rcx
	mov	r8b, 1
	mov	rdx, rax
	mov	rcx, QWORD PTR cr3$[rsp]
	call	?AuUnmapPageEx@@YAXPEA_K_K_N@Z		; AuUnmapPageEx

; 300  : 	}

	jmp	SHORT $LN5@kill_proce
$LN4@kill_proce:

; 301  : 
; 302  : 	//!unmap the binary image
; 303  : 	for (int i = 0; i < image_size / 4096; i++) {

	mov	DWORD PTR i$1[rsp], 0
	jmp	SHORT $LN3@kill_proce
$LN2@kill_proce:
	mov	eax, DWORD PTR i$1[rsp]
	inc	eax
	mov	DWORD PTR i$1[rsp], eax
$LN3@kill_proce:
	movsxd	rax, DWORD PTR i$1[rsp]
	mov	QWORD PTR tv93[rsp], rax
	xor	edx, edx
	mov	rax, QWORD PTR image_size$[rsp]
	mov	ecx, 4096				; 00001000H
	div	rcx
	mov	rcx, QWORD PTR tv93[rsp]
	cmp	rcx, rax
	jae	SHORT $LN1@kill_proce

; 304  : 		uint64_t virtual_addr = image_base + (i * 4096);

	mov	eax, DWORD PTR i$1[rsp]
	imul	eax, 4096				; 00001000H
	cdqe
	mov	rcx, QWORD PTR image_base$[rsp]
	add	rcx, rax
	mov	rax, rcx
	mov	QWORD PTR virtual_addr$3[rsp], rax

; 305  : 		AuUnmapPageEx(cr3, virtual_addr, true);

	mov	r8b, 1
	mov	rdx, QWORD PTR virtual_addr$3[rsp]
	mov	rcx, QWORD PTR cr3$[rsp]
	call	?AuUnmapPageEx@@YAXPEA_K_K_N@Z		; AuUnmapPageEx

; 306  : 	}

	jmp	SHORT $LN2@kill_proce
$LN1@kill_proce:

; 307  : 
; 308  : 	//!unmap user heap
; 309  : 	/*for (int i = 0; i < 0xB01000 / 4096; i++) {
; 310  : 		unmap_page_ex(cr3,heap_base + i * 4096, true);
; 311  : 	}*/
; 312  : 
; 313  : 	AuPmmngrFree(cr3);

	mov	rcx, QWORD PTR cr3$[rsp]
	call	AuPmmngrFree

; 314  : }

	add	rsp, 120				; 00000078H
	ret	0
?kill_process_by_id@@YAXG@Z ENDP			; kill_process_by_id
_TEXT	ENDS
; Function compile flags: /Odtpy
; File e:\xeneva project\xeneva\aurora\aurora\proc.cpp
_TEXT	SEGMENT
i$1 = 32
i$2 = 36
t_id$ = 40
remove_thread$ = 48
timer$ = 56
proc$ = 64
init_stack$ = 72
tv84 = 80
tv132 = 88
image_base$ = 96
cr3$ = 104
?kill_process@@YAXXZ PROC				; kill_process

; 222  : void kill_process () {

$LN10:
	sub	rsp, 120				; 00000078H

; 223  : 	x64_cli();

	call	x64_cli

; 224  : 	thread_t * remove_thread = get_current_thread();

	call	?get_current_thread@@YAPEAU_thread_@@XZ	; get_current_thread
	mov	QWORD PTR remove_thread$[rsp], rax

; 225  : 	uint16_t t_id = remove_thread->id;

	mov	rax, QWORD PTR remove_thread$[rsp]
	movzx	eax, WORD PTR [rax+738]
	mov	WORD PTR t_id$[rsp], ax

; 226  : 	process_t *proc = find_process_by_thread (remove_thread);

	mov	rcx, QWORD PTR remove_thread$[rsp]
	call	?find_process_by_thread@@YAPEAU_process_@@PEAU_thread_@@@Z ; find_process_by_thread
	mov	QWORD PTR proc$[rsp], rax

; 227  : 	uint64_t  init_stack = proc->stack - 0x100000;

	mov	rax, QWORD PTR proc$[rsp]
	mov	rax, QWORD PTR [rax+56]
	sub	rax, 1048576				; 00100000H
	mov	QWORD PTR init_stack$[rsp], rax

; 228  : 	uint64_t image_base = proc->image_base;

	mov	rax, QWORD PTR proc$[rsp]
	mov	rax, QWORD PTR [rax+48]
	mov	QWORD PTR image_base$[rsp], rax

; 229  : 	uint64_t *cr3 = (uint64_t*)remove_thread->cr3;

	mov	rax, QWORD PTR remove_thread$[rsp]
	mov	rax, QWORD PTR [rax+192]
	mov	QWORD PTR cr3$[rsp], rax

; 230  : 	
; 231  : 	int timer = find_timer_id (remove_thread->id);

	mov	rax, QWORD PTR remove_thread$[rsp]
	movzx	ecx, WORD PTR [rax+738]
	call	?find_timer_id@@YAHG@Z			; find_timer_id
	mov	DWORD PTR timer$[rsp], eax

; 232  : 
; 233  : 	/** destroy the timer */
; 234  : 	if (timer != -1) {

	cmp	DWORD PTR timer$[rsp], -1
	je	SHORT $LN7@kill_proce

; 235  : 		destroy_timer (timer);

	mov	ecx, DWORD PTR timer$[rsp]
	call	?destroy_timer@@YAXH@Z			; destroy_timer
$LN7@kill_proce:

; 236  : 	}
; 237  : 
; 238  : 
; 239  : 	/*uint64_t virt = USER_BASE_ADDRESS;
; 240  : 	for (int i = 0; i < proc->mmap_sz + 1; i++) {
; 241  : 		unmap_page (virt);
; 242  : 		virt = virt + i * 4096;
; 243  : 	}*/
; 244  : 		
; 245  : 
; 246  : 	remove_process (proc);

	mov	rcx, QWORD PTR proc$[rsp]
	call	?remove_process@@YAXPEAU_process_@@@Z	; remove_process

; 247  : 	task_delete (remove_thread);

	mov	rcx, QWORD PTR remove_thread$[rsp]
	call	?task_delete@@YAXPEAU_thread_@@@Z	; task_delete

; 248  : 	AuPmmngrFree(remove_thread);

	mov	rcx, QWORD PTR remove_thread$[rsp]
	call	AuPmmngrFree

; 249  : 	AuPmmngrFree(remove_thread->msg_box);

	mov	rax, QWORD PTR remove_thread$[rsp]
	mov	rcx, QWORD PTR [rax+752]
	call	AuPmmngrFree

; 250  : 	pri_loop_destroy_by_id (t_id);

	movzx	ecx, WORD PTR t_id$[rsp]
	call	?pri_loop_destroy_by_id@@YAXG@Z		; pri_loop_destroy_by_id

; 251  : 
; 252  : 	//!unmap the binary image
; 253  : 	for (uint32_t i = 0; i < proc->image_size / 4096; i++) {

	mov	DWORD PTR i$2[rsp], 0
	jmp	SHORT $LN6@kill_proce
$LN5@kill_proce:
	mov	eax, DWORD PTR i$2[rsp]
	inc	eax
	mov	DWORD PTR i$2[rsp], eax
$LN6@kill_proce:
	mov	eax, DWORD PTR i$2[rsp]
	mov	QWORD PTR tv84[rsp], rax
	xor	edx, edx
	mov	rcx, QWORD PTR proc$[rsp]
	mov	rax, QWORD PTR [rcx+32]
	mov	ecx, 4096				; 00001000H
	div	rcx
	mov	rcx, QWORD PTR tv84[rsp]
	cmp	rcx, rax
	jae	SHORT $LN4@kill_proce

; 254  : 	//	uint64_t virtual_addr = proc->image_base + (i * 4096);
; 255  : 		AuUnmapPage(image_base + i * 4096);

	mov	eax, DWORD PTR i$2[rsp]
	imul	eax, 4096				; 00001000H
	mov	eax, eax
	mov	rcx, QWORD PTR image_base$[rsp]
	add	rcx, rax
	mov	rax, rcx
	mov	rcx, rax
	call	AuUnmapPage

; 256  : 	}

	jmp	SHORT $LN5@kill_proce
$LN4@kill_proce:

; 257  : 	
; 258  : 	//!unmap the runtime stack
; 259  : 	for (int i = 0; i < 0x100000 / 4096; i++) {

	mov	DWORD PTR i$1[rsp], 0
	jmp	SHORT $LN3@kill_proce
$LN2@kill_proce:
	mov	eax, DWORD PTR i$1[rsp]
	inc	eax
	mov	DWORD PTR i$1[rsp], eax
$LN3@kill_proce:
	cmp	DWORD PTR i$1[rsp], 256			; 00000100H
	jge	SHORT $LN1@kill_proce

; 260  : 		AuUnmapPage(init_stack + i * 4096);

	mov	eax, DWORD PTR i$1[rsp]
	imul	eax, 4096				; 00001000H
	cdqe
	mov	rcx, QWORD PTR init_stack$[rsp]
	add	rcx, rax
	mov	rax, rcx
	mov	rcx, rax
	call	AuUnmapPage

; 261  : 	}

	jmp	SHORT $LN2@kill_proce
$LN1@kill_proce:

; 262  : 
; 263  : 
; 264  : 	_debug_print_ ("Used Pmmngr -> %d MB / Total -> %d MB \r\n", pmmngr_get_used_ram () / 1024 / 1024, pmmngr_get_total_ram() / 1024 / 1024);

	call	?pmmngr_get_total_ram@@YA_KXZ		; pmmngr_get_total_ram
	xor	edx, edx
	mov	ecx, 1024				; 00000400H
	div	rcx
	xor	edx, edx
	mov	ecx, 1024				; 00000400H
	div	rcx
	mov	QWORD PTR tv132[rsp], rax
	call	?pmmngr_get_used_ram@@YA_KXZ		; pmmngr_get_used_ram
	xor	edx, edx
	mov	ecx, 1024				; 00000400H
	div	rcx
	xor	edx, edx
	mov	ecx, 1024				; 00000400H
	div	rcx
	mov	rcx, QWORD PTR tv132[rsp]
	mov	r8, rcx
	mov	rdx, rax
	lea	rcx, OFFSET FLAT:$SG4074
	call	?_debug_print_@@YAXPEADZZ		; _debug_print_

; 265  : 
; 266  : 	AuPmmngrFree(cr3);

	mov	rcx, QWORD PTR cr3$[rsp]
	call	AuPmmngrFree

; 267  : }

	add	rsp, 120				; 00000078H
	ret	0
?kill_process@@YAXXZ ENDP				; kill_process
_TEXT	ENDS
; Function compile flags: /Odtpy
; File e:\xeneva project\xeneva\aurora\aurora\proc.cpp
_TEXT	SEGMENT
process$ = 48
position$ = 56
cr3$ = 64
nt$ = 72
buf$ = 80
_image_base_$ = 88
block$1 = 96
stack$ = 104
ent$ = 112
dos$ = 120
t$ = 128
fname$ = 136
tv153 = 144
file$ = 160
$T2 = 272
$T3 = 376
filename$ = 512
procname$ = 520
?AuCreateProcess@@YAHPEBDPEAD@Z PROC			; AuCreateProcess

; 149  : int AuCreateProcess(const char* filename, char* procname) {

$LN6:
	mov	QWORD PTR [rsp+16], rdx
	mov	QWORD PTR [rsp+8], rcx
	push	rsi
	push	rdi
	sub	rsp, 488				; 000001e8H

; 150  : 	//!allocate a data-structure for process 
; 151  : 	process_t *process = (process_t*)malloc(sizeof(process_t)); //pmmngr_alloc();

	mov	ecx, 96					; 00000060H
	call	malloc
	mov	QWORD PTR process$[rsp], rax

; 152  : 	memset(process, 0,sizeof(process_t));

	mov	r8d, 96					; 00000060H
	xor	edx, edx
	mov	rcx, QWORD PTR process$[rsp]
	call	memset

; 153  : 	process->pid_t = pid;

	mov	rax, QWORD PTR process$[rsp]
	mov	ecx, DWORD PTR pid
	mov	DWORD PTR [rax], ecx

; 154  : 	process->mmap_sz = 0;

	mov	rax, QWORD PTR process$[rsp]
	mov	QWORD PTR [rax+64], 0

; 155  : 
; 156  : 
; 157  : 	//!open the process file-binary
; 158  : 	char *fname = (char*)filename;

	mov	rax, QWORD PTR filename$[rsp]
	mov	QWORD PTR fname$[rsp], rax

; 159  : 
; 160  : 	//vfs_node_t file = openfs (n,fname);
; 161  : 	vfs_node_t file = fat32_open(NULL, fname);

	mov	r8, QWORD PTR fname$[rsp]
	xor	edx, edx
	lea	rcx, QWORD PTR $T3[rsp]
	call	?fat32_open@@YA?AU_vfs_node_@@PEAU1@PEAD@Z ; fat32_open
	lea	rcx, QWORD PTR $T2[rsp]
	mov	rdi, rcx
	mov	rsi, rax
	mov	ecx, 104				; 00000068H
	rep movsb
	lea	rax, QWORD PTR file$[rsp]
	lea	rcx, QWORD PTR $T2[rsp]
	mov	rdi, rax
	mov	rsi, rcx
	mov	ecx, 104				; 00000068H
	rep movsb

; 162  : 	
; 163  : 	if (file.status == FS_FLAG_INVALID) {

	movzx	eax, BYTE PTR file$[rsp+49]
	cmp	eax, 3
	jne	SHORT $LN3@AuCreatePr

; 164  : 		printf("Executable image not found\n");

	lea	rcx, OFFSET FLAT:$SG4020
	call	printf

; 165  : 		return -1;

	mov	eax, -1
	jmp	$LN4@AuCreatePr
$LN3@AuCreatePr:

; 166  : 	}
; 167  : 	//!open the binary file and read it
; 168  : 	uint64_t* buf = (uint64_t*)p2v((size_t)AuPmmngrAlloc());   

	call	AuPmmngrAlloc
	mov	rcx, rax
	call	p2v
	mov	QWORD PTR buf$[rsp], rax

; 169  : 	//readfs_block(n,&file,buf);
; 170  : 	
; 171  : 	fat32_read (&file,(uint64_t*)v2p((size_t)buf));

	mov	rcx, QWORD PTR buf$[rsp]
	call	v2p
	mov	rdx, rax
	lea	rcx, QWORD PTR file$[rsp]
	call	?fat32_read@@YAXPEAU_vfs_node_@@PEA_K@Z	; fat32_read

; 172  : 	
; 173  : 
; 174  : 	IMAGE_DOS_HEADER* dos = (IMAGE_DOS_HEADER*)buf;

	mov	rax, QWORD PTR buf$[rsp]
	mov	QWORD PTR dos$[rsp], rax

; 175  : 	PIMAGE_NT_HEADERS nt = raw_offset<PIMAGE_NT_HEADERS>(dos, dos->e_lfanew);

	mov	rax, QWORD PTR dos$[rsp]
	movzx	eax, WORD PTR [rax+60]
	mov	edx, eax
	mov	rcx, QWORD PTR dos$[rsp]
	call	??$raw_offset@PEAU_IMAGE_NT_HEADERS_PE32PLUS@@PEAU_IMAGE_DOS_HEADER_@@@@YAPEAU_IMAGE_NT_HEADERS_PE32PLUS@@PEAU_IMAGE_DOS_HEADER_@@H@Z ; raw_offset<_IMAGE_NT_HEADERS_PE32PLUS * __ptr64,_IMAGE_DOS_HEADER_ * __ptr64>
	mov	QWORD PTR nt$[rsp], rax

; 176  : 
; 177  : 	//!extract the informations
; 178  :    // load_pe_file(buf,file.size);
; 179  : 	uint64_t _image_base_ = nt->OptionalHeader.ImageBase;

	mov	rax, QWORD PTR nt$[rsp]
	mov	rax, QWORD PTR [rax+48]
	mov	QWORD PTR _image_base_$[rsp], rax

; 180  : 	ientry ent = (ientry)(nt->OptionalHeader.AddressOfEntryPoint + nt->OptionalHeader.ImageBase); //buffer

	mov	rax, QWORD PTR nt$[rsp]
	mov	eax, DWORD PTR [rax+40]
	mov	rcx, QWORD PTR nt$[rsp]
	add	rax, QWORD PTR [rcx+48]
	mov	QWORD PTR ent$[rsp], rax

; 181  : 
; 182  : 	//! create the user stack and address space
; 183  : 	uint64_t *cr3 = AuCreateAddressSpace();	

	call	?AuCreateAddressSpace@@YAPEA_KXZ	; AuCreateAddressSpace
	mov	QWORD PTR cr3$[rsp], rax

; 184  : 	uint64_t stack = (uint64_t)create_user_stack(cr3);

	mov	rcx, QWORD PTR cr3$[rsp]
	call	?create_user_stack@@YAPEA_KPEA_K@Z	; create_user_stack
	mov	QWORD PTR stack$[rsp], rax

; 185  : 
; 186  : 	AuMapPageEx(cr3,v2p((size_t)buf),_image_base_, PAGING_USER);

	mov	rcx, QWORD PTR buf$[rsp]
	call	v2p
	mov	r9b, 4
	mov	r8, QWORD PTR _image_base_$[rsp]
	mov	rdx, rax
	mov	rcx, QWORD PTR cr3$[rsp]
	call	?AuMapPageEx@@YA_NPEA_K_K1E@Z		; AuMapPageEx

; 187  : 	////! read rest of the image
; 188  : 	int position = 1;  //we already read 4096 bytes at first

	mov	DWORD PTR position$[rsp], 1
$LN2@AuCreatePr:

; 189  : 
; 190  : 	while (file.eof != 1){

	movzx	eax, BYTE PTR file$[rsp+36]
	cmp	eax, 1
	je	SHORT $LN1@AuCreatePr

; 191  : 		uint64_t* block = (uint64_t*)p2v((size_t)AuPmmngrAlloc());

	call	AuPmmngrAlloc
	mov	rcx, rax
	call	p2v
	mov	QWORD PTR block$1[rsp], rax

; 192  : 		//read_blk(&file,block,file.id);
; 193  : 		//readfs_block (n, &file, block);
; 194  : 		fat32_read (&file,(uint64_t*)v2p((size_t)block));

	mov	rcx, QWORD PTR block$1[rsp]
	call	v2p
	mov	rdx, rax
	lea	rcx, QWORD PTR file$[rsp]
	call	?fat32_read@@YAXPEAU_vfs_node_@@PEA_K@Z	; fat32_read

; 195  : 		AuMapPageEx(cr3,v2p((size_t)block),_image_base_ + position * 4096, PAGING_USER);

	mov	eax, DWORD PTR position$[rsp]
	imul	eax, 4096				; 00001000H
	cdqe
	mov	rcx, QWORD PTR _image_base_$[rsp]
	add	rcx, rax
	mov	rax, rcx
	mov	QWORD PTR tv153[rsp], rax
	mov	rcx, QWORD PTR block$1[rsp]
	call	v2p
	mov	r9b, 4
	mov	rcx, QWORD PTR tv153[rsp]
	mov	r8, rcx
	mov	rdx, rax
	mov	rcx, QWORD PTR cr3$[rsp]
	call	?AuMapPageEx@@YA_NPEA_K_K1E@Z		; AuMapPageEx

; 196  : 		position++;

	mov	eax, DWORD PTR position$[rsp]
	inc	eax
	mov	DWORD PTR position$[rsp], eax

; 197  : 	}

	jmp	$LN2@AuCreatePr
$LN1@AuCreatePr:

; 198  : 
; 199  : 	//!allocate current process
; 200  : 	//strcpy (process->name,procname);
; 201  : 	process->name = procname;

	mov	rax, QWORD PTR process$[rsp]
	mov	rcx, QWORD PTR procname$[rsp]
	mov	QWORD PTR [rax+8], rcx

; 202  : 	process->entry_point = ent;

	mov	rax, QWORD PTR process$[rsp]
	mov	rcx, QWORD PTR ent$[rsp]
	mov	QWORD PTR [rax+16], rcx

; 203  : 
; 204  : 	process->cr3 = cr3;

	mov	rax, QWORD PTR process$[rsp]
	mov	rcx, QWORD PTR cr3$[rsp]
	mov	QWORD PTR [rax+40], rcx

; 205  : 	process->image_base = _image_base_;

	mov	rax, QWORD PTR process$[rsp]
	mov	rcx, QWORD PTR _image_base_$[rsp]
	mov	QWORD PTR [rax+48], rcx

; 206  : 	process->stack = stack;

	mov	rax, QWORD PTR process$[rsp]
	mov	rcx, QWORD PTR stack$[rsp]
	mov	QWORD PTR [rax+56], rcx

; 207  : 	process->image_size = nt->OptionalHeader.SizeOfImage;

	mov	rax, QWORD PTR nt$[rsp]
	mov	eax, DWORD PTR [rax+80]
	mov	rcx, QWORD PTR process$[rsp]
	mov	QWORD PTR [rcx+32], rax

; 208  : 	process->parent = NULL;

	mov	rax, QWORD PTR process$[rsp]
	mov	QWORD PTR [rax+88], 0

; 209  : 	//! Create and thread and start scheduling when scheduler starts */
; 210  : 	thread_t *t = create_user_thread(ent,stack,(uint64_t)cr3,procname,0);

	mov	BYTE PTR [rsp+32], 0
	mov	r9, QWORD PTR procname$[rsp]
	mov	r8, QWORD PTR cr3$[rsp]
	mov	rdx, QWORD PTR stack$[rsp]
	mov	rcx, QWORD PTR ent$[rsp]
	call	?create_user_thread@@YAPEAU_thread_@@P6AXPEAX@Z_K2QEADE@Z ; create_user_thread
	mov	QWORD PTR t$[rsp], rax

; 211  : 	//allocate_fd(t);
; 212  : 	//! add the process to process manager
; 213  : 	process->thread_data_pointer = t;

	mov	rax, QWORD PTR process$[rsp]
	mov	rcx, QWORD PTR t$[rsp]
	mov	QWORD PTR [rax+24], rcx

; 214  :     add_process(process);

	mov	rcx, QWORD PTR process$[rsp]
	call	?add_process@@YAXPEAU_process_@@@Z	; add_process

; 215  : 
; 216  : 	return t->id;

	mov	rax, QWORD PTR t$[rsp]
	movzx	eax, WORD PTR [rax+738]
$LN4@AuCreatePr:

; 217  : }

	add	rsp, 488				; 000001e8H
	pop	rdi
	pop	rsi
	ret	0
?AuCreateProcess@@YAHPEBDPEAD@Z ENDP			; AuCreateProcess
_TEXT	ENDS
; Function compile flags: /Odtpy
; File e:\xeneva project\xeneva\aurora\aurora\proc.cpp
_TEXT	SEGMENT
i$1 = 32
p$2 = 40
location$ = 48
cr3$ = 80
?create_inc_stack@@YAPEA_KPEA_K@Z PROC			; create_inc_stack

; 115  : uint64_t* create_inc_stack (uint64_t* cr3) {

$LN6:
	mov	QWORD PTR [rsp+8], rcx
	sub	rsp, 72					; 00000048H

; 116  : #define INC_STACK 0x0000010000000000 
; 117  : 	uint64_t location = INC_STACK ; //+ user_stack_index;

	mov	rax, 1099511627776			; 0000010000000000H
	mov	QWORD PTR location$[rsp], rax

; 118  : 
; 119  : 	for (int i = 0; i < (2*1024*1024) / 4096; i++) {

	mov	DWORD PTR i$1[rsp], 0
	jmp	SHORT $LN3@create_inc
$LN2@create_inc:
	mov	eax, DWORD PTR i$1[rsp]
	inc	eax
	mov	DWORD PTR i$1[rsp], eax
$LN3@create_inc:
	cmp	DWORD PTR i$1[rsp], 512			; 00000200H
	jge	SHORT $LN1@create_inc

; 120  : 		void* p = AuPmmngrAlloc();

	call	AuPmmngrAlloc
	mov	QWORD PTR p$2[rsp], rax

; 121  : 		memset(p, 0, 4096);

	mov	r8d, 4096				; 00001000H
	xor	edx, edx
	mov	rcx, QWORD PTR p$2[rsp]
	call	memset

; 122  : 		AuMapPageEx(cr3,(uint64_t)p, location + i * 4096, PAGING_USER);

	mov	eax, DWORD PTR i$1[rsp]
	imul	eax, 4096				; 00001000H
	cdqe
	mov	rcx, QWORD PTR location$[rsp]
	add	rcx, rax
	mov	rax, rcx
	mov	r9b, 4
	mov	r8, rax
	mov	rdx, QWORD PTR p$2[rsp]
	mov	rcx, QWORD PTR cr3$[rsp]
	call	?AuMapPageEx@@YA_NPEA_K_K1E@Z		; AuMapPageEx

; 123  : 	}

	jmp	SHORT $LN2@create_inc
$LN1@create_inc:

; 124  : 
; 125  : 	//user_stack_index += 0x100000;
; 126  : 	return (uint64_t*)(INC_STACK + (2*1024*1024));

	mov	rax, 1099513724928			; 0000010000200000H

; 127  : }

	add	rsp, 72					; 00000048H
	ret	0
?create_inc_stack@@YAPEA_KPEA_K@Z ENDP			; create_inc_stack
_TEXT	ENDS
; Function compile flags: /Odtpy
; File e:\xeneva project\xeneva\aurora\aurora\proc.cpp
_TEXT	SEGMENT
i$1 = 32
location$ = 40
block$2 = 48
tv73 = 56
cr3$ = 80
?create_user_stack@@YAPEA_KPEA_K@Z PROC			; create_user_stack

; 100  : uint64_t *create_user_stack (uint64_t* cr3) {

$LN6:
	mov	QWORD PTR [rsp+8], rcx
	sub	rsp, 72					; 00000048H

; 101  : #define USER_STACK  0x0000700000000000 
; 102  : 	uint64_t location = USER_STACK;

	mov	rax, 123145302310912			; 0000700000000000H
	mov	QWORD PTR location$[rsp], rax

; 103  : 	
; 104  : 	/* 2 mb stack / process */
; 105  : 	for (int i=0; i < (2*1024*1024)/4096; i++) {

	mov	DWORD PTR i$1[rsp], 0
	jmp	SHORT $LN3@create_use
$LN2@create_use:
	mov	eax, DWORD PTR i$1[rsp]
	inc	eax
	mov	DWORD PTR i$1[rsp], eax
$LN3@create_use:
	cmp	DWORD PTR i$1[rsp], 512			; 00000200H
	jge	SHORT $LN1@create_use

; 106  : 		uint64_t *block = (uint64_t*)p2v((size_t)AuPmmngrAlloc());

	call	AuPmmngrAlloc
	mov	rcx, rax
	call	p2v
	mov	QWORD PTR block$2[rsp], rax

; 107  : 		AuMapPageEx(cr3,v2p((size_t)block),location + i * 4096, PAGING_USER);

	mov	eax, DWORD PTR i$1[rsp]
	imul	eax, 4096				; 00001000H
	cdqe
	mov	rcx, QWORD PTR location$[rsp]
	add	rcx, rax
	mov	rax, rcx
	mov	QWORD PTR tv73[rsp], rax
	mov	rcx, QWORD PTR block$2[rsp]
	call	v2p
	mov	r9b, 4
	mov	rcx, QWORD PTR tv73[rsp]
	mov	r8, rcx
	mov	rdx, rax
	mov	rcx, QWORD PTR cr3$[rsp]
	call	?AuMapPageEx@@YA_NPEA_K_K1E@Z		; AuMapPageEx

; 108  : 	}

	jmp	SHORT $LN2@create_use
$LN1@create_use:

; 109  : 	return (uint64_t*)(USER_STACK + (2*1024*1024));

	mov	rax, 123145304408064			; 0000700000200000H

; 110  : }

	add	rsp, 72					; 00000048H
	ret	0
?create_user_stack@@YAPEA_KPEA_K@Z ENDP			; create_user_stack
_TEXT	ENDS
END
