; Listing generated by Microsoft (R) Optimizing Compiler Version 17.00.50727.1 

include listing.inc

INCLUDELIB LIBCMT
INCLUDELIB OLDNAMES

PUBLIC	?shared_mem_list@@3PEAU_list_@@EA		; shared_mem_list
PUBLIC	?sh_id@@3IA					; sh_id
_BSS	SEGMENT
?shared_mem_list@@3PEAU_list_@@EA DQ 01H DUP (?)	; shared_mem_list
?sh_id@@3IA DD	01H DUP (?)				; sh_id
_BSS	ENDS
PUBLIC	?AuInitializeShMem@@YAXXZ			; AuInitializeShMem
PUBLIC	?AuCreateShMem@@YAII_KI@Z			; AuCreateShMem
PUBLIC	?AuObtainShMem@@YAPEAXIPEAXH@Z			; AuObtainShMem
PUBLIC	?shm_unlink@@YAXI@Z				; shm_unlink
PUBLIC	?shm_unlink_direct@@YAXI@Z			; shm_unlink_direct
EXTRN	memset:PROC
EXTRN	initialize_list:PROC
EXTRN	list_add:PROC
EXTRN	list_remove:PROC
EXTRN	list_get_at:PROC
EXTRN	AuPmmngrAlloc:PROC
EXTRN	v2p:PROC
EXTRN	x64_cli:PROC
EXTRN	AuMapPage:PROC
EXTRN	AuUnmapPage:PROC
EXTRN	AuGetPhysicalAddress:PROC
EXTRN	AuGetFreePage:PROC
EXTRN	malloc:PROC
EXTRN	free:PROC
EXTRN	get_current_thread:PROC
EXTRN	?AuInsertVMArea@@YAXPEAU_process_@@PEAU_vma_area_@@@Z:PROC ; AuInsertVMArea
EXTRN	?AuRemoveVMArea@@YAXPEAU_process_@@PEAU_vma_area_@@@Z:PROC ; AuRemoveVMArea
EXTRN	?AuFindVMAUniqueId@@YAPEAU_vma_area_@@I@Z:PROC	; AuFindVMAUniqueId
EXTRN	?get_current_process@@YAPEAU_process_@@XZ:PROC	; get_current_process
pdata	SEGMENT
$pdata$?AuInitializeShMem@@YAXXZ DD imagerel $LN3
	DD	imagerel $LN3+31
	DD	imagerel $unwind$?AuInitializeShMem@@YAXXZ
$pdata$?AuCreateShMem@@YAII_KI@Z DD imagerel $LN9
	DD	imagerel $LN9+368
	DD	imagerel $unwind$?AuCreateShMem@@YAII_KI@Z
$pdata$?AuObtainShMem@@YAPEAXIPEAXH@Z DD imagerel $LN18
	DD	imagerel $LN18+846
	DD	imagerel $unwind$?AuObtainShMem@@YAPEAXIPEAXH@Z
$pdata$?shm_unlink@@YAXI@Z DD imagerel $LN21
	DD	imagerel $LN21+569
	DD	imagerel $unwind$?shm_unlink@@YAXI@Z
$pdata$?shm_unlink_direct@@YAXI@Z DD imagerel $LN15
	DD	imagerel $LN15+352
	DD	imagerel $unwind$?shm_unlink_direct@@YAXI@Z
pdata	ENDS
xdata	SEGMENT
$unwind$?AuInitializeShMem@@YAXXZ DD 010401H
	DD	04204H
$unwind$?AuCreateShMem@@YAII_KI@Z DD 011201H
	DD	08212H
$unwind$?AuObtainShMem@@YAPEAXIPEAXH@Z DD 021501H
	DD	0130115H
$unwind$?shm_unlink@@YAXI@Z DD 020b01H
	DD	011010bH
$unwind$?shm_unlink_direct@@YAXI@Z DD 010801H
	DD	0c208H
xdata	ENDS
; Function compile flags: /Odtpy
; File e:\xeneva project\xeneva\aurora\aurora\mmngr\shmem.cpp
_TEXT	SEGMENT
i$1 = 32
i$2 = 36
i$3 = 40
mem$ = 48
start_addr$ = 56
proc$ = 64
m$4 = 72
vma$ = 80
thr$ = 88
key$ = 112
?shm_unlink_direct@@YAXI@Z PROC				; shm_unlink_direct

; 239  : void shm_unlink_direct (uint32_t key) {

$LN15:
	mov	DWORD PTR [rsp+8], ecx
	sub	rsp, 104				; 00000068H

; 240  : 	x64_cli();

	call	x64_cli

; 241  : 	process_t *proc = get_current_process();

	call	?get_current_process@@YAPEAU_process_@@XZ ; get_current_process
	mov	QWORD PTR proc$[rsp], rax

; 242  : 	thread_t *thr = get_current_thread();

	call	get_current_thread
	mov	QWORD PTR thr$[rsp], rax

; 243  : 
; 244  : 	shared_mem_t *mem = NULL;

	mov	QWORD PTR mem$[rsp], 0

; 245  : 	for (int i = 0; i < shared_mem_list->pointer; i++) {

	mov	DWORD PTR i$2[rsp], 0
	jmp	SHORT $LN12@shm_unlink
$LN11@shm_unlink:
	mov	eax, DWORD PTR i$2[rsp]
	inc	eax
	mov	DWORD PTR i$2[rsp], eax
$LN12@shm_unlink:
	mov	rax, QWORD PTR ?shared_mem_list@@3PEAU_list_@@EA ; shared_mem_list
	mov	eax, DWORD PTR [rax]
	cmp	DWORD PTR i$2[rsp], eax
	jae	SHORT $LN10@shm_unlink

; 246  : 		mem = (shared_mem_t*)list_get_at(shared_mem_list, i);

	mov	edx, DWORD PTR i$2[rsp]
	mov	rcx, QWORD PTR ?shared_mem_list@@3PEAU_list_@@EA ; shared_mem_list
	call	list_get_at
	mov	QWORD PTR mem$[rsp], rax

; 247  : 		if (mem->key == key)

	mov	rax, QWORD PTR mem$[rsp]
	mov	ecx, DWORD PTR key$[rsp]
	cmp	DWORD PTR [rax+16], ecx
	jne	SHORT $LN9@shm_unlink

; 248  : 			break;

	jmp	SHORT $LN10@shm_unlink
$LN9@shm_unlink:

; 249  : 	}

	jmp	SHORT $LN11@shm_unlink
$LN10@shm_unlink:

; 250  : 
; 251  : 	if (mem == NULL)

	cmp	QWORD PTR mem$[rsp], 0
	jne	SHORT $LN8@shm_unlink

; 252  : 		return;

	jmp	$LN13@shm_unlink
$LN8@shm_unlink:

; 253  : 
; 254  : 	uint64_t start_addr = (uint64_t)mem->first_process_vaddr;

	mov	rax, QWORD PTR mem$[rsp]
	mov	rax, QWORD PTR [rax+64]
	mov	QWORD PTR start_addr$[rsp], rax

; 255  : 	for (int i = 0; i < mem->num_frames; i++) 

	mov	DWORD PTR i$3[rsp], 0
	jmp	SHORT $LN7@shm_unlink
$LN6@shm_unlink:
	mov	eax, DWORD PTR i$3[rsp]
	inc	eax
	mov	DWORD PTR i$3[rsp], eax
$LN7@shm_unlink:
	mov	rax, QWORD PTR mem$[rsp]
	mov	eax, DWORD PTR [rax+36]
	cmp	DWORD PTR i$3[rsp], eax
	jae	SHORT $LN5@shm_unlink

; 256  : 		AuUnmapPage(start_addr + i * 4096, true);

	mov	eax, DWORD PTR i$3[rsp]
	imul	eax, 4096				; 00001000H
	cdqe
	mov	rcx, QWORD PTR start_addr$[rsp]
	add	rcx, rax
	mov	rax, rcx
	mov	dl, 1
	mov	rcx, rax
	call	AuUnmapPage
	jmp	SHORT $LN6@shm_unlink
$LN5@shm_unlink:

; 257  : 
; 258  : 	/* Remove the vm area */
; 259  : 	au_vm_area_t *vma = AuFindVMAUniqueId(mem->key);

	mov	rax, QWORD PTR mem$[rsp]
	mov	ecx, DWORD PTR [rax+16]
	call	?AuFindVMAUniqueId@@YAPEAU_vma_area_@@I@Z ; AuFindVMAUniqueId
	mov	QWORD PTR vma$[rsp], rax

; 260  : 	AuRemoveVMArea(proc, vma);

	mov	rdx, QWORD PTR vma$[rsp]
	mov	rcx, QWORD PTR proc$[rsp]
	call	?AuRemoveVMArea@@YAXPEAU_process_@@PEAU_vma_area_@@@Z ; AuRemoveVMArea

; 261  : 
; 262  : 	/* Finally delete the shared memory segment */
; 263  : 	for (int i = 0; i < shared_mem_list->pointer; i++) {

	mov	DWORD PTR i$1[rsp], 0
	jmp	SHORT $LN4@shm_unlink
$LN3@shm_unlink:
	mov	eax, DWORD PTR i$1[rsp]
	inc	eax
	mov	DWORD PTR i$1[rsp], eax
$LN4@shm_unlink:
	mov	rax, QWORD PTR ?shared_mem_list@@3PEAU_list_@@EA ; shared_mem_list
	mov	eax, DWORD PTR [rax]
	cmp	DWORD PTR i$1[rsp], eax
	jae	SHORT $LN2@shm_unlink

; 264  : 		shared_mem_t *m = (shared_mem_t*)list_get_at(shared_mem_list, i);

	mov	edx, DWORD PTR i$1[rsp]
	mov	rcx, QWORD PTR ?shared_mem_list@@3PEAU_list_@@EA ; shared_mem_list
	call	list_get_at
	mov	QWORD PTR m$4[rsp], rax

; 265  : 		if (m->key == mem->key) {

	mov	rax, QWORD PTR m$4[rsp]
	mov	rcx, QWORD PTR mem$[rsp]
	mov	ecx, DWORD PTR [rcx+16]
	cmp	DWORD PTR [rax+16], ecx
	jne	SHORT $LN1@shm_unlink

; 266  : 			list_remove(shared_mem_list, i);

	mov	edx, DWORD PTR i$1[rsp]
	mov	rcx, QWORD PTR ?shared_mem_list@@3PEAU_list_@@EA ; shared_mem_list
	call	list_remove
$LN1@shm_unlink:

; 267  : 		}
; 268  : 	}

	jmp	SHORT $LN3@shm_unlink
$LN2@shm_unlink:

; 269  : 
; 270  : 	free(mem);

	mov	rcx, QWORD PTR mem$[rsp]
	call	free
$LN13@shm_unlink:

; 271  : }

	add	rsp, 104				; 00000068H
	ret	0
?shm_unlink_direct@@YAXI@Z ENDP				; shm_unlink_direct
_TEXT	ENDS
; Function compile flags: /Odtpy
; File e:\xeneva project\xeneva\aurora\aurora\mmngr\shmem.cpp
_TEXT	SEGMENT
mem$ = 32
i$1 = 40
i$2 = 44
i$3 = 48
i$4 = 52
vma$5 = 56
thr$ = 64
proc$ = 72
start_addr$6 = 80
vma$7 = 88
m$8 = 96
start_addr$9 = 104
length$10 = 112
key$ = 144
?shm_unlink@@YAXI@Z PROC				; shm_unlink

; 169  : void shm_unlink (uint32_t key) {

$LN21:
	mov	DWORD PTR [rsp+8], ecx
	sub	rsp, 136				; 00000088H

; 170  : 	x64_cli();

	call	x64_cli

; 171  : 	process_t *proc = get_current_process();

	call	?get_current_process@@YAPEAU_process_@@XZ ; get_current_process
	mov	QWORD PTR proc$[rsp], rax

; 172  : 	thread_t *thr = get_current_thread();

	call	get_current_thread
	mov	QWORD PTR thr$[rsp], rax

; 173  : 
; 174  : 	shared_mem_t *mem = NULL;

	mov	QWORD PTR mem$[rsp], 0

; 175  : 	for (int i = 0; i < shared_mem_list->pointer; i++) {

	mov	DWORD PTR i$3[rsp], 0
	jmp	SHORT $LN18@shm_unlink
$LN17@shm_unlink:
	mov	eax, DWORD PTR i$3[rsp]
	inc	eax
	mov	DWORD PTR i$3[rsp], eax
$LN18@shm_unlink:
	mov	rax, QWORD PTR ?shared_mem_list@@3PEAU_list_@@EA ; shared_mem_list
	mov	eax, DWORD PTR [rax]
	cmp	DWORD PTR i$3[rsp], eax
	jae	SHORT $LN16@shm_unlink

; 176  : 		mem = (shared_mem_t*)list_get_at(shared_mem_list, i);

	mov	edx, DWORD PTR i$3[rsp]
	mov	rcx, QWORD PTR ?shared_mem_list@@3PEAU_list_@@EA ; shared_mem_list
	call	list_get_at
	mov	QWORD PTR mem$[rsp], rax

; 177  : 		if (mem->key == key)

	mov	rax, QWORD PTR mem$[rsp]
	mov	ecx, DWORD PTR key$[rsp]
	cmp	DWORD PTR [rax+16], ecx
	jne	SHORT $LN15@shm_unlink

; 178  : 			break;

	jmp	SHORT $LN16@shm_unlink
$LN15@shm_unlink:

; 179  : 	}

	jmp	SHORT $LN17@shm_unlink
$LN16@shm_unlink:

; 180  : 
; 181  : 	if (mem == NULL)

	cmp	QWORD PTR mem$[rsp], 0
	jne	SHORT $LN14@shm_unlink

; 182  : 		return;

	jmp	$LN19@shm_unlink
$LN14@shm_unlink:

; 183  : 
; 184  : 	/* Check if the creator of this shared memory
; 185  : 	 * segment is this thread, if not then just
; 186  : 	 * unmap the virtual address without freeing up
; 187  : 	 * the physical addresses
; 188  : 	 */
; 189  : 	if (mem->map_in_thread != thr) {

	mov	rax, QWORD PTR mem$[rsp]
	mov	rcx, QWORD PTR thr$[rsp]
	cmp	QWORD PTR [rax+56], rcx
	je	$LN13@shm_unlink

; 190  : 		au_vm_area_t *vma = AuFindVMAUniqueId(mem->key);

	mov	rax, QWORD PTR mem$[rsp]
	mov	ecx, DWORD PTR [rax+16]
	call	?AuFindVMAUniqueId@@YAPEAU_vma_area_@@I@Z ; AuFindVMAUniqueId
	mov	QWORD PTR vma$5[rsp], rax

; 191  : 		uint64_t start_addr = vma->start;

	mov	rax, QWORD PTR vma$5[rsp]
	mov	rax, QWORD PTR [rax]
	mov	QWORD PTR start_addr$9[rsp], rax

; 192  : 		uint64_t length = vma->length;

	mov	rax, QWORD PTR vma$5[rsp]
	mov	rax, QWORD PTR [rax+40]
	mov	QWORD PTR length$10[rsp], rax

; 193  : 
; 194  : 		for (int i = 0; i < mem->num_frames; i++)

	mov	DWORD PTR i$2[rsp], 0
	jmp	SHORT $LN12@shm_unlink
$LN11@shm_unlink:
	mov	eax, DWORD PTR i$2[rsp]
	inc	eax
	mov	DWORD PTR i$2[rsp], eax
$LN12@shm_unlink:
	mov	rax, QWORD PTR mem$[rsp]
	mov	eax, DWORD PTR [rax+36]
	cmp	DWORD PTR i$2[rsp], eax
	jae	SHORT $LN10@shm_unlink

; 195  : 			AuUnmapPage(start_addr + i * 4096, false);

	mov	eax, DWORD PTR i$2[rsp]
	imul	eax, 4096				; 00001000H
	cdqe
	mov	rcx, QWORD PTR start_addr$9[rsp]
	add	rcx, rax
	mov	rax, rcx
	xor	edx, edx
	mov	rcx, rax
	call	AuUnmapPage
	jmp	SHORT $LN11@shm_unlink
$LN10@shm_unlink:

; 196  : 
; 197  : 		AuRemoveVMArea(proc, vma);

	mov	rdx, QWORD PTR vma$5[rsp]
	mov	rcx, QWORD PTR proc$[rsp]
	call	?AuRemoveVMArea@@YAXPEAU_process_@@PEAU_vma_area_@@@Z ; AuRemoveVMArea

; 198  : 		mem->link_count--;

	mov	rax, QWORD PTR mem$[rsp]
	movzx	eax, WORD PTR [rax+40]
	dec	ax
	mov	rcx, QWORD PTR mem$[rsp]
	mov	WORD PTR [rcx+40], ax
$LN13@shm_unlink:

; 199  : 	}
; 200  : 
; 201  : 	/* Check if the creator of this sh memory
; 202  : 	 * segment is this, than unmap the physical
; 203  : 	 * address also */
; 204  : 	if (mem->map_in_thread == thr) {

	mov	rax, QWORD PTR mem$[rsp]
	mov	rcx, QWORD PTR thr$[rsp]
	cmp	QWORD PTR [rax+56], rcx
	jne	$LN9@shm_unlink

; 205  : 		/* check the number of links */
; 206  : 		if (mem->link_count != 0) {

	mov	rax, QWORD PTR mem$[rsp]
	movzx	eax, WORD PTR [rax+40]
	test	eax, eax
	je	SHORT $LN8@shm_unlink

; 207  : 			/* means, another process still working on
; 208  : 			 * this sh mem segment
; 209  : 			 */
; 210  : 			return;

	jmp	$LN19@shm_unlink
$LN8@shm_unlink:

; 211  : 		}
; 212  : 
; 213  : 		uint64_t start_addr = (uint64_t)mem->first_process_vaddr;

	mov	rax, QWORD PTR mem$[rsp]
	mov	rax, QWORD PTR [rax+64]
	mov	QWORD PTR start_addr$6[rsp], rax

; 214  : 		for (int i = 0; i < mem->num_frames; i++) 

	mov	DWORD PTR i$4[rsp], 0
	jmp	SHORT $LN7@shm_unlink
$LN6@shm_unlink:
	mov	eax, DWORD PTR i$4[rsp]
	inc	eax
	mov	DWORD PTR i$4[rsp], eax
$LN7@shm_unlink:
	mov	rax, QWORD PTR mem$[rsp]
	mov	eax, DWORD PTR [rax+36]
	cmp	DWORD PTR i$4[rsp], eax
	jae	SHORT $LN5@shm_unlink

; 215  : 			AuUnmapPage(start_addr + i * 4096, true);

	mov	eax, DWORD PTR i$4[rsp]
	imul	eax, 4096				; 00001000H
	cdqe
	mov	rcx, QWORD PTR start_addr$6[rsp]
	add	rcx, rax
	mov	rax, rcx
	mov	dl, 1
	mov	rcx, rax
	call	AuUnmapPage
	jmp	SHORT $LN6@shm_unlink
$LN5@shm_unlink:

; 216  : 
; 217  : 		/* Remove the vm area */
; 218  : 		au_vm_area_t *vma = AuFindVMAUniqueId(mem->key);

	mov	rax, QWORD PTR mem$[rsp]
	mov	ecx, DWORD PTR [rax+16]
	call	?AuFindVMAUniqueId@@YAPEAU_vma_area_@@I@Z ; AuFindVMAUniqueId
	mov	QWORD PTR vma$7[rsp], rax

; 219  : 		AuRemoveVMArea(proc, vma);

	mov	rdx, QWORD PTR vma$7[rsp]
	mov	rcx, QWORD PTR proc$[rsp]
	call	?AuRemoveVMArea@@YAXPEAU_process_@@PEAU_vma_area_@@@Z ; AuRemoveVMArea

; 220  : 
; 221  : 		/* Finally delete the shared memory segment */
; 222  : 		for (int i = 0; i < shared_mem_list->pointer; i++) {

	mov	DWORD PTR i$1[rsp], 0
	jmp	SHORT $LN4@shm_unlink
$LN3@shm_unlink:
	mov	eax, DWORD PTR i$1[rsp]
	inc	eax
	mov	DWORD PTR i$1[rsp], eax
$LN4@shm_unlink:
	mov	rax, QWORD PTR ?shared_mem_list@@3PEAU_list_@@EA ; shared_mem_list
	mov	eax, DWORD PTR [rax]
	cmp	DWORD PTR i$1[rsp], eax
	jae	SHORT $LN2@shm_unlink

; 223  : 			shared_mem_t *m = (shared_mem_t*)list_get_at(shared_mem_list, i);

	mov	edx, DWORD PTR i$1[rsp]
	mov	rcx, QWORD PTR ?shared_mem_list@@3PEAU_list_@@EA ; shared_mem_list
	call	list_get_at
	mov	QWORD PTR m$8[rsp], rax

; 224  : 			if (m->key == mem->key) {

	mov	rax, QWORD PTR m$8[rsp]
	mov	rcx, QWORD PTR mem$[rsp]
	mov	ecx, DWORD PTR [rcx+16]
	cmp	DWORD PTR [rax+16], ecx
	jne	SHORT $LN1@shm_unlink

; 225  : 				list_remove(shared_mem_list, i);

	mov	edx, DWORD PTR i$1[rsp]
	mov	rcx, QWORD PTR ?shared_mem_list@@3PEAU_list_@@EA ; shared_mem_list
	call	list_remove
$LN1@shm_unlink:

; 226  : 			}
; 227  : 		}

	jmp	SHORT $LN3@shm_unlink
$LN2@shm_unlink:

; 228  : 
; 229  : 		free(mem);

	mov	rcx, QWORD PTR mem$[rsp]
	call	free
$LN9@shm_unlink:
$LN19@shm_unlink:

; 230  : 	}
; 231  : 
; 232  : }

	add	rsp, 136				; 00000088H
	ret	0
?shm_unlink@@YAXI@Z ENDP				; shm_unlink
_TEXT	ENDS
; Function compile flags: /Odtpy
; File e:\xeneva project\xeneva\aurora\aurora\mmngr\shmem.cpp
_TEXT	SEGMENT
mem$ = 32
vma$1 = 40
vma$2 = 48
i$3 = 56
i$4 = 60
i$5 = 64
ret_addre$ = 72
virt$6 = 80
current_virt$7 = 88
proc$ = 96
virtual_addr$8 = 104
phys_addr$9 = 112
cr3$10 = 120
p$11 = 128
id$ = 160
shmaddr$ = 168
shmflg$ = 176
?AuObtainShMem@@YAPEAXIPEAXH@Z PROC			; AuObtainShMem

; 88   : void* AuObtainShMem (uint32_t id, void * shmaddr, int shmflg) {

$LN18:
	mov	DWORD PTR [rsp+24], r8d
	mov	QWORD PTR [rsp+16], rdx
	mov	DWORD PTR [rsp+8], ecx
	sub	rsp, 152				; 00000098H

; 89   : 	x64_cli();

	call	x64_cli

; 90   : 	shared_mem_t *mem = NULL;

	mov	QWORD PTR mem$[rsp], 0

; 91   : 	process_t * proc = get_current_process();

	call	?get_current_process@@YAPEAU_process_@@XZ ; get_current_process
	mov	QWORD PTR proc$[rsp], rax

; 92   : 
; 93   : 	for (int i = 0; i < shared_mem_list->pointer; i++) {

	mov	DWORD PTR i$3[rsp], 0
	jmp	SHORT $LN15@AuObtainSh
$LN14@AuObtainSh:
	mov	eax, DWORD PTR i$3[rsp]
	inc	eax
	mov	DWORD PTR i$3[rsp], eax
$LN15@AuObtainSh:
	mov	rax, QWORD PTR ?shared_mem_list@@3PEAU_list_@@EA ; shared_mem_list
	mov	eax, DWORD PTR [rax]
	cmp	DWORD PTR i$3[rsp], eax
	jae	SHORT $LN13@AuObtainSh

; 94   : 		mem = (shared_mem_t*)list_get_at(shared_mem_list, i);

	mov	edx, DWORD PTR i$3[rsp]
	mov	rcx, QWORD PTR ?shared_mem_list@@3PEAU_list_@@EA ; shared_mem_list
	call	list_get_at
	mov	QWORD PTR mem$[rsp], rax

; 95   : 		if (mem->id == id){

	mov	rax, QWORD PTR mem$[rsp]
	mov	ecx, DWORD PTR id$[rsp]
	cmp	DWORD PTR [rax], ecx
	jne	SHORT $LN12@AuObtainSh

; 96   : 			break;

	jmp	SHORT $LN13@AuObtainSh
$LN12@AuObtainSh:

; 97   : 		}
; 98   : 	}

	jmp	SHORT $LN14@AuObtainSh
$LN13@AuObtainSh:

; 99   : 
; 100  : 	if (mem == NULL)

	cmp	QWORD PTR mem$[rsp], 0
	jne	SHORT $LN11@AuObtainSh

; 101  : 		return NULL;

	xor	eax, eax
	jmp	$LN16@AuObtainSh
$LN11@AuObtainSh:

; 102  : 
; 103  : 
; 104  : 	void* ret_addre = NULL;

	mov	QWORD PTR ret_addre$[rsp], 0

; 105  : 	/* Shared memory was already mapped so, 
; 106  : 	 * lets copy the physical frames from that process's
; 107  : 	 * address space */
; 108  : 	if (mem->map_in_thread) {

	mov	rax, QWORD PTR mem$[rsp]
	cmp	QWORD PTR [rax+56], 0
	je	$LN10@AuObtainSh

; 109  : 		uint64_t cr3 = mem->map_in_thread->frame.cr3;

	mov	rax, QWORD PTR mem$[rsp]
	mov	rax, QWORD PTR [rax+56]
	mov	rax, QWORD PTR [rax+192]
	mov	QWORD PTR cr3$10[rsp], rax

; 110  : 		uint64_t virtual_addr = (uint64_t)mem->first_process_vaddr;

	mov	rax, QWORD PTR mem$[rsp]
	mov	rax, QWORD PTR [rax+64]
	mov	QWORD PTR virtual_addr$8[rsp], rax

; 111  : 		/*Now we have the first virtual address, lets map in */
; 112  : 		for (int i = 0; i < mem->num_frames; i++) {

	mov	DWORD PTR i$4[rsp], 0
	jmp	SHORT $LN9@AuObtainSh
$LN8@AuObtainSh:
	mov	eax, DWORD PTR i$4[rsp]
	inc	eax
	mov	DWORD PTR i$4[rsp], eax
$LN9@AuObtainSh:
	mov	rax, QWORD PTR mem$[rsp]
	mov	eax, DWORD PTR [rax+36]
	cmp	DWORD PTR i$4[rsp], eax
	jae	SHORT $LN7@AuObtainSh

; 113  : 			uint64_t *phys_addr = (uint64_t*)AuGetPhysicalAddress(cr3,virtual_addr + i * 4096);

	mov	eax, DWORD PTR i$4[rsp]
	imul	eax, 4096				; 00001000H
	cdqe
	mov	rcx, QWORD PTR virtual_addr$8[rsp]
	add	rcx, rax
	mov	rax, rcx
	mov	rdx, rax
	mov	rcx, QWORD PTR cr3$10[rsp]
	call	AuGetPhysicalAddress
	mov	QWORD PTR phys_addr$9[rsp], rax

; 114  : 			uint64_t current_virt = (uint64_t)AuGetFreePage(0,true, 0);

	xor	r8d, r8d
	mov	dl, 1
	xor	ecx, ecx
	call	AuGetFreePage
	mov	QWORD PTR current_virt$7[rsp], rax

; 115  : 			AuMapPage(v2p((uint64_t)phys_addr),current_virt,PAGING_USER);

	mov	rcx, QWORD PTR phys_addr$9[rsp]
	call	v2p
	mov	r8b, 4
	mov	rdx, QWORD PTR current_virt$7[rsp]
	mov	rcx, rax
	call	AuMapPage

; 116  : 			if (ret_addre == NULL)

	cmp	QWORD PTR ret_addre$[rsp], 0
	jne	SHORT $LN6@AuObtainSh

; 117  : 				ret_addre = (void*)current_virt;

	mov	rax, QWORD PTR current_virt$7[rsp]
	mov	QWORD PTR ret_addre$[rsp], rax
$LN6@AuObtainSh:

; 118  : 		}

	jmp	SHORT $LN8@AuObtainSh
$LN7@AuObtainSh:

; 119  : 
; 120  : 		mem->link_count++;

	mov	rax, QWORD PTR mem$[rsp]
	movzx	eax, WORD PTR [rax+40]
	inc	ax
	mov	rcx, QWORD PTR mem$[rsp]
	mov	WORD PTR [rcx+40], ax

; 121  : 
; 122  : 		/* Keep a track of this shared memory segment */
; 123  : 		au_vm_area_t *vma = (au_vm_area_t*)malloc(sizeof(au_vm_area_t));

	mov	ecx, 80					; 00000050H
	call	malloc
	mov	QWORD PTR vma$2[rsp], rax

; 124  : 		vma->start = (uint64_t)ret_addre;

	mov	rax, QWORD PTR vma$2[rsp]
	mov	rcx, QWORD PTR ret_addre$[rsp]
	mov	QWORD PTR [rax], rcx

; 125  : 		vma->end = (vma->start + mem->num_frames * 4096);

	mov	rax, QWORD PTR mem$[rsp]
	mov	eax, DWORD PTR [rax+36]
	imul	eax, 4096				; 00001000H
	mov	eax, eax
	mov	rcx, QWORD PTR vma$2[rsp]
	add	rax, QWORD PTR [rcx]
	mov	rcx, QWORD PTR vma$2[rsp]
	mov	QWORD PTR [rcx+8], rax

; 126  : 		vma->file = NULL;

	mov	rax, QWORD PTR vma$2[rsp]
	mov	QWORD PTR [rax+24], 0

; 127  : 		vma->offset = 0;

	mov	rax, QWORD PTR vma$2[rsp]
	mov	QWORD PTR [rax+32], 0

; 128  : 		vma->prot_flags = VM_READ | VM_EXEC | VM_SHARED;

	mov	eax, 13
	mov	rcx, QWORD PTR vma$2[rsp]
	mov	WORD PTR [rcx+16], ax

; 129  : 		vma->type = VM_TYPE_DATA;

	mov	rax, QWORD PTR vma$2[rsp]
	mov	BYTE PTR [rax+48], 2

; 130  : 		vma->unique_id = mem->key;

	mov	rax, QWORD PTR vma$2[rsp]
	mov	rcx, QWORD PTR mem$[rsp]
	mov	ecx, DWORD PTR [rcx+16]
	mov	DWORD PTR [rax+52], ecx

; 131  : 		vma->length = mem->num_frames * 4096; 

	mov	rax, QWORD PTR mem$[rsp]
	mov	eax, DWORD PTR [rax+36]
	imul	eax, 4096				; 00001000H
	mov	eax, eax
	mov	rcx, QWORD PTR vma$2[rsp]
	mov	QWORD PTR [rcx+40], rax

; 132  : 		AuInsertVMArea(proc, vma);

	mov	rdx, QWORD PTR vma$2[rsp]
	mov	rcx, QWORD PTR proc$[rsp]
	call	?AuInsertVMArea@@YAXPEAU_process_@@PEAU_vma_area_@@@Z ; AuInsertVMArea
	jmp	$LN5@AuObtainSh
$LN10@AuObtainSh:

; 133  : 	}else {
; 134  : 		/* No process has mapped the shared memory, let this process's
; 135  : 		   thread map in some memory for other process to use */
; 136  : 		mem->map_in_thread = get_current_thread();

	call	get_current_thread
	mov	rcx, QWORD PTR mem$[rsp]
	mov	QWORD PTR [rcx+56], rax

; 137  : 
; 138  : 		/* Allocate some memory for this process */
; 139  : 		for (int i = 0; i < mem->num_frames; i++) {

	mov	DWORD PTR i$5[rsp], 0
	jmp	SHORT $LN4@AuObtainSh
$LN3@AuObtainSh:
	mov	eax, DWORD PTR i$5[rsp]
	inc	eax
	mov	DWORD PTR i$5[rsp], eax
$LN4@AuObtainSh:
	mov	rax, QWORD PTR mem$[rsp]
	mov	eax, DWORD PTR [rax+36]
	cmp	DWORD PTR i$5[rsp], eax
	jae	SHORT $LN2@AuObtainSh

; 140  : 			void* p = AuPmmngrAlloc();

	call	AuPmmngrAlloc
	mov	QWORD PTR p$11[rsp], rax

; 141  : 			uint64_t virt = (uint64_t)AuGetFreePage(0,true, 0);

	xor	r8d, r8d
	mov	dl, 1
	xor	ecx, ecx
	call	AuGetFreePage
	mov	QWORD PTR virt$6[rsp], rax

; 142  : 			AuMapPage ((uint64_t)p,virt, PAGING_USER);

	mov	r8b, 4
	mov	rdx, QWORD PTR virt$6[rsp]
	mov	rcx, QWORD PTR p$11[rsp]
	call	AuMapPage

; 143  : 
; 144  : 			/* Store the first virtual address */
; 145  : 			if (mem->first_process_vaddr == NULL)

	mov	rax, QWORD PTR mem$[rsp]
	cmp	QWORD PTR [rax+64], 0
	jne	SHORT $LN1@AuObtainSh

; 146  : 				mem->first_process_vaddr = (void*)virt;

	mov	rax, QWORD PTR mem$[rsp]
	mov	rcx, QWORD PTR virt$6[rsp]
	mov	QWORD PTR [rax+64], rcx
$LN1@AuObtainSh:

; 147  : 		}

	jmp	SHORT $LN3@AuObtainSh
$LN2@AuObtainSh:

; 148  : 		ret_addre = mem->first_process_vaddr;

	mov	rax, QWORD PTR mem$[rsp]
	mov	rax, QWORD PTR [rax+64]
	mov	QWORD PTR ret_addre$[rsp], rax

; 149  : 
; 150  : 		/* Keep a track of this shared memory segment */
; 151  : 		au_vm_area_t *vma = (au_vm_area_t*)malloc(sizeof(au_vm_area_t));

	mov	ecx, 80					; 00000050H
	call	malloc
	mov	QWORD PTR vma$1[rsp], rax

; 152  : 		vma->start = (uint64_t)ret_addre;

	mov	rax, QWORD PTR vma$1[rsp]
	mov	rcx, QWORD PTR ret_addre$[rsp]
	mov	QWORD PTR [rax], rcx

; 153  : 		vma->end = (vma->start + mem->num_frames * 4096);

	mov	rax, QWORD PTR mem$[rsp]
	mov	eax, DWORD PTR [rax+36]
	imul	eax, 4096				; 00001000H
	mov	eax, eax
	mov	rcx, QWORD PTR vma$1[rsp]
	add	rax, QWORD PTR [rcx]
	mov	rcx, QWORD PTR vma$1[rsp]
	mov	QWORD PTR [rcx+8], rax

; 154  : 		vma->file = NULL;

	mov	rax, QWORD PTR vma$1[rsp]
	mov	QWORD PTR [rax+24], 0

; 155  : 		vma->offset = 0;

	mov	rax, QWORD PTR vma$1[rsp]
	mov	QWORD PTR [rax+32], 0

; 156  : 		vma->prot_flags = VM_READ | VM_EXEC | VM_SHARED;

	mov	eax, 13
	mov	rcx, QWORD PTR vma$1[rsp]
	mov	WORD PTR [rcx+16], ax

; 157  : 		vma->type = VM_TYPE_DATA;

	mov	rax, QWORD PTR vma$1[rsp]
	mov	BYTE PTR [rax+48], 2

; 158  : 		vma->length = mem->num_frames * 4096; 

	mov	rax, QWORD PTR mem$[rsp]
	mov	eax, DWORD PTR [rax+36]
	imul	eax, 4096				; 00001000H
	mov	eax, eax
	mov	rcx, QWORD PTR vma$1[rsp]
	mov	QWORD PTR [rcx+40], rax

; 159  : 		vma->unique_id = mem->key;

	mov	rax, QWORD PTR vma$1[rsp]
	mov	rcx, QWORD PTR mem$[rsp]
	mov	ecx, DWORD PTR [rcx+16]
	mov	DWORD PTR [rax+52], ecx

; 160  : 		AuInsertVMArea(proc, vma);

	mov	rdx, QWORD PTR vma$1[rsp]
	mov	rcx, QWORD PTR proc$[rsp]
	call	?AuInsertVMArea@@YAXPEAU_process_@@PEAU_vma_area_@@@Z ; AuInsertVMArea
$LN5@AuObtainSh:

; 161  : 	}
; 162  : 
; 163  : 	return ret_addre;

	mov	rax, QWORD PTR ret_addre$[rsp]
$LN16@AuObtainSh:

; 164  : }

	add	rsp, 152				; 00000098H
	ret	0
?AuObtainShMem@@YAPEAXIPEAXH@Z ENDP			; AuObtainShMem
_TEXT	ENDS
; Function compile flags: /Odtpy
; File e:\xeneva project\xeneva\aurora\aurora\mmngr\shmem.cpp
_TEXT	SEGMENT
i$1 = 32
tv87 = 36
sh_mem$ = 40
mem$2 = 48
proc$ = 56
key$ = 80
size$ = 88
flags$ = 96
?AuCreateShMem@@YAII_KI@Z PROC				; AuCreateShMem

; 54   : uint32_t AuCreateShMem (uint32_t key,size_t size, uint32_t flags) {

$LN9:
	mov	DWORD PTR [rsp+24], r8d
	mov	QWORD PTR [rsp+16], rdx
	mov	DWORD PTR [rsp+8], ecx
	sub	rsp, 72					; 00000048H

; 55   : 	x64_cli();

	call	x64_cli

; 56   : 	process_t* proc = get_current_process();

	call	?get_current_process@@YAPEAU_process_@@XZ ; get_current_process
	mov	QWORD PTR proc$[rsp], rax

; 57   : 
; 58   : 	for (int i = 0; i < shared_mem_list->pointer; i++) {

	mov	DWORD PTR i$1[rsp], 0
	jmp	SHORT $LN4@AuCreateSh
$LN3@AuCreateSh:
	mov	eax, DWORD PTR i$1[rsp]
	inc	eax
	mov	DWORD PTR i$1[rsp], eax
$LN4@AuCreateSh:
	mov	rax, QWORD PTR ?shared_mem_list@@3PEAU_list_@@EA ; shared_mem_list
	mov	eax, DWORD PTR [rax]
	cmp	DWORD PTR i$1[rsp], eax
	jae	SHORT $LN2@AuCreateSh

; 59   : 		shared_mem_t *mem = (shared_mem_t*)list_get_at(shared_mem_list, i);

	mov	edx, DWORD PTR i$1[rsp]
	mov	rcx, QWORD PTR ?shared_mem_list@@3PEAU_list_@@EA ; shared_mem_list
	call	list_get_at
	mov	QWORD PTR mem$2[rsp], rax

; 60   : 		if (mem->key == key)

	mov	rax, QWORD PTR mem$2[rsp]
	mov	ecx, DWORD PTR key$[rsp]
	cmp	DWORD PTR [rax+16], ecx
	jne	SHORT $LN1@AuCreateSh

; 61   : 			return mem->id;

	mov	rax, QWORD PTR mem$2[rsp]
	mov	eax, DWORD PTR [rax]
	jmp	$LN5@AuCreateSh
$LN1@AuCreateSh:

; 62   : 	}

	jmp	SHORT $LN3@AuCreateSh
$LN2@AuCreateSh:

; 63   : 	
; 64   : 	shared_mem_t *sh_mem = (shared_mem_t*)malloc(sizeof(shared_mem_t));

	mov	ecx, 72					; 00000048H
	call	malloc
	mov	QWORD PTR sh_mem$[rsp], rax

; 65   : 	memset(sh_mem, 0, sizeof(shared_mem_t));

	mov	r8d, 72					; 00000048H
	xor	edx, edx
	mov	rcx, QWORD PTR sh_mem$[rsp]
	call	memset

; 66   : 	sh_mem->id = sh_id;

	mov	rax, QWORD PTR sh_mem$[rsp]
	mov	ecx, DWORD PTR ?sh_id@@3IA		; sh_id
	mov	DWORD PTR [rax], ecx

; 67   : 	sh_mem->ptr = 0;

	mov	rax, QWORD PTR sh_mem$[rsp]
	mov	QWORD PTR [rax+8], 0

; 68   : 	sh_mem->key = key;

	mov	rax, QWORD PTR sh_mem$[rsp]
	mov	ecx, DWORD PTR key$[rsp]
	mov	DWORD PTR [rax+16], ecx

; 69   : 	sh_mem->size = size;

	mov	rax, QWORD PTR sh_mem$[rsp]
	mov	rcx, QWORD PTR size$[rsp]
	mov	QWORD PTR [rax+24], rcx

; 70   : 	sh_mem->num_frames = (size / 0x1000) + ((size % 0x1000) ? 1 : 0);

	xor	edx, edx
	mov	rax, QWORD PTR size$[rsp]
	mov	ecx, 4096				; 00001000H
	div	rcx
	mov	rax, rdx
	test	rax, rax
	je	SHORT $LN7@AuCreateSh
	mov	DWORD PTR tv87[rsp], 1
	jmp	SHORT $LN8@AuCreateSh
$LN7@AuCreateSh:
	mov	DWORD PTR tv87[rsp], 0
$LN8@AuCreateSh:
	xor	edx, edx
	mov	rax, QWORD PTR size$[rsp]
	mov	ecx, 4096				; 00001000H
	div	rcx
	movsxd	rcx, DWORD PTR tv87[rsp]
	add	rax, rcx
	mov	rcx, QWORD PTR sh_mem$[rsp]
	mov	DWORD PTR [rcx+36], eax

; 71   : 	sh_mem->link_count = 0;

	xor	eax, eax
	mov	rcx, QWORD PTR sh_mem$[rsp]
	mov	WORD PTR [rcx+40], ax

; 72   : 	sh_mem->map_in_thread = NULL;

	mov	rax, QWORD PTR sh_mem$[rsp]
	mov	QWORD PTR [rax+56], 0

; 73   : 	sh_mem->first_process_vaddr = NULL;

	mov	rax, QWORD PTR sh_mem$[rsp]
	mov	QWORD PTR [rax+64], 0

; 74   : 	sh_mem->shm_lnk_list = initialize_list();

	call	initialize_list
	mov	rcx, QWORD PTR sh_mem$[rsp]
	mov	QWORD PTR [rcx+48], rax

; 75   : 	list_add(shared_mem_list, sh_mem);

	mov	rdx, QWORD PTR sh_mem$[rsp]
	mov	rcx, QWORD PTR ?shared_mem_list@@3PEAU_list_@@EA ; shared_mem_list
	call	list_add

; 76   : 	/* also add it to the process's shared_mem_list */
; 77   : 	sh_id++;

	mov	eax, DWORD PTR ?sh_id@@3IA		; sh_id
	inc	eax
	mov	DWORD PTR ?sh_id@@3IA, eax		; sh_id

; 78   : 	return sh_mem->id;

	mov	rax, QWORD PTR sh_mem$[rsp]
	mov	eax, DWORD PTR [rax]
$LN5@AuCreateSh:

; 79   : }

	add	rsp, 72					; 00000048H
	ret	0
?AuCreateShMem@@YAII_KI@Z ENDP				; AuCreateShMem
_TEXT	ENDS
; Function compile flags: /Odtpy
; File e:\xeneva project\xeneva\aurora\aurora\mmngr\shmem.cpp
_TEXT	SEGMENT
?AuInitializeShMem@@YAXXZ PROC				; AuInitializeShMem

; 45   : void AuInitializeShMem () {

$LN3:
	sub	rsp, 40					; 00000028H

; 46   : 	shared_mem_list = initialize_list();

	call	initialize_list
	mov	QWORD PTR ?shared_mem_list@@3PEAU_list_@@EA, rax ; shared_mem_list

; 47   : 	sh_id = 1;

	mov	DWORD PTR ?sh_id@@3IA, 1		; sh_id

; 48   : }

	add	rsp, 40					; 00000028H
	ret	0
?AuInitializeShMem@@YAXXZ ENDP				; AuInitializeShMem
_TEXT	ENDS
END
