; Listing generated by Microsoft (R) Optimizing Compiler Version 17.00.50727.1 

include listing.inc

INCLUDELIB LIBCMT
INCLUDELIB OLDNAMES

CONST	SEGMENT
$SG3509	DB	'uthread', 00H
CONST	ENDS
PUBLIC	?get_thread_id@@YAGXZ				; get_thread_id
PUBLIC	?create_uthread@@YAXP6AXPEAX@Z@Z		; create_uthread
PUBLIC	?sys_sleep@@YAX_K@Z				; sys_sleep
EXTRN	?pmmngr_alloc@@YAPEAXXZ:PROC			; pmmngr_alloc
EXTRN	x64_cli:PROC
EXTRN	?map_page@@YA_N_K0@Z:PROC			; map_page
EXTRN	?create_user_thread@@YAPEAU_thread_@@P6AXPEAX@Z_K2QEADE@Z:PROC ; create_user_thread
EXTRN	?get_current_thread@@YAPEAU_thread_@@XZ:PROC	; get_current_thread
EXTRN	?force_sched@@YAXXZ:PROC			; force_sched
EXTRN	?sleep_thread@@YAXPEAU_thread_@@_K@Z:PROC	; sleep_thread
pdata	SEGMENT
$pdata$?get_thread_id@@YAGXZ DD imagerel $LN3
	DD	imagerel $LN3+26
	DD	imagerel $unwind$?get_thread_id@@YAGXZ
$pdata$?create_uthread@@YAXP6AXPEAX@Z@Z DD imagerel $LN6
	DD	imagerel $LN6+189
	DD	imagerel $unwind$?create_uthread@@YAXP6AXPEAX@Z@Z
$pdata$?sys_sleep@@YAX_K@Z DD imagerel $LN3
	DD	imagerel $LN3+49
	DD	imagerel $unwind$?sys_sleep@@YAX_K@Z
pdata	ENDS
xdata	SEGMENT
$unwind$?get_thread_id@@YAGXZ DD 010401H
	DD	04204H
$unwind$?create_uthread@@YAXP6AXPEAX@Z@Z DD 010901H
	DD	0c209H
$unwind$?sys_sleep@@YAX_K@Z DD 010901H
	DD	06209H
xdata	ENDS
; Function compile flags: /Odtp
; File e:\xeneva project\xeneva\aurora\aurora\sysserv\systhread.cpp
_TEXT	SEGMENT
t$ = 32
ms$ = 64
?sys_sleep@@YAX_K@Z PROC				; sys_sleep

; 36   : void sys_sleep (uint64_t ms) {

$LN3:
	mov	QWORD PTR [rsp+8], rcx
	sub	rsp, 56					; 00000038H

; 37   : 	x64_cli();

	call	x64_cli

; 38   : 	thread_t* t = get_current_thread();

	call	?get_current_thread@@YAPEAU_thread_@@XZ	; get_current_thread
	mov	QWORD PTR t$[rsp], rax

; 39   : 	sleep_thread (t, ms);

	mov	rdx, QWORD PTR ms$[rsp]
	mov	rcx, QWORD PTR t$[rsp]
	call	?sleep_thread@@YAXPEAU_thread_@@_K@Z	; sleep_thread

; 40   : 	force_sched();

	call	?force_sched@@YAXXZ			; force_sched

; 41   : }

	add	rsp, 56					; 00000038H
	ret	0
?sys_sleep@@YAX_K@Z ENDP				; sys_sleep
_TEXT	ENDS
; Function compile flags: /Odtp
; File e:\xeneva project\xeneva\aurora\aurora\sysserv\systhread.cpp
_TEXT	SEGMENT
i$1 = 48
uthr$ = 56
tv69 = 64
cthread$ = 72
t$ = 80
entry$ = 112
?create_uthread@@YAXP6AXPEAX@Z@Z PROC			; create_uthread

; 22   : void create_uthread (void (*entry) (void*)) {

$LN6:
	mov	QWORD PTR [rsp+8], rcx
	sub	rsp, 104				; 00000068H

; 23   : 	for (int i = 0; i < 0x100000/ 4096; i++)

	mov	DWORD PTR i$1[rsp], 0
	jmp	SHORT $LN3@create_uth
$LN2@create_uth:
	mov	eax, DWORD PTR i$1[rsp]
	inc	eax
	mov	DWORD PTR i$1[rsp], eax
$LN3@create_uth:
	cmp	DWORD PTR i$1[rsp], 256			; 00000100H
	jge	SHORT $LN1@create_uth

; 24   : 		map_page((uint64_t)pmmngr_alloc(), 0x0000000080000000 + i * 4096);

	mov	eax, DWORD PTR i$1[rsp]
	imul	eax, 4096				; 00001000H
	add	eax, -2147483648			; 80000000H
	mov	eax, eax
	mov	QWORD PTR tv69[rsp], rax
	call	?pmmngr_alloc@@YAPEAXXZ			; pmmngr_alloc
	mov	rcx, QWORD PTR tv69[rsp]
	mov	rdx, rcx
	mov	rcx, rax
	call	?map_page@@YA_N_K0@Z			; map_page
	jmp	SHORT $LN2@create_uth
$LN1@create_uth:

; 25   : 
; 26   : 	thread_t *cthread = get_current_thread();

	call	?get_current_thread@@YAPEAU_thread_@@XZ	; get_current_thread
	mov	QWORD PTR cthread$[rsp], rax

; 27   : 	uthread *uthr = (uthread*)pmmngr_alloc();

	call	?pmmngr_alloc@@YAPEAXXZ			; pmmngr_alloc
	mov	QWORD PTR uthr$[rsp], rax

; 28   : 	uthr->entry = entry;

	mov	rax, QWORD PTR uthr$[rsp]
	mov	rcx, QWORD PTR entry$[rsp]
	mov	QWORD PTR [rax], rcx

; 29   : 	uthr->self_pointer = uthr;

	mov	rax, QWORD PTR uthr$[rsp]
	mov	rcx, QWORD PTR uthr$[rsp]
	mov	QWORD PTR [rax+8], rcx

; 30   : 	thread_t * t = create_user_thread (entry, (uint64_t)pmmngr_alloc() + 4096, cthread->cr3, "uthread", 1);

	call	?pmmngr_alloc@@YAPEAXXZ			; pmmngr_alloc
	add	rax, 4096				; 00001000H
	mov	BYTE PTR [rsp+32], 1
	lea	r9, OFFSET FLAT:$SG3509
	mov	rcx, QWORD PTR cthread$[rsp]
	mov	r8, QWORD PTR [rcx+192]
	mov	rdx, rax
	mov	rcx, QWORD PTR entry$[rsp]
	call	?create_user_thread@@YAPEAU_thread_@@P6AXPEAX@Z_K2QEADE@Z ; create_user_thread
	mov	QWORD PTR t$[rsp], rax

; 31   : 	
; 32   : 	//NOT IMPLEMENTED YET
; 33   : }

	add	rsp, 104				; 00000068H
	ret	0
?create_uthread@@YAXP6AXPEAX@Z@Z ENDP			; create_uthread
_TEXT	ENDS
; Function compile flags: /Odtp
; File e:\xeneva project\xeneva\aurora\aurora\sysserv\systhread.cpp
_TEXT	SEGMENT
?get_thread_id@@YAGXZ PROC				; get_thread_id

; 16   : uint16_t get_thread_id () {

$LN3:
	sub	rsp, 40					; 00000028H

; 17   : 	x64_cli ();

	call	x64_cli

; 18   : 	return get_current_thread()->id;

	call	?get_current_thread@@YAPEAU_thread_@@XZ	; get_current_thread
	movzx	eax, WORD PTR [rax+226]

; 19   : }

	add	rsp, 40					; 00000028H
	ret	0
?get_thread_id@@YAGXZ ENDP				; get_thread_id
_TEXT	ENDS
END
