; Listing generated by Microsoft (R) Optimizing Compiler Version 17.00.50727.1 

include listing.inc

INCLUDELIB LIBCMT
INCLUDELIB OLDNAMES

CONST	SEGMENT
$SG3510	DB	'uthread', 00H
CONST	ENDS
PUBLIC	?get_thread_id@@YAGXZ				; get_thread_id
PUBLIC	?create_uthread@@YAXP6AXPEAX@Z@Z		; create_uthread
PUBLIC	?sys_sleep@@YAX_K@Z				; sys_sleep
EXTRN	?pmmngr_alloc@@YAPEAXXZ:PROC			; pmmngr_alloc
EXTRN	x64_cli:PROC
EXTRN	?create_user_thread@@YAPEAU_thread_@@P6AXPEAX@Z_K2QEADE@Z:PROC ; create_user_thread
EXTRN	?get_current_thread@@YAPEAU_thread_@@XZ:PROC	; get_current_thread
EXTRN	?force_sched@@YAXXZ:PROC			; force_sched
EXTRN	?sleep_thread@@YAXPEAU_thread_@@_K@Z:PROC	; sleep_thread
EXTRN	?create_inc_stack@@YAPEA_KPEA_K@Z:PROC		; create_inc_stack
pdata	SEGMENT
$pdata$?get_thread_id@@YAGXZ DD imagerel $LN3
	DD	imagerel $LN3+26
	DD	imagerel $unwind$?get_thread_id@@YAGXZ
$pdata$?create_uthread@@YAXP6AXPEAX@Z@Z DD imagerel $LN3
	DD	imagerel $LN3+127
	DD	imagerel $unwind$?create_uthread@@YAXP6AXPEAX@Z@Z
$pdata$?sys_sleep@@YAX_K@Z DD imagerel $LN3
	DD	imagerel $LN3+49
	DD	imagerel $unwind$?sys_sleep@@YAX_K@Z
pdata	ENDS
xdata	SEGMENT
$unwind$?get_thread_id@@YAGXZ DD 010401H
	DD	04204H
$unwind$?create_uthread@@YAXP6AXPEAX@Z@Z DD 010901H
	DD	0a209H
$unwind$?sys_sleep@@YAX_K@Z DD 010901H
	DD	06209H
xdata	ENDS
; Function compile flags: /Odtp
; File e:\xeneva project\xeneva\aurora\aurora\sysserv\systhread.cpp
_TEXT	SEGMENT
t$ = 32
ms$ = 64
?sys_sleep@@YAX_K@Z PROC				; sys_sleep

; 38   : void sys_sleep (uint64_t ms) {

$LN3:
	mov	QWORD PTR [rsp+8], rcx
	sub	rsp, 56					; 00000038H

; 39   : 	x64_cli();

	call	x64_cli

; 40   : 	thread_t* t = get_current_thread();

	call	?get_current_thread@@YAPEAU_thread_@@XZ	; get_current_thread
	mov	QWORD PTR t$[rsp], rax

; 41   : 	sleep_thread (t, ms);

	mov	rdx, QWORD PTR ms$[rsp]
	mov	rcx, QWORD PTR t$[rsp]
	call	?sleep_thread@@YAXPEAU_thread_@@_K@Z	; sleep_thread

; 42   : 	force_sched();

	call	?force_sched@@YAXXZ			; force_sched

; 43   : }

	add	rsp, 56					; 00000038H
	ret	0
?sys_sleep@@YAX_K@Z ENDP				; sys_sleep
_TEXT	ENDS
; Function compile flags: /Odtp
; File e:\xeneva project\xeneva\aurora\aurora\sysserv\systhread.cpp
_TEXT	SEGMENT
uthr$ = 48
cthread$ = 56
stack$ = 64
t$ = 72
entry$ = 96
?create_uthread@@YAXP6AXPEAX@Z@Z PROC			; create_uthread

; 22   : void create_uthread (void (*entry) (void*)) {

$LN3:
	mov	QWORD PTR [rsp+8], rcx
	sub	rsp, 88					; 00000058H

; 23   : 
; 24   : 	/*
; 25   : 	 * Not implemented properly
; 26   : 	 *
; 27   : 	 * when syscalls occurs it causes page fault 
; 28   : 	 */
; 29   :     thread_t *cthread = get_current_thread();

	call	?get_current_thread@@YAPEAU_thread_@@XZ	; get_current_thread
	mov	QWORD PTR cthread$[rsp], rax

; 30   : 	uint64_t stack = (uint64_t)create_inc_stack((uint64_t*)cthread->cr3);

	mov	rax, QWORD PTR cthread$[rsp]
	mov	rcx, QWORD PTR [rax+192]
	call	?create_inc_stack@@YAPEA_KPEA_K@Z	; create_inc_stack
	mov	QWORD PTR stack$[rsp], rax

; 31   : 	uthread *uthr = (uthread*)pmmngr_alloc();

	call	?pmmngr_alloc@@YAPEAXXZ			; pmmngr_alloc
	mov	QWORD PTR uthr$[rsp], rax

; 32   : 	uthr->entry = entry;

	mov	rax, QWORD PTR uthr$[rsp]
	mov	rcx, QWORD PTR entry$[rsp]
	mov	QWORD PTR [rax], rcx

; 33   : 	uthr->self_pointer = uthr;

	mov	rax, QWORD PTR uthr$[rsp]
	mov	rcx, QWORD PTR uthr$[rsp]
	mov	QWORD PTR [rax+8], rcx

; 34   : 	thread_t * t = create_user_thread (entry, stack, cthread->cr3, "uthread", 1);

	mov	BYTE PTR [rsp+32], 1
	lea	r9, OFFSET FLAT:$SG3510
	mov	rax, QWORD PTR cthread$[rsp]
	mov	r8, QWORD PTR [rax+192]
	mov	rdx, QWORD PTR stack$[rsp]
	mov	rcx, QWORD PTR entry$[rsp]
	call	?create_user_thread@@YAPEAU_thread_@@P6AXPEAX@Z_K2QEADE@Z ; create_user_thread
	mov	QWORD PTR t$[rsp], rax

; 35   : }

	add	rsp, 88					; 00000058H
	ret	0
?create_uthread@@YAXP6AXPEAX@Z@Z ENDP			; create_uthread
_TEXT	ENDS
; Function compile flags: /Odtp
; File e:\xeneva project\xeneva\aurora\aurora\sysserv\systhread.cpp
_TEXT	SEGMENT
?get_thread_id@@YAGXZ PROC				; get_thread_id

; 16   : uint16_t get_thread_id () {

$LN3:
	sub	rsp, 40					; 00000028H

; 17   : 	x64_cli ();

	call	x64_cli

; 18   : 	return get_current_thread()->id;

	call	?get_current_thread@@YAPEAU_thread_@@XZ	; get_current_thread
	movzx	eax, WORD PTR [rax+226]

; 19   : }

	add	rsp, 40					; 00000028H
	ret	0
?get_thread_id@@YAGXZ ENDP				; get_thread_id
_TEXT	ENDS
END
