; Listing generated by Microsoft (R) Optimizing Compiler Version 17.00.50727.1 

include listing.inc

INCLUDELIB LIBCMT
INCLUDELIB OLDNAMES

PUBLIC	?scheduler_enable@@3_NA				; scheduler_enable
PUBLIC	?scheduler_initialized@@3_NA			; scheduler_initialized
PUBLIC	?task_id@@3GA					; task_id
PUBLIC	?task_list_head@@3PEAU_thread_@@EA		; task_list_head
PUBLIC	?task_list_last@@3PEAU_thread_@@EA		; task_list_last
PUBLIC	?blocked_thr_head@@3PEAU_thread_@@EA		; blocked_thr_head
PUBLIC	?blocked_thr_last@@3PEAU_thread_@@EA		; blocked_thr_last
PUBLIC	?system_tick@@3IA				; system_tick
PUBLIC	current_thread
_BSS	SEGMENT
?scheduler_enable@@3_NA DB 01H DUP (?)			; scheduler_enable
	ALIGN	4

?scheduler_initialized@@3_NA DB 01H DUP (?)		; scheduler_initialized
	ALIGN	4

?task_id@@3GA DW 01H DUP (?)				; task_id
	ALIGN	8

?task_list_head@@3PEAU_thread_@@EA DQ 01H DUP (?)	; task_list_head
?task_list_last@@3PEAU_thread_@@EA DQ 01H DUP (?)	; task_list_last
?blocked_thr_head@@3PEAU_thread_@@EA DQ 01H DUP (?)	; blocked_thr_head
?blocked_thr_last@@3PEAU_thread_@@EA DQ 01H DUP (?)	; blocked_thr_last
?system_tick@@3IA DD 01H DUP (?)			; system_tick
	ALIGN	8

current_thread DQ 01H DUP (?)
_BSS	ENDS
CONST	SEGMENT
$SG3733	DB	'Idle', 00H
CONST	ENDS
PUBLIC	?AuInitializeScheduler@@YAXXZ			; AuInitializeScheduler
PUBLIC	?AuSchedulerStart@@YAXXZ			; AuSchedulerStart
PUBLIC	?create_user_thread@@YAPEAU_thread_@@P6AXPEAX@Z_K2QEADE@Z ; create_user_thread
PUBLIC	create_kthread
PUBLIC	create_child_thread
PUBLIC	?block_thread@@YAXPEAU_thread_@@@Z		; block_thread
PUBLIC	?unblock_thread@@YAXPEAU_thread_@@@Z		; unblock_thread
PUBLIC	get_current_thread
PUBLIC	?set_multi_task_enable@@YAX_N@Z			; set_multi_task_enable
PUBLIC	?is_multi_task_enable@@YA_NXZ			; is_multi_task_enable
PUBLIC	force_sched
PUBLIC	?thread_iterate_ready_list@@YAPEAU_thread_@@G@Z	; thread_iterate_ready_list
PUBLIC	?thread_iterate_block_list@@YAPEAU_thread_@@H@Z	; thread_iterate_block_list
PUBLIC	?thread_get_id_by_name@@YAGPEAD@Z		; thread_get_id_by_name
PUBLIC	?set_current_thread@@YAXPEAU_thread_@@@Z	; set_current_thread
PUBLIC	sleep_thread
PUBLIC	?task_delete@@YAXPEAU_thread_@@@Z		; task_delete
PUBLIC	?is_scheduler_initialized@@YA_NXZ		; is_scheduler_initialized
PUBLIC	?sched_get_tick@@YAIXZ				; sched_get_tick
PUBLIC	?thread_insert@@YAXPEAU_thread_@@@Z		; thread_insert
PUBLIC	?thread_insert_block@@YAXPEAU_thread_@@@Z	; thread_insert_block
PUBLIC	?thread_delete_block@@YAXPEAU_thread_@@@Z	; thread_delete_block
PUBLIC	?idle_thread@@YAXXZ				; idle_thread
PUBLIC	?next_task@@YAXPEAU_cpu_@@@Z			; next_task
PUBLIC	?sig_return@@YAXXZ				; sig_return
PUBLIC	?sig_loop@@YAXXZ				; sig_loop
PUBLIC	?scheduler_isr@@YAX_KPEAX@Z			; scheduler_isr
EXTRN	memset:PROC
EXTRN	memcpy:PROC
EXTRN	AuPmmngrAlloc:PROC
EXTRN	p2v:PROC
EXTRN	v2p:PROC
EXTRN	x64_cli:PROC
EXTRN	x64_hlt:PROC
EXTRN	x64_read_cr3:PROC
EXTRN	x64_fxsave:PROC
EXTRN	x64_fxrstor:PROC
EXTRN	x64_ldmxcsr:PROC
EXTRN	x64_set_kstack:PROC
EXTRN	x64_get_kstack:PROC
EXTRN	setvect:PROC
EXTRN	?x86_64_cpu_get_id@@YAEXZ:PROC			; x86_64_cpu_get_id
EXTRN	?is_cpu_fxsave_supported@@YA_NXZ:PROC		; is_cpu_fxsave_supported
EXTRN	AuMapPage:PROC
EXTRN	?AuMapPageEx@@YA_NPEA_K_K1E@Z:PROC		; AuMapPageEx
EXTRN	malloc:PROC
EXTRN	save_context:PROC
EXTRN	execute_idle:PROC
EXTRN	get_kernel_tss:PROC
EXTRN	?allocate_kstack@@YA_KPEA_K@Z:PROC		; allocate_kstack
EXTRN	?allocate_kstack_child@@YA_KPEA_K@Z:PROC	; allocate_kstack_child
EXTRN	?timer_fire@@YAXXZ:PROC				; timer_fire
EXTRN	apic_local_eoi:PROC
EXTRN	?AuPCPUGetCpu@@YAPEAU_cpu_@@E@Z:PROC		; AuPCPUGetCpu
EXTRN	?AuPCPUSetCurrentThread@@YAXPEAU_thread_@@@Z:PROC ; AuPCPUSetCurrentThread
EXTRN	force_sched_apic:PROC
EXTRN	sig_ret:PROC
pdata	SEGMENT
$pdata$?AuInitializeScheduler@@YAXXZ DD imagerel $LN3
	DD	imagerel $LN3+125
	DD	imagerel $unwind$?AuInitializeScheduler@@YAXXZ
$pdata$?AuSchedulerStart@@YAXXZ DD imagerel $LN3
	DD	imagerel $LN3+46
	DD	imagerel $unwind$?AuSchedulerStart@@YAXXZ
$pdata$?create_user_thread@@YAPEAU_thread_@@P6AXPEAX@Z_K2QEADE@Z DD imagerel $LN6
	DD	imagerel $LN6+878
	DD	imagerel $unwind$?create_user_thread@@YAPEAU_thread_@@P6AXPEAX@Z_K2QEADE@Z
$pdata$create_kthread DD imagerel $LN3
	DD	imagerel $LN3+650
	DD	imagerel $unwind$create_kthread
$pdata$create_child_thread DD imagerel $LN3
	DD	imagerel $LN3+705
	DD	imagerel $unwind$create_child_thread
$pdata$?block_thread@@YAXPEAU_thread_@@@Z DD imagerel $LN3
	DD	imagerel $LN3+46
	DD	imagerel $unwind$?block_thread@@YAXPEAU_thread_@@@Z
$pdata$?unblock_thread@@YAXPEAU_thread_@@@Z DD imagerel $LN7
	DD	imagerel $LN7+99
	DD	imagerel $unwind$?unblock_thread@@YAXPEAU_thread_@@@Z
$pdata$force_sched DD imagerel $LN3
	DD	imagerel $LN3+14
	DD	imagerel $unwind$force_sched
$pdata$?thread_iterate_ready_list@@YAPEAU_thread_@@G@Z DD imagerel $LN7
	DD	imagerel $LN7+79
	DD	imagerel $unwind$?thread_iterate_ready_list@@YAPEAU_thread_@@G@Z
$pdata$?thread_iterate_block_list@@YAPEAU_thread_@@H@Z DD imagerel $LN8
	DD	imagerel $LN8+85
	DD	imagerel $unwind$?thread_iterate_block_list@@YAPEAU_thread_@@H@Z
$pdata$?thread_get_id_by_name@@YAGPEAD@Z DD imagerel $LN14
	DD	imagerel $LN14+200
	DD	imagerel $unwind$?thread_get_id_by_name@@YAGPEAD@Z
$pdata$?idle_thread@@YAXXZ DD imagerel $LN5
	DD	imagerel $LN5+23
	DD	imagerel $unwind$?idle_thread@@YAXXZ
$pdata$?next_task@@YAXPEAU_cpu_@@@Z DD imagerel $LN9
	DD	imagerel $LN9+172
	DD	imagerel $unwind$?next_task@@YAXPEAU_cpu_@@@Z
$pdata$?sig_return@@YAXXZ DD imagerel $LN3
	DD	imagerel $LN3+14
	DD	imagerel $unwind$?sig_return@@YAXXZ
$pdata$?sig_loop@@YAXXZ DD imagerel $LN5
	DD	imagerel $LN5+16
	DD	imagerel $unwind$?sig_loop@@YAXXZ
$pdata$?scheduler_isr@@YAX_KPEAX@Z DD imagerel $LN14
	DD	imagerel $LN14+843
	DD	imagerel $unwind$?scheduler_isr@@YAX_KPEAX@Z
pdata	ENDS
xdata	SEGMENT
$unwind$?AuInitializeScheduler@@YAXXZ DD 010401H
	DD	08204H
$unwind$?AuSchedulerStart@@YAXXZ DD 010401H
	DD	04204H
$unwind$?create_user_thread@@YAPEAU_thread_@@P6AXPEAX@Z_K2QEADE@Z DD 011801H
	DD	08218H
$unwind$create_kthread DD 011801H
	DD	06218H
$unwind$create_child_thread DD 011801H
	DD	06218H
$unwind$?block_thread@@YAXPEAU_thread_@@@Z DD 010901H
	DD	04209H
$unwind$?unblock_thread@@YAXPEAU_thread_@@@Z DD 010901H
	DD	06209H
$unwind$force_sched DD 010401H
	DD	04204H
$unwind$?thread_iterate_ready_list@@YAPEAU_thread_@@G@Z DD 010901H
	DD	02209H
$unwind$?thread_iterate_block_list@@YAPEAU_thread_@@H@Z DD 010801H
	DD	02208H
$unwind$?thread_get_id_by_name@@YAGPEAD@Z DD 010901H
	DD	04209H
$unwind$?idle_thread@@YAXXZ DD 010401H
	DD	04204H
$unwind$?next_task@@YAXPEAU_cpu_@@@Z DD 010901H
	DD	02209H
$unwind$?sig_return@@YAXXZ DD 010401H
	DD	04204H
$unwind$?sig_loop@@YAXXZ DD 010401H
	DD	04204H
$unwind$?scheduler_isr@@YAX_KPEAX@Z DD 010e01H
	DD	0c20eH
xdata	ENDS
; Function compile flags: /Odtpy
; File e:\xeneva project\xeneva\aurora\aurora\arch\x86_64\thread.cpp
_TEXT	SEGMENT
i$1 = 32
rsp_$2 = 40
frame$ = 48
ktss$ = 56
pcpu$ = 64
ctx$3 = 72
tv138 = 80
v$ = 112
param$ = 120
?scheduler_isr@@YAX_KPEAX@Z PROC			; scheduler_isr

; 404  : void scheduler_isr (size_t v, void* param) {

$LN14:
	mov	QWORD PTR [rsp+16], rdx
	mov	QWORD PTR [rsp+8], rcx
	sub	rsp, 104				; 00000068H

; 405  : 	x64_cli();

	call	x64_cli

; 406  : 	interrupt_stack_frame *frame = (interrupt_stack_frame*)param;

	mov	rax, QWORD PTR param$[rsp]
	mov	QWORD PTR frame$[rsp], rax

; 407  : 	
; 408  : 	/* check for enable bit, if yes than proceed for 
; 409  : 	   multitasking */
; 410  : 	if (scheduler_enable == false)

	movzx	eax, BYTE PTR ?scheduler_enable@@3_NA	; scheduler_enable
	test	eax, eax
	jne	SHORT $LN11@scheduler_

; 411  : 		goto sched_end;

	jmp	$LN10@scheduler_
	jmp	$sched_end$15
$LN11@scheduler_:

; 412  : 	
; 413  : 	cpu_t* pcpu = AuPCPUGetCpu(x86_64_cpu_get_id());

	call	?x86_64_cpu_get_id@@YAEXZ		; x86_64_cpu_get_id
	movzx	ecx, al
	call	?AuPCPUGetCpu@@YAPEAU_cpu_@@E@Z		; AuPCPUGetCpu
	mov	QWORD PTR pcpu$[rsp], rax

; 414  : 	TSS *ktss = pcpu->kernel_tss;

	mov	rax, QWORD PTR pcpu$[rsp]
	mov	rax, QWORD PTR [rax+9]
	mov	QWORD PTR ktss$[rsp], rax

; 415  : 	//mutex_lock (scheduler_mutex);
; 416  : 	/** save currently running thread contexts */
; 417  : 	if (save_context(current_thread,ktss) == 0) {

	mov	rdx, QWORD PTR ktss$[rsp]
	mov	rcx, QWORD PTR current_thread
	call	save_context
	test	eax, eax
	jne	$LN9@scheduler_

; 418  : 		current_thread->frame.cr3 = x64_read_cr3();

	call	x64_read_cr3
	mov	rcx, QWORD PTR current_thread
	mov	QWORD PTR [rcx+192], rax

; 419  : 
; 420  : 		
; 421  : 		/* check if the thread is user mode thread, if yes
; 422  : 		   than store the kernel esp */
; 423  : 		if (current_thread->priviledge == THREAD_LEVEL_USER) {

	mov	rax, QWORD PTR current_thread
	movzx	eax, BYTE PTR [rax+244]
	cmp	eax, 2
	jne	SHORT $LN8@scheduler_

; 424  : 			//current_thread->kern_esp = ktss->rsp[0];
; 425  : 			current_thread->frame.kern_esp = x64_get_kstack(ktss);

	mov	rcx, QWORD PTR ktss$[rsp]
	call	x64_get_kstack
	mov	rcx, QWORD PTR current_thread
	mov	QWORD PTR [rcx+200], rax
$LN8@scheduler_:

; 426  : 		}
; 427  : 
; 428  : 
; 429  : 		/* Check for pending signal, Signal is not complete, just implemented the basic
; 430  : 		 * signal handling skeleton 
; 431  : 		 */
; 432  : 		if (current_thread->pending_signal > 0 && frame->cs == SEGVAL(GDT_ENTRY_USER_CODE, 3)) {

	mov	rax, QWORD PTR current_thread
	cmp	DWORD PTR [rax+1064], 0
	jle	$LN7@scheduler_
	mov	rax, QWORD PTR frame$[rsp]
	cmp	QWORD PTR [rax+24], 43			; 0000002bH
	jne	$LN7@scheduler_

; 433  : 			RegsCtx_t *ctx = (RegsCtx_t*)(current_thread->frame.kern_esp - sizeof(RegsCtx_t));

	mov	rax, QWORD PTR current_thread
	mov	rax, QWORD PTR [rax+200]
	sub	rax, 160				; 000000a0H
	mov	QWORD PTR ctx$3[rsp], rax

; 434  : 			uint64_t* rsp_ = (uint64_t*)current_thread->user_stack;

	mov	rax, QWORD PTR current_thread
	mov	rax, QWORD PTR [rax+208]
	mov	QWORD PTR rsp_$2[rsp], rax

; 435  : 
; 436  : 			/* Store the current kernel stack information to seperate memory location */
; 437  : 			current_thread->signal_stack2 = (RegsCtx_t*)malloc(sizeof(RegsCtx_t));

	mov	ecx, 160				; 000000a0H
	call	malloc
	mov	rcx, QWORD PTR current_thread
	mov	QWORD PTR [rcx+1080], rax

; 438  : 			memcpy (current_thread->signal_stack2, ctx,sizeof(RegsCtx_t));

	mov	r8d, 160				; 000000a0H
	mov	rdx, QWORD PTR ctx$3[rsp]
	mov	rax, QWORD PTR current_thread
	mov	rcx, QWORD PTR [rax+1080]
	call	memcpy

; 439  : 
; 440  : 			/* Store the return address */
; 441  : 			rsp_ -= 8;

	mov	rax, QWORD PTR rsp_$2[rsp]
	sub	rax, 64					; 00000040H
	mov	QWORD PTR rsp_$2[rsp], rax

; 442  : 			for (int i = 0; i < 2; i++)

	mov	DWORD PTR i$1[rsp], 0
	jmp	SHORT $LN6@scheduler_
$LN5@scheduler_:
	mov	eax, DWORD PTR i$1[rsp]
	inc	eax
	mov	DWORD PTR i$1[rsp], eax
$LN6@scheduler_:
	cmp	DWORD PTR i$1[rsp], 2
	jge	SHORT $LN4@scheduler_

; 443  : 				AuMapPage((uint64_t)AuPmmngrAlloc(), 0x700000 + i * 4096, PAGING_USER);

	mov	eax, DWORD PTR i$1[rsp]
	imul	eax, 4096				; 00001000H
	add	eax, 7340032				; 00700000H
	cdqe
	mov	QWORD PTR tv138[rsp], rax
	call	AuPmmngrAlloc
	mov	r8b, 4
	mov	rcx, QWORD PTR tv138[rsp]
	mov	rdx, rcx
	mov	rcx, rax
	call	AuMapPage
	jmp	SHORT $LN5@scheduler_
$LN4@scheduler_:

; 444  : 			memcpy((void*)0x700000,&sig_ret, 8192);

	mov	r8d, 8192				; 00002000H
	lea	rdx, OFFSET FLAT:sig_ret
	mov	ecx, 7340032				; 00700000H
	call	memcpy

; 445  : 			*rsp_ = 0x700000;

	mov	rax, QWORD PTR rsp_$2[rsp]
	mov	QWORD PTR [rax], 7340032		; 00700000H

; 446  : 
; 447  : 
; 448  : 			current_thread->signal_state = (thread_frame_t*)malloc(sizeof(thread_frame_t));

	mov	ecx, 208				; 000000d0H
	call	malloc
	mov	rcx, QWORD PTR current_thread
	mov	QWORD PTR [rcx+1088], rax

; 449  : 			memcpy (current_thread->signal_state,&current_thread->frame,sizeof(thread_frame_t));

	mov	rax, QWORD PTR current_thread
	mov	r8d, 208				; 000000d0H
	mov	rdx, rax
	mov	rax, QWORD PTR current_thread
	mov	rcx, QWORD PTR [rax+1088]
	call	memcpy

; 450  : 			
; 451  : 
; 452  : 			frame->rsp = (uint64_t)rsp_;

	mov	rax, QWORD PTR frame$[rsp]
	mov	rcx, QWORD PTR rsp_$2[rsp]
	mov	QWORD PTR [rax+40], rcx

; 453  : 			current_thread->frame.rbp = (uint64_t)rsp_;

	mov	rax, QWORD PTR current_thread
	mov	rcx, QWORD PTR rsp_$2[rsp]
	mov	QWORD PTR [rax+88], rcx

; 454  : 			current_thread->frame.rcx = 10;

	mov	rax, QWORD PTR current_thread
	mov	QWORD PTR [rax+56], 10

; 455  : 			current_thread->frame.rip = (uint64_t)current_thread->signals[current_thread->pending_signal];

	mov	rax, QWORD PTR current_thread
	movsxd	rax, DWORD PTR [rax+1064]
	mov	rcx, QWORD PTR current_thread
	mov	rdx, QWORD PTR current_thread
	mov	rax, QWORD PTR [rdx+rax*8+752]
	mov	QWORD PTR [rcx+32], rax

; 456  : 			current_thread->frame.rsp = frame->rsp;

	mov	rax, QWORD PTR current_thread
	mov	rcx, QWORD PTR frame$[rsp]
	mov	rcx, QWORD PTR [rcx+40]
	mov	QWORD PTR [rax+8], rcx

; 457  : 			frame->rip = current_thread->frame.rip;

	mov	rax, QWORD PTR frame$[rsp]
	mov	rcx, QWORD PTR current_thread
	mov	rcx, QWORD PTR [rcx+32]
	mov	QWORD PTR [rax+16], rcx

; 458  : 			frame->rflags = 0x286;

	mov	rax, QWORD PTR frame$[rsp]
	mov	QWORD PTR [rax+32], 646			; 00000286H

; 459  : 			current_thread->frame.rflags = 0x286;

	mov	rax, QWORD PTR current_thread
	mov	QWORD PTR [rax+16], 646			; 00000286H

; 460  : 			current_thread->pending_signal = 0;

	mov	rax, QWORD PTR current_thread
	mov	DWORD PTR [rax+1064], 0
$LN7@scheduler_:

; 461  : 		}
; 462  : 
; 463  : 
; 464  : 		if (is_cpu_fxsave_supported())

	call	?is_cpu_fxsave_supported@@YA_NXZ	; is_cpu_fxsave_supported
	movzx	eax, al
	test	eax, eax
	je	SHORT $LN3@scheduler_

; 465  : 			x64_fxsave(current_thread->fx_state);

	mov	rax, QWORD PTR current_thread
	mov	rcx, QWORD PTR [rax+216]
	call	x64_fxsave
$LN3@scheduler_:

; 466  : 
; 467  : 		/* now get the next runnable task from the thread list */
; 468  : 		next_task(pcpu);

	mov	rcx, QWORD PTR pcpu$[rsp]
	call	?next_task@@YAXPEAU_cpu_@@@Z		; next_task

; 469  : 
; 470  : 		/*
; 471  : 		  Here increase the system tick and
; 472  : 		  fire the timer
; 473  : 		  */
; 474  : 		system_tick++;

	mov	eax, DWORD PTR ?system_tick@@3IA	; system_tick
	inc	eax
	mov	DWORD PTR ?system_tick@@3IA, eax	; system_tick

; 475  : 		timer_fire();

	call	?timer_fire@@YAXXZ			; timer_fire

; 476  : #ifdef USE_APIC
; 477  : 	    apic_local_eoi();

	call	apic_local_eoi

; 478  : #endif
; 479  : #ifdef USE_PIC
; 480  : 		AuInterruptEnd (0);
; 481  : #endif
; 482  : 		
; 483  : 		/** now return to the new task last stored instruction */
; 484  : 
; 485  : 
; 486  : 		if (current_thread->priviledge == THREAD_LEVEL_USER){

	mov	rax, QWORD PTR current_thread
	movzx	eax, BYTE PTR [rax+244]
	cmp	eax, 2
	jne	SHORT $LN2@scheduler_

; 487  : 			//ktss->rsp[0] = current_thread->kern_esp;
; 488  : 			x64_set_kstack(ktss,current_thread->frame.kern_esp);

	mov	rax, QWORD PTR current_thread
	mov	rdx, QWORD PTR [rax+200]
	mov	rcx, QWORD PTR ktss$[rsp]
	call	x64_set_kstack
$LN2@scheduler_:

; 489  : 		}
; 490  : 
; 491  : 		if (is_cpu_fxsave_supported())

	call	?is_cpu_fxsave_supported@@YA_NXZ	; is_cpu_fxsave_supported
	movzx	eax, al
	test	eax, eax
	je	SHORT $LN1@scheduler_

; 492  : 			x64_fxrstor(current_thread->fx_state);

	mov	rax, QWORD PTR current_thread
	mov	rcx, QWORD PTR [rax+216]
	call	x64_fxrstor
$LN1@scheduler_:

; 493  : 
; 494  : 		x64_ldmxcsr(&current_thread->mxcsr);

	mov	rax, QWORD PTR current_thread
	add	rax, 224				; 000000e0H
	mov	rcx, rax
	call	x64_ldmxcsr

; 495  : 
; 496  : 
; 497  : 		//
; 498  : 		//mutex_unlock (scheduler_mutex);
; 499  : 		execute_idle (current_thread,ktss);

	mov	rdx, QWORD PTR ktss$[rsp]
	mov	rcx, QWORD PTR current_thread
	call	execute_idle
$LN9@scheduler_:
$LN10@scheduler_:
$sched_end$15:

; 500  : 	}
; 501  : 
; 502  : sched_end:
; 503  : #ifdef USE_APIC
; 504  : 	apic_local_eoi();

	call	apic_local_eoi

; 505  : #endif
; 506  : #ifdef USE_PIC
; 507  : 	AuInterruptEnd(0);
; 508  : #endif
; 509  : }

	add	rsp, 104				; 00000068H
	ret	0
?scheduler_isr@@YAX_KPEAX@Z ENDP			; scheduler_isr
_TEXT	ENDS
; Function compile flags: /Odtpy
; File e:\xeneva project\xeneva\aurora\aurora\arch\x86_64\thread.cpp
_TEXT	SEGMENT
?sig_loop@@YAXXZ PROC					; sig_loop

; 393  : void sig_loop () {

$LN5:
	sub	rsp, 40					; 00000028H
$LN2@sig_loop:

; 394  : 	for(;;) {
; 395  : 		//_debug_print_ ("Loop    ");
; 396  : 		x64_cli();

	call	x64_cli

; 397  : 	}

	jmp	SHORT $LN2@sig_loop

; 398  : }

	add	rsp, 40					; 00000028H
	ret	0
?sig_loop@@YAXXZ ENDP					; sig_loop
_TEXT	ENDS
; Function compile flags: /Odtpy
; File e:\xeneva project\xeneva\aurora\aurora\arch\x86_64\thread.cpp
_TEXT	SEGMENT
?sig_return@@YAXXZ PROC					; sig_return

; 389  : void sig_return () {

$LN3:
	sub	rsp, 40					; 00000028H

; 390  : 	sig_ret();

	call	sig_ret

; 391  : }

	add	rsp, 40					; 00000028H
	ret	0
?sig_return@@YAXXZ ENDP					; sig_return
_TEXT	ENDS
; Function compile flags: /Odtpy
; File e:\xeneva project\xeneva\aurora\aurora\arch\x86_64\thread.cpp
_TEXT	SEGMENT
task$ = 0
pcpu$ = 32
?next_task@@YAXPEAU_cpu_@@@Z PROC			; next_task

; 366  : void next_task (cpu_t *pcpu) {

$LN9:
	mov	QWORD PTR [rsp+8], rcx
	sub	rsp, 24

; 367  : 	thread_t* task = (thread_t*)pcpu->au_current_thread;//current_thread;

	mov	rax, QWORD PTR pcpu$[rsp]
	mov	rax, QWORD PTR [rax+1]
	mov	QWORD PTR task$[rsp], rax
$LN6@next_task:

; 368  : 	do {
; 369  : 		if (task->state == THREAD_STATE_SLEEP) {

	mov	rax, QWORD PTR task$[rsp]
	movzx	eax, BYTE PTR [rax+240]
	cmp	eax, 4
	jne	SHORT $LN3@next_task

; 370  : 			if (task->quanta == 0) {

	mov	rax, QWORD PTR task$[rsp]
	movzx	eax, WORD PTR [rax+246]
	test	eax, eax
	jne	SHORT $LN2@next_task

; 371  : 				task->state = THREAD_STATE_READY;

	mov	rax, QWORD PTR task$[rsp]
	mov	BYTE PTR [rax+240], 1
$LN2@next_task:

; 372  : 			}
; 373  : 			task->quanta--;

	mov	rax, QWORD PTR task$[rsp]
	movzx	eax, WORD PTR [rax+246]
	dec	ax
	mov	rcx, QWORD PTR task$[rsp]
	mov	WORD PTR [rcx+246], ax
$LN3@next_task:

; 374  : 		}
; 375  : 		task = task->next;

	mov	rax, QWORD PTR task$[rsp]
	mov	rax, QWORD PTR [rax+1096]
	mov	QWORD PTR task$[rsp], rax

; 376  : 		if (task == NULL) {

	cmp	QWORD PTR task$[rsp], 0
	jne	SHORT $LN1@next_task

; 377  : 			task = task_list_head;

	mov	rax, QWORD PTR ?task_list_head@@3PEAU_thread_@@EA ; task_list_head
	mov	QWORD PTR task$[rsp], rax
$LN1@next_task:

; 378  : 		}
; 379  : 	}while (task->state != THREAD_STATE_READY);

	mov	rax, QWORD PTR task$[rsp]
	movzx	eax, BYTE PTR [rax+240]
	cmp	eax, 1
	jne	SHORT $LN6@next_task
$end$10:

; 380  : 
; 381  : end:
; 382  : 	//AuPCPUSetCurrentThread(task);
; 383  : 	pcpu->au_current_thread = (uint64_t*)task;

	mov	rax, QWORD PTR pcpu$[rsp]
	mov	rcx, QWORD PTR task$[rsp]
	mov	QWORD PTR [rax+1], rcx

; 384  : 	current_thread = (thread_t*)pcpu->au_current_thread;//AuPCPUGetCurrentThread(); //task;

	mov	rax, QWORD PTR pcpu$[rsp]
	mov	rax, QWORD PTR [rax+1]
	mov	QWORD PTR current_thread, rax

; 385  : }

	add	rsp, 24
	ret	0
?next_task@@YAXPEAU_cpu_@@@Z ENDP			; next_task
_TEXT	ENDS
; Function compile flags: /Odtpy
; File e:\xeneva project\xeneva\aurora\aurora\arch\x86_64\thread.cpp
_TEXT	SEGMENT
?idle_thread@@YAXXZ PROC				; idle_thread

; 335  : void idle_thread () {

$LN5:
	sub	rsp, 40					; 00000028H
$LN2@idle_threa:

; 336  : 	while(1) {

	xor	eax, eax
	cmp	eax, 1
	je	SHORT $LN1@idle_threa

; 337  : 		x64_hlt();

	call	x64_hlt

; 338  : 	}

	jmp	SHORT $LN2@idle_threa
$LN1@idle_threa:

; 339  : }

	add	rsp, 40					; 00000028H
	ret	0
?idle_thread@@YAXXZ ENDP				; idle_thread
_TEXT	ENDS
; Function compile flags: /Odtpy
; File e:\xeneva project\xeneva\aurora\aurora\arch\x86_64\thread.cpp
_TEXT	SEGMENT
thread$ = 8
?thread_delete_block@@YAXPEAU_thread_@@@Z PROC		; thread_delete_block

; 139  : void thread_delete_block (thread_t* thread) {

	mov	QWORD PTR [rsp+8], rcx

; 140  : 
; 141  : 	if (blocked_thr_head == NULL)

	cmp	QWORD PTR ?blocked_thr_head@@3PEAU_thread_@@EA, 0 ; blocked_thr_head
	jne	SHORT $LN5@thread_del

; 142  : 		return;

	jmp	$LN6@thread_del
$LN5@thread_del:

; 143  : 
; 144  : 	if (thread == blocked_thr_head) {

	mov	rax, QWORD PTR ?blocked_thr_head@@3PEAU_thread_@@EA ; blocked_thr_head
	cmp	QWORD PTR thread$[rsp], rax
	jne	SHORT $LN4@thread_del

; 145  : 		blocked_thr_head = blocked_thr_head->next;

	mov	rax, QWORD PTR ?blocked_thr_head@@3PEAU_thread_@@EA ; blocked_thr_head
	mov	rax, QWORD PTR [rax+1096]
	mov	QWORD PTR ?blocked_thr_head@@3PEAU_thread_@@EA, rax ; blocked_thr_head

; 146  : 	} else {

	jmp	SHORT $LN3@thread_del
$LN4@thread_del:

; 147  : 		thread->prev->next = thread->next;

	mov	rax, QWORD PTR thread$[rsp]
	mov	rax, QWORD PTR [rax+1104]
	mov	rcx, QWORD PTR thread$[rsp]
	mov	rcx, QWORD PTR [rcx+1096]
	mov	QWORD PTR [rax+1096], rcx
$LN3@thread_del:

; 148  : 	}
; 149  : 
; 150  : 	if (thread == blocked_thr_last) {

	mov	rax, QWORD PTR ?blocked_thr_last@@3PEAU_thread_@@EA ; blocked_thr_last
	cmp	QWORD PTR thread$[rsp], rax
	jne	SHORT $LN2@thread_del

; 151  : 		blocked_thr_last = thread->prev;

	mov	rax, QWORD PTR thread$[rsp]
	mov	rax, QWORD PTR [rax+1104]
	mov	QWORD PTR ?blocked_thr_last@@3PEAU_thread_@@EA, rax ; blocked_thr_last

; 152  : 	} else {

	jmp	SHORT $LN1@thread_del
$LN2@thread_del:

; 153  : 		thread->next->prev = thread->prev;

	mov	rax, QWORD PTR thread$[rsp]
	mov	rax, QWORD PTR [rax+1096]
	mov	rcx, QWORD PTR thread$[rsp]
	mov	rcx, QWORD PTR [rcx+1104]
	mov	QWORD PTR [rax+1104], rcx
$LN1@thread_del:
$LN6@thread_del:

; 154  : 	}
; 155  : }

	fatret	0
?thread_delete_block@@YAXPEAU_thread_@@@Z ENDP		; thread_delete_block
_TEXT	ENDS
; Function compile flags: /Odtpy
; File e:\xeneva project\xeneva\aurora\aurora\arch\x86_64\thread.cpp
_TEXT	SEGMENT
new_task$ = 8
?thread_insert_block@@YAXPEAU_thread_@@@Z PROC		; thread_insert_block

; 121  : void thread_insert_block (thread_t* new_task ) {

	mov	QWORD PTR [rsp+8], rcx

; 122  : 	new_task->next = NULL;

	mov	rax, QWORD PTR new_task$[rsp]
	mov	QWORD PTR [rax+1096], 0

; 123  : 	new_task->prev = NULL;

	mov	rax, QWORD PTR new_task$[rsp]
	mov	QWORD PTR [rax+1104], 0

; 124  : 
; 125  : 	if (blocked_thr_head == NULL) {

	cmp	QWORD PTR ?blocked_thr_head@@3PEAU_thread_@@EA, 0 ; blocked_thr_head
	jne	SHORT $LN2@thread_ins

; 126  : 		blocked_thr_last = new_task;

	mov	rax, QWORD PTR new_task$[rsp]
	mov	QWORD PTR ?blocked_thr_last@@3PEAU_thread_@@EA, rax ; blocked_thr_last

; 127  : 		blocked_thr_head = new_task;

	mov	rax, QWORD PTR new_task$[rsp]
	mov	QWORD PTR ?blocked_thr_head@@3PEAU_thread_@@EA, rax ; blocked_thr_head

; 128  : 	} else {

	jmp	SHORT $LN1@thread_ins
$LN2@thread_ins:

; 129  : 		blocked_thr_last->next = new_task;

	mov	rax, QWORD PTR ?blocked_thr_last@@3PEAU_thread_@@EA ; blocked_thr_last
	mov	rcx, QWORD PTR new_task$[rsp]
	mov	QWORD PTR [rax+1096], rcx

; 130  : 		new_task->prev = blocked_thr_last;

	mov	rax, QWORD PTR new_task$[rsp]
	mov	rcx, QWORD PTR ?blocked_thr_last@@3PEAU_thread_@@EA ; blocked_thr_last
	mov	QWORD PTR [rax+1104], rcx
$LN1@thread_ins:

; 131  : 	}
; 132  : 	blocked_thr_last = new_task;

	mov	rax, QWORD PTR new_task$[rsp]
	mov	QWORD PTR ?blocked_thr_last@@3PEAU_thread_@@EA, rax ; blocked_thr_last

; 133  : }

	ret	0
?thread_insert_block@@YAXPEAU_thread_@@@Z ENDP		; thread_insert_block
_TEXT	ENDS
; Function compile flags: /Odtpy
; File e:\xeneva project\xeneva\aurora\aurora\arch\x86_64\thread.cpp
_TEXT	SEGMENT
new_task$ = 8
?thread_insert@@YAXPEAU_thread_@@@Z PROC		; thread_insert

; 73   : void thread_insert (thread_t* new_task ) {

	mov	QWORD PTR [rsp+8], rcx

; 74   : 	new_task->next = NULL;

	mov	rax, QWORD PTR new_task$[rsp]
	mov	QWORD PTR [rax+1096], 0

; 75   : 	new_task->prev = NULL;

	mov	rax, QWORD PTR new_task$[rsp]
	mov	QWORD PTR [rax+1104], 0

; 76   : 
; 77   : 	if (task_list_head == NULL) {

	cmp	QWORD PTR ?task_list_head@@3PEAU_thread_@@EA, 0 ; task_list_head
	jne	SHORT $LN2@thread_ins

; 78   : 		task_list_last = new_task;

	mov	rax, QWORD PTR new_task$[rsp]
	mov	QWORD PTR ?task_list_last@@3PEAU_thread_@@EA, rax ; task_list_last

; 79   : 		task_list_head = new_task;

	mov	rax, QWORD PTR new_task$[rsp]
	mov	QWORD PTR ?task_list_head@@3PEAU_thread_@@EA, rax ; task_list_head

; 80   : 		current_thread = task_list_last;

	mov	rax, QWORD PTR ?task_list_last@@3PEAU_thread_@@EA ; task_list_last
	mov	QWORD PTR current_thread, rax

; 81   : 	} else {

	jmp	SHORT $LN1@thread_ins
$LN2@thread_ins:

; 82   : 		task_list_last->next = new_task;

	mov	rax, QWORD PTR ?task_list_last@@3PEAU_thread_@@EA ; task_list_last
	mov	rcx, QWORD PTR new_task$[rsp]
	mov	QWORD PTR [rax+1096], rcx

; 83   : 		new_task->prev = task_list_last;

	mov	rax, QWORD PTR new_task$[rsp]
	mov	rcx, QWORD PTR ?task_list_last@@3PEAU_thread_@@EA ; task_list_last
	mov	QWORD PTR [rax+1104], rcx
$LN1@thread_ins:

; 84   : 	}
; 85   : 	task_list_last = new_task;

	mov	rax, QWORD PTR new_task$[rsp]
	mov	QWORD PTR ?task_list_last@@3PEAU_thread_@@EA, rax ; task_list_last

; 86   : }

	ret	0
?thread_insert@@YAXPEAU_thread_@@@Z ENDP		; thread_insert
_TEXT	ENDS
; Function compile flags: /Odtpy
; File e:\xeneva project\xeneva\aurora\aurora\arch\x86_64\thread.cpp
_TEXT	SEGMENT
?sched_get_tick@@YAIXZ PROC				; sched_get_tick

; 646  : 	return system_tick;

	mov	eax, DWORD PTR ?system_tick@@3IA	; system_tick

; 647  : }

	ret	0
?sched_get_tick@@YAIXZ ENDP				; sched_get_tick
_TEXT	ENDS
; Function compile flags: /Odtpy
; File e:\xeneva project\xeneva\aurora\aurora\arch\x86_64\thread.cpp
_TEXT	SEGMENT
?is_scheduler_initialized@@YA_NXZ PROC			; is_scheduler_initialized

; 639  : 	return scheduler_initialized;

	movzx	eax, BYTE PTR ?scheduler_initialized@@3_NA ; scheduler_initialized

; 640  : }

	ret	0
?is_scheduler_initialized@@YA_NXZ ENDP			; is_scheduler_initialized
_TEXT	ENDS
; Function compile flags: /Odtpy
; File e:\xeneva project\xeneva\aurora\aurora\arch\x86_64\thread.cpp
_TEXT	SEGMENT
thread$ = 8
?task_delete@@YAXPEAU_thread_@@@Z PROC			; task_delete

; 92   : void task_delete (thread_t* thread) {

	mov	QWORD PTR [rsp+8], rcx

; 93   : 
; 94   : 	if (task_list_head == NULL)

	cmp	QWORD PTR ?task_list_head@@3PEAU_thread_@@EA, 0 ; task_list_head
	jne	SHORT $LN5@task_delet

; 95   : 		return;

	jmp	$LN6@task_delet
$LN5@task_delet:

; 96   : 
; 97   : 	if (thread == task_list_head) {

	mov	rax, QWORD PTR ?task_list_head@@3PEAU_thread_@@EA ; task_list_head
	cmp	QWORD PTR thread$[rsp], rax
	jne	SHORT $LN4@task_delet

; 98   : 		task_list_head = task_list_head->next;

	mov	rax, QWORD PTR ?task_list_head@@3PEAU_thread_@@EA ; task_list_head
	mov	rax, QWORD PTR [rax+1096]
	mov	QWORD PTR ?task_list_head@@3PEAU_thread_@@EA, rax ; task_list_head

; 99   : 	} else {

	jmp	SHORT $LN3@task_delet
$LN4@task_delet:

; 100  : 		thread->prev->next = thread->next;

	mov	rax, QWORD PTR thread$[rsp]
	mov	rax, QWORD PTR [rax+1104]
	mov	rcx, QWORD PTR thread$[rsp]
	mov	rcx, QWORD PTR [rcx+1096]
	mov	QWORD PTR [rax+1096], rcx
$LN3@task_delet:

; 101  : 	}
; 102  : 
; 103  : 	if (thread == task_list_last) {

	mov	rax, QWORD PTR ?task_list_last@@3PEAU_thread_@@EA ; task_list_last
	cmp	QWORD PTR thread$[rsp], rax
	jne	SHORT $LN2@task_delet

; 104  : 		task_list_last = thread->prev;

	mov	rax, QWORD PTR thread$[rsp]
	mov	rax, QWORD PTR [rax+1104]
	mov	QWORD PTR ?task_list_last@@3PEAU_thread_@@EA, rax ; task_list_last

; 105  : 	} else {

	jmp	SHORT $LN1@task_delet
$LN2@task_delet:

; 106  : 		thread->next->prev = thread->prev;

	mov	rax, QWORD PTR thread$[rsp]
	mov	rax, QWORD PTR [rax+1096]
	mov	rcx, QWORD PTR thread$[rsp]
	mov	rcx, QWORD PTR [rcx+1104]
	mov	QWORD PTR [rax+1104], rcx
$LN1@task_delet:
$LN6@task_delet:

; 107  : 	}
; 108  : 
; 109  : 	/* donot free the thread, cuz when thread needs
; 110  : 	 * to move from runnable queue to blocked queue
; 111  : 	 * same address is used, rather call 'free' 
; 112  : 	 * externally 
; 113  : 	 */
; 114  : }

	fatret	0
?task_delete@@YAXPEAU_thread_@@@Z ENDP			; task_delete
_TEXT	ENDS
; Function compile flags: /Odtpy
; File e:\xeneva project\xeneva\aurora\aurora\arch\x86_64\thread.cpp
_TEXT	SEGMENT
t$ = 8
ms$ = 16
sleep_thread PROC

; 615  : void sleep_thread (thread_t *t, uint64_t ms) {

	mov	QWORD PTR [rsp+16], rdx
	mov	QWORD PTR [rsp+8], rcx

; 616  : 	t->quanta = ms;

	mov	rax, QWORD PTR t$[rsp]
	movzx	ecx, WORD PTR ms$[rsp]
	mov	WORD PTR [rax+246], cx

; 617  : 	t->state = THREAD_STATE_SLEEP;

	mov	rax, QWORD PTR t$[rsp]
	mov	BYTE PTR [rax+240], 4

; 618  : }

	ret	0
sleep_thread ENDP
_TEXT	ENDS
; Function compile flags: /Odtpy
; File e:\xeneva project\xeneva\aurora\aurora\arch\x86_64\thread.cpp
_TEXT	SEGMENT
thread$ = 8
?set_current_thread@@YAXPEAU_thread_@@@Z PROC		; set_current_thread

; 532  : void set_current_thread (thread_t *thread) {

	mov	QWORD PTR [rsp+8], rcx

; 533  : 	current_thread = thread;

	mov	rax, QWORD PTR thread$[rsp]
	mov	QWORD PTR current_thread, rax

; 534  : }

	ret	0
?set_current_thread@@YAXPEAU_thread_@@@Z ENDP		; set_current_thread
_TEXT	ENDS
; Function compile flags: /Odtpy
; File e:\xeneva project\xeneva\aurora\aurora\arch\x86_64\thread.cpp
_TEXT	SEGMENT
id$ = 0
it$1 = 8
thr$2 = 16
name$ = 48
?thread_get_id_by_name@@YAGPEAD@Z PROC			; thread_get_id_by_name

; 576  : uint16_t thread_get_id_by_name (char* name) {

$LN14:
	mov	QWORD PTR [rsp+8], rcx
	sub	rsp, 40					; 00000028H

; 577  : 	uint16_t id = 0;

	xor	eax, eax
	mov	WORD PTR id$[rsp], ax

; 578  : 	for (thread_t *it = task_list_head; it != NULL; it = it->next) {

	mov	rax, QWORD PTR ?task_list_head@@3PEAU_thread_@@EA ; task_list_head
	mov	QWORD PTR it$1[rsp], rax
	jmp	SHORT $LN11@thread_get
$LN10@thread_get:
	mov	rax, QWORD PTR it$1[rsp]
	mov	rax, QWORD PTR [rax+1096]
	mov	QWORD PTR it$1[rsp], rax
$LN11@thread_get:
	cmp	QWORD PTR it$1[rsp], 0
	je	SHORT $LN9@thread_get

; 579  : 		if (it->name == name) {

	mov	rax, QWORD PTR it$1[rsp]
	mov	rcx, QWORD PTR name$[rsp]
	cmp	QWORD PTR [rax+232], rcx
	jne	SHORT $LN8@thread_get

; 580  : 			id = it->id;

	mov	rax, QWORD PTR it$1[rsp]
	movzx	eax, WORD PTR [rax+242]
	mov	WORD PTR id$[rsp], ax

; 581  : 			break;

	jmp	SHORT $LN9@thread_get
$LN8@thread_get:

; 582  : 		}
; 583  : 	}

	jmp	SHORT $LN10@thread_get
$LN9@thread_get:

; 584  : 
; 585  : 	if (id > 0)

	movzx	eax, WORD PTR id$[rsp]
	test	eax, eax
	jle	SHORT $LN7@thread_get

; 586  : 		return id;

	movzx	eax, WORD PTR id$[rsp]
	jmp	SHORT $LN12@thread_get

; 587  : 	else{

	jmp	SHORT $LN6@thread_get
$LN7@thread_get:

; 588  : 		if (blocked_thr_head != NULL)

	cmp	QWORD PTR ?blocked_thr_head@@3PEAU_thread_@@EA, 0 ; blocked_thr_head
	je	SHORT $LN5@thread_get

; 589  : 			for (thread_t *thr = blocked_thr_head; thr != NULL; thr = thr->next) {

	mov	rax, QWORD PTR ?blocked_thr_head@@3PEAU_thread_@@EA ; blocked_thr_head
	mov	QWORD PTR thr$2[rsp], rax
	jmp	SHORT $LN4@thread_get
$LN3@thread_get:
	mov	rax, QWORD PTR thr$2[rsp]
	mov	rax, QWORD PTR [rax+1096]
	mov	QWORD PTR thr$2[rsp], rax
$LN4@thread_get:
	cmp	QWORD PTR thr$2[rsp], 0
	je	SHORT $LN2@thread_get

; 590  : 				if (thr->name == name) 

	mov	rax, QWORD PTR thr$2[rsp]
	mov	rcx, QWORD PTR name$[rsp]
	cmp	QWORD PTR [rax+232], rcx
	jne	SHORT $LN1@thread_get

; 591  : 					return thr->id;

	mov	rax, QWORD PTR thr$2[rsp]
	movzx	eax, WORD PTR [rax+242]
	jmp	SHORT $LN12@thread_get
$LN1@thread_get:

; 592  : 			}

	jmp	SHORT $LN3@thread_get
$LN2@thread_get:
$LN5@thread_get:
$LN6@thread_get:

; 593  : 	}
; 594  : 
; 595  : 	return NULL;

	xor	eax, eax
$LN12@thread_get:

; 596  : }

	add	rsp, 40					; 00000028H
	ret	0
?thread_get_id_by_name@@YAGPEAD@Z ENDP			; thread_get_id_by_name
_TEXT	ENDS
; Function compile flags: /Odtpy
; File e:\xeneva project\xeneva\aurora\aurora\arch\x86_64\thread.cpp
_TEXT	SEGMENT
thr$1 = 0
id$ = 32
?thread_iterate_block_list@@YAPEAU_thread_@@H@Z PROC	; thread_iterate_block_list

; 555  : thread_t* thread_iterate_block_list (int id) {

$LN8:
	mov	DWORD PTR [rsp+8], ecx
	sub	rsp, 24

; 556  : 	if (blocked_thr_head != NULL)

	cmp	QWORD PTR ?blocked_thr_head@@3PEAU_thread_@@EA, 0 ; blocked_thr_head
	je	SHORT $LN5@thread_ite

; 557  : 		for (thread_t *thr = blocked_thr_head; thr != NULL; thr = thr->next) {

	mov	rax, QWORD PTR ?blocked_thr_head@@3PEAU_thread_@@EA ; blocked_thr_head
	mov	QWORD PTR thr$1[rsp], rax
	jmp	SHORT $LN4@thread_ite
$LN3@thread_ite:
	mov	rax, QWORD PTR thr$1[rsp]
	mov	rax, QWORD PTR [rax+1096]
	mov	QWORD PTR thr$1[rsp], rax
$LN4@thread_ite:
	cmp	QWORD PTR thr$1[rsp], 0
	je	SHORT $LN2@thread_ite

; 558  : 			if (thr->id == id) {

	mov	rax, QWORD PTR thr$1[rsp]
	movzx	eax, WORD PTR [rax+242]
	cmp	eax, DWORD PTR id$[rsp]
	jne	SHORT $LN1@thread_ite

; 559  : 				return thr;

	mov	rax, QWORD PTR thr$1[rsp]
	jmp	SHORT $LN6@thread_ite
$LN1@thread_ite:

; 560  : 		}
; 561  : 	}

	jmp	SHORT $LN3@thread_ite
$LN2@thread_ite:
$LN5@thread_ite:

; 562  : 	return NULL;

	xor	eax, eax
$LN6@thread_ite:

; 563  : }

	add	rsp, 24
	ret	0
?thread_iterate_block_list@@YAPEAU_thread_@@H@Z ENDP	; thread_iterate_block_list
_TEXT	ENDS
; Function compile flags: /Odtpy
; File e:\xeneva project\xeneva\aurora\aurora\arch\x86_64\thread.cpp
_TEXT	SEGMENT
it$1 = 0
id$ = 32
?thread_iterate_ready_list@@YAPEAU_thread_@@G@Z PROC	; thread_iterate_ready_list

; 566  : thread_t * thread_iterate_ready_list (uint16_t id) {

$LN7:
	mov	WORD PTR [rsp+8], cx
	sub	rsp, 24

; 567  : 	for (thread_t *it = task_list_head; it != NULL; it = it->next) {

	mov	rax, QWORD PTR ?task_list_head@@3PEAU_thread_@@EA ; task_list_head
	mov	QWORD PTR it$1[rsp], rax
	jmp	SHORT $LN4@thread_ite
$LN3@thread_ite:
	mov	rax, QWORD PTR it$1[rsp]
	mov	rax, QWORD PTR [rax+1096]
	mov	QWORD PTR it$1[rsp], rax
$LN4@thread_ite:
	cmp	QWORD PTR it$1[rsp], 0
	je	SHORT $LN2@thread_ite

; 568  : 		if (it->id == id) {

	mov	rax, QWORD PTR it$1[rsp]
	movzx	eax, WORD PTR [rax+242]
	movzx	ecx, WORD PTR id$[rsp]
	cmp	eax, ecx
	jne	SHORT $LN1@thread_ite

; 569  : 			return it;

	mov	rax, QWORD PTR it$1[rsp]
	jmp	SHORT $LN5@thread_ite
$LN1@thread_ite:

; 570  : 		}
; 571  : 	}

	jmp	SHORT $LN3@thread_ite
$LN2@thread_ite:

; 572  : 	return NULL;

	xor	eax, eax
$LN5@thread_ite:

; 573  : }

	add	rsp, 24
	ret	0
?thread_iterate_ready_list@@YAPEAU_thread_@@G@Z ENDP	; thread_iterate_ready_list
_TEXT	ENDS
; Function compile flags: /Odtpy
; File e:\xeneva project\xeneva\aurora\aurora\arch\x86_64\thread.cpp
_TEXT	SEGMENT
force_sched PROC

; 626  : void force_sched () {

$LN3:
	sub	rsp, 40					; 00000028H

; 627  : #ifdef USE_APIC
; 628  : 	force_sched_apic();

	call	force_sched_apic

; 629  : #elif USE_PIC
; 630  : 	force_sched_pic();
; 631  : #endif
; 632  : }

	add	rsp, 40					; 00000028H
	ret	0
force_sched ENDP
_TEXT	ENDS
; Function compile flags: /Odtpy
; File e:\xeneva project\xeneva\aurora\aurora\arch\x86_64\thread.cpp
_TEXT	SEGMENT
?is_multi_task_enable@@YA_NXZ PROC			; is_multi_task_enable

; 540  : 	return scheduler_enable;

	movzx	eax, BYTE PTR ?scheduler_enable@@3_NA	; scheduler_enable

; 541  : }

	ret	0
?is_multi_task_enable@@YA_NXZ ENDP			; is_multi_task_enable
_TEXT	ENDS
; Function compile flags: /Odtpy
; File e:\xeneva project\xeneva\aurora\aurora\arch\x86_64\thread.cpp
_TEXT	SEGMENT
value$ = 8
?set_multi_task_enable@@YAX_N@Z PROC			; set_multi_task_enable

; 525  : void set_multi_task_enable (bool value) {

	mov	BYTE PTR [rsp+8], cl

; 526  : 	if (scheduler_enable == value)

	movzx	eax, BYTE PTR ?scheduler_enable@@3_NA	; scheduler_enable
	movzx	ecx, BYTE PTR value$[rsp]
	cmp	eax, ecx
	jne	SHORT $LN1@set_multi_

; 527  : 		return;

	jmp	SHORT $LN2@set_multi_
$LN1@set_multi_:

; 528  : 
; 529  : 	scheduler_enable = value;

	movzx	eax, BYTE PTR value$[rsp]
	mov	BYTE PTR ?scheduler_enable@@3_NA, al	; scheduler_enable
$LN2@set_multi_:

; 530  : }

	fatret	0
?set_multi_task_enable@@YAX_N@Z ENDP			; set_multi_task_enable
_TEXT	ENDS
; Function compile flags: /Odtpy
; File e:\xeneva project\xeneva\aurora\aurora\arch\x86_64\thread.cpp
_TEXT	SEGMENT
get_current_thread PROC

; 622  : 	return current_thread;

	mov	rax, QWORD PTR current_thread

; 623  : }

	ret	0
get_current_thread ENDP
_TEXT	ENDS
; Function compile flags: /Odtpy
; File e:\xeneva project\xeneva\aurora\aurora\arch\x86_64\thread.cpp
_TEXT	SEGMENT
thr$1 = 32
t$ = 64
?unblock_thread@@YAXPEAU_thread_@@@Z PROC		; unblock_thread

; 599  : void unblock_thread (thread_t *t) {

$LN7:
	mov	QWORD PTR [rsp+8], rcx
	sub	rsp, 56					; 00000038H

; 600  : 	//x64_cli();
; 601  : 	t->state = THREAD_STATE_READY;

	mov	rax, QWORD PTR t$[rsp]
	mov	BYTE PTR [rax+240], 1

; 602  : 	for (thread_t *thr = blocked_thr_head; thr != NULL; thr = thr->next) {

	mov	rax, QWORD PTR ?blocked_thr_head@@3PEAU_thread_@@EA ; blocked_thr_head
	mov	QWORD PTR thr$1[rsp], rax
	jmp	SHORT $LN4@unblock_th
$LN3@unblock_th:
	mov	rax, QWORD PTR thr$1[rsp]
	mov	rax, QWORD PTR [rax+1096]
	mov	QWORD PTR thr$1[rsp], rax
$LN4@unblock_th:
	cmp	QWORD PTR thr$1[rsp], 0
	je	SHORT $LN2@unblock_th

; 603  : 		if (thr == t) 

	mov	rax, QWORD PTR t$[rsp]
	cmp	QWORD PTR thr$1[rsp], rax
	jne	SHORT $LN1@unblock_th

; 604  : 			thread_delete_block(thr);

	mov	rcx, QWORD PTR thr$1[rsp]
	call	?thread_delete_block@@YAXPEAU_thread_@@@Z ; thread_delete_block
$LN1@unblock_th:

; 605  : 	}

	jmp	SHORT $LN3@unblock_th
$LN2@unblock_th:

; 606  : 	thread_insert (t);

	mov	rcx, QWORD PTR t$[rsp]
	call	?thread_insert@@YAXPEAU_thread_@@@Z	; thread_insert

; 607  : }

	add	rsp, 56					; 00000038H
	ret	0
?unblock_thread@@YAXPEAU_thread_@@@Z ENDP		; unblock_thread
_TEXT	ENDS
; Function compile flags: /Odtpy
; File e:\xeneva project\xeneva\aurora\aurora\arch\x86_64\thread.cpp
_TEXT	SEGMENT
thread$ = 48
?block_thread@@YAXPEAU_thread_@@@Z PROC			; block_thread

; 545  : void block_thread (thread_t *thread) {

$LN3:
	mov	QWORD PTR [rsp+8], rcx
	sub	rsp, 40					; 00000028H

; 546  : 	thread->state = THREAD_STATE_BLOCKED;

	mov	rax, QWORD PTR thread$[rsp]
	mov	BYTE PTR [rax+240], 3

; 547  : 	task_delete (thread);

	mov	rcx, QWORD PTR thread$[rsp]
	call	?task_delete@@YAXPEAU_thread_@@@Z	; task_delete

; 548  : 	//list_add (blocked_list,thread);
; 549  : 	thread_insert_block(thread);

	mov	rcx, QWORD PTR thread$[rsp]
	call	?thread_insert_block@@YAXPEAU_thread_@@@Z ; thread_insert_block

; 550  : }

	add	rsp, 40					; 00000028H
	ret	0
?block_thread@@YAXPEAU_thread_@@@Z ENDP			; block_thread
_TEXT	ENDS
; Function compile flags: /Odtpy
; File e:\xeneva project\xeneva\aurora\aurora\arch\x86_64\thread.cpp
_TEXT	SEGMENT
t$ = 32
parent$ = 64
entry$ = 72
stack$ = 80
name$ = 88
create_child_thread PROC

; 286  : thread_t* create_child_thread (thread_t *parent, void (*entry)(void*),uint64_t stack, char name[8]) {

$LN3:
	mov	QWORD PTR [rsp+32], r9
	mov	QWORD PTR [rsp+24], r8
	mov	QWORD PTR [rsp+16], rdx
	mov	QWORD PTR [rsp+8], rcx
	sub	rsp, 56					; 00000038H

; 287  : 	thread_t *t = (thread_t*)malloc(sizeof(thread_t));

	mov	ecx, 1112				; 00000458H
	call	malloc
	mov	QWORD PTR t$[rsp], rax

; 288  : 	memset(t, 0, sizeof(thread_t));

	mov	r8d, 1112				; 00000458H
	xor	edx, edx
	mov	rcx, QWORD PTR t$[rsp]
	call	memset

; 289  : 	t->frame.ss = SEGVAL(GDT_ENTRY_USER_DATA,3); 

	mov	rax, QWORD PTR t$[rsp]
	mov	QWORD PTR [rax], 35			; 00000023H

; 290  : 	t->frame.rsp = (uint64_t)stack;

	mov	rax, QWORD PTR t$[rsp]
	mov	rcx, QWORD PTR stack$[rsp]
	mov	QWORD PTR [rax+8], rcx

; 291  : 	t->frame.rflags = 0x286;

	mov	rax, QWORD PTR t$[rsp]
	mov	QWORD PTR [rax+16], 646			; 00000286H

; 292  : 	t->frame.cs = SEGVAL (GDT_ENTRY_USER_CODE,3);

	mov	rax, QWORD PTR t$[rsp]
	mov	QWORD PTR [rax+24], 43			; 0000002bH

; 293  : 	t->frame.rip = (uint64_t)entry;

	mov	rax, QWORD PTR t$[rsp]
	mov	rcx, QWORD PTR entry$[rsp]
	mov	QWORD PTR [rax+32], rcx

; 294  : 	t->frame.rax = 0;

	mov	rax, QWORD PTR t$[rsp]
	mov	QWORD PTR [rax+40], 0

; 295  : 	t->frame.rbx = 10;

	mov	rax, QWORD PTR t$[rsp]
	mov	QWORD PTR [rax+48], 10

; 296  : 	t->frame.rcx = 0;

	mov	rax, QWORD PTR t$[rsp]
	mov	QWORD PTR [rax+56], 0

; 297  : 	t->frame.rdx = 0;

	mov	rax, QWORD PTR t$[rsp]
	mov	QWORD PTR [rax+64], 0

; 298  : 	t->frame.rsi = 10;

	mov	rax, QWORD PTR t$[rsp]
	mov	QWORD PTR [rax+72], 10

; 299  : 	t->frame.rdi = 0;

	mov	rax, QWORD PTR t$[rsp]
	mov	QWORD PTR [rax+80], 0

; 300  : 	t->frame.rbp = (uint64_t)t->frame.rsp;

	mov	rax, QWORD PTR t$[rsp]
	mov	rcx, QWORD PTR t$[rsp]
	mov	rcx, QWORD PTR [rcx+8]
	mov	QWORD PTR [rax+88], rcx

; 301  : 	t->frame.r8 = 0;

	mov	rax, QWORD PTR t$[rsp]
	mov	QWORD PTR [rax+96], 0

; 302  : 	t->frame.r9 = 0;

	mov	rax, QWORD PTR t$[rsp]
	mov	QWORD PTR [rax+104], 0

; 303  : 	t->frame.r10 = 0;

	mov	rax, QWORD PTR t$[rsp]
	mov	QWORD PTR [rax+112], 0

; 304  : 	t->frame.r11 = 0;

	mov	rax, QWORD PTR t$[rsp]
	mov	QWORD PTR [rax+120], 0

; 305  : 	t->frame.r12 = 0;

	mov	rax, QWORD PTR t$[rsp]
	mov	QWORD PTR [rax+128], 0

; 306  : 	t->frame.r13 = 0;

	mov	rax, QWORD PTR t$[rsp]
	mov	QWORD PTR [rax+136], 0

; 307  : 	t->frame.r14 = 0;

	mov	rax, QWORD PTR t$[rsp]
	mov	QWORD PTR [rax+144], 0

; 308  : 	t->frame.r15 = 0;

	mov	rax, QWORD PTR t$[rsp]
	mov	QWORD PTR [rax+152], 0

; 309  : 
; 310  : 	/** Kernel stack is important for syscall or interruption in the system **/
; 311  : 	t->frame.kern_esp = (uint64_t)allocate_kstack_child((uint64_t*)p2v((size_t)parent->frame.cr3));

	mov	rax, QWORD PTR parent$[rsp]
	mov	rcx, QWORD PTR [rax+192]
	call	p2v
	mov	rcx, rax
	call	?allocate_kstack_child@@YA_KPEA_K@Z	; allocate_kstack_child
	mov	rcx, QWORD PTR t$[rsp]
	mov	QWORD PTR [rcx+200], rax

; 312  : 	t->user_stack = stack;

	mov	rax, QWORD PTR t$[rsp]
	mov	rcx, QWORD PTR stack$[rsp]
	mov	QWORD PTR [rax+208], rcx

; 313  : 	t->frame.ds = 0x23;

	mov	rax, QWORD PTR t$[rsp]
	mov	QWORD PTR [rax+160], 35			; 00000023H

; 314  : 	t->frame.es = 0x23;

	mov	rax, QWORD PTR t$[rsp]
	mov	QWORD PTR [rax+168], 35			; 00000023H

; 315  : 	t->frame.fs = 0x23;

	mov	rax, QWORD PTR t$[rsp]
	mov	QWORD PTR [rax+176], 35			; 00000023H

; 316  : 	t->frame.gs = 0x23;

	mov	rax, QWORD PTR t$[rsp]
	mov	QWORD PTR [rax+184], 35			; 00000023H

; 317  : 	t->frame.cr3 = parent->frame.cr3;

	mov	rax, QWORD PTR t$[rsp]
	mov	rcx, QWORD PTR parent$[rsp]
	mov	rcx, QWORD PTR [rcx+192]
	mov	QWORD PTR [rax+192], rcx

; 318  : 	t->name = name;

	mov	rax, QWORD PTR t$[rsp]
	mov	rcx, QWORD PTR name$[rsp]
	mov	QWORD PTR [rax+232], rcx

; 319  : 	t->id = task_id++;

	mov	rax, QWORD PTR t$[rsp]
	movzx	ecx, WORD PTR ?task_id@@3GA		; task_id
	mov	WORD PTR [rax+242], cx
	movzx	eax, WORD PTR ?task_id@@3GA		; task_id
	inc	ax
	mov	WORD PTR ?task_id@@3GA, ax		; task_id

; 320  : 	t->quanta = 0;

	xor	eax, eax
	mov	rcx, QWORD PTR t$[rsp]
	mov	WORD PTR [rcx+246], ax

; 321  : 	t->msg_box = NULL; //parent->msg_box;

	mov	rax, QWORD PTR t$[rsp]
	mov	QWORD PTR [rax+248], 0

; 322  : 	t->fx_state = (uint8_t*)malloc(512);

	mov	ecx, 512				; 00000200H
	call	malloc
	mov	rcx, QWORD PTR t$[rsp]
	mov	QWORD PTR [rcx+216], rax

; 323  : 	memset(t->fx_state, 0, 512);

	mov	r8d, 512				; 00000200H
	xor	edx, edx
	mov	rax, QWORD PTR t$[rsp]
	mov	rcx, QWORD PTR [rax+216]
	call	memset

; 324  : 	t->mxcsr = 0x1f80;

	mov	rax, QWORD PTR t$[rsp]
	mov	DWORD PTR [rax+224], 8064		; 00001f80H

; 325  : 	t->_is_user = 1;

	mov	rax, QWORD PTR t$[rsp]
	mov	BYTE PTR [rax+228], 1

; 326  : 	t->priviledge = THREAD_LEVEL_USER;

	mov	rax, QWORD PTR t$[rsp]
	mov	BYTE PTR [rax+244], 2

; 327  : 	t->state = THREAD_STATE_READY;

	mov	rax, QWORD PTR t$[rsp]
	mov	BYTE PTR [rax+240], 1

; 328  : 	t->priority = 1;

	mov	rax, QWORD PTR t$[rsp]
	mov	BYTE PTR [rax+256], 1

; 329  : 	t->fd_current = 3;

	mov	rax, QWORD PTR t$[rsp]
	mov	DWORD PTR [rax+744], 3

; 330  : 	thread_insert (t);

	mov	rcx, QWORD PTR t$[rsp]
	call	?thread_insert@@YAXPEAU_thread_@@@Z	; thread_insert

; 331  : 	return t;

	mov	rax, QWORD PTR t$[rsp]

; 332  : }

	add	rsp, 56					; 00000038H
	ret	0
create_child_thread ENDP
_TEXT	ENDS
; Function compile flags: /Odtpy
; File e:\xeneva project\xeneva\aurora\aurora\arch\x86_64\thread.cpp
_TEXT	SEGMENT
t$ = 32
entry$ = 64
stack$ = 72
cr3$ = 80
name$ = 88
priority$ = 96
create_kthread PROC

; 169  : {

$LN3:
	mov	QWORD PTR [rsp+32], r9
	mov	QWORD PTR [rsp+24], r8
	mov	QWORD PTR [rsp+16], rdx
	mov	QWORD PTR [rsp+8], rcx
	sub	rsp, 56					; 00000038H

; 170  : 	thread_t *t = (thread_t*)malloc(sizeof(thread_t));//pmmngr_alloc();

	mov	ecx, 1112				; 00000458H
	call	malloc
	mov	QWORD PTR t$[rsp], rax

; 171  : 	memset(t, 0, sizeof(thread_t));

	mov	r8d, 1112				; 00000458H
	xor	edx, edx
	mov	rcx, QWORD PTR t$[rsp]
	call	memset

; 172  : 	t->frame.ss = 0x10;

	mov	rax, QWORD PTR t$[rsp]
	mov	QWORD PTR [rax], 16

; 173  : 	t->frame.rsp = (uint64_t)stack;

	mov	rax, QWORD PTR t$[rsp]
	mov	rcx, QWORD PTR stack$[rsp]
	mov	QWORD PTR [rax+8], rcx

; 174  : 	t->frame.rflags = 0x202;

	mov	rax, QWORD PTR t$[rsp]
	mov	QWORD PTR [rax+16], 514			; 00000202H

; 175  : 	t->frame.cs = 0x08;

	mov	rax, QWORD PTR t$[rsp]
	mov	QWORD PTR [rax+24], 8

; 176  : 	t->frame.rip = (uint64_t)entry;

	mov	rax, QWORD PTR t$[rsp]
	mov	rcx, QWORD PTR entry$[rsp]
	mov	QWORD PTR [rax+32], rcx

; 177  : 	t->frame.rax = 0;

	mov	rax, QWORD PTR t$[rsp]
	mov	QWORD PTR [rax+40], 0

; 178  : 	t->frame.rbx = 0;

	mov	rax, QWORD PTR t$[rsp]
	mov	QWORD PTR [rax+48], 0

; 179  : 	t->frame.rcx = 0;

	mov	rax, QWORD PTR t$[rsp]
	mov	QWORD PTR [rax+56], 0

; 180  : 	t->frame.rdx = 0;

	mov	rax, QWORD PTR t$[rsp]
	mov	QWORD PTR [rax+64], 0

; 181  : 	t->frame.rsi = 0;

	mov	rax, QWORD PTR t$[rsp]
	mov	QWORD PTR [rax+72], 0

; 182  : 	t->frame.rdi = 0;

	mov	rax, QWORD PTR t$[rsp]
	mov	QWORD PTR [rax+80], 0

; 183  : 	t->frame.rbp = (uint64_t)t->frame.rsp;

	mov	rax, QWORD PTR t$[rsp]
	mov	rcx, QWORD PTR t$[rsp]
	mov	rcx, QWORD PTR [rcx+8]
	mov	QWORD PTR [rax+88], rcx

; 184  : 	t->frame.r8 = 0;

	mov	rax, QWORD PTR t$[rsp]
	mov	QWORD PTR [rax+96], 0

; 185  : 	t->frame.r9 = 0;

	mov	rax, QWORD PTR t$[rsp]
	mov	QWORD PTR [rax+104], 0

; 186  : 	t->frame.r10 = 0;

	mov	rax, QWORD PTR t$[rsp]
	mov	QWORD PTR [rax+112], 0

; 187  : 	t->frame.r11 = 0;

	mov	rax, QWORD PTR t$[rsp]
	mov	QWORD PTR [rax+120], 0

; 188  : 	t->frame.r12 = 0;

	mov	rax, QWORD PTR t$[rsp]
	mov	QWORD PTR [rax+128], 0

; 189  : 	t->frame.r13 = 0;

	mov	rax, QWORD PTR t$[rsp]
	mov	QWORD PTR [rax+136], 0

; 190  : 	t->frame.r14 = 0;

	mov	rax, QWORD PTR t$[rsp]
	mov	QWORD PTR [rax+144], 0

; 191  : 	t->frame.r15 = 0;

	mov	rax, QWORD PTR t$[rsp]
	mov	QWORD PTR [rax+152], 0

; 192  : 	t->frame.ds = 0x10;

	mov	rax, QWORD PTR t$[rsp]
	mov	QWORD PTR [rax+160], 16

; 193  : 	t->frame.es = 0x10;

	mov	rax, QWORD PTR t$[rsp]
	mov	QWORD PTR [rax+168], 16

; 194  : 	t->frame.fs = 0x10;

	mov	rax, QWORD PTR t$[rsp]
	mov	QWORD PTR [rax+176], 16

; 195  : 	t->frame.gs = 0x10;

	mov	rax, QWORD PTR t$[rsp]
	mov	QWORD PTR [rax+184], 16

; 196  : 	t->frame.kern_esp = stack;

	mov	rax, QWORD PTR t$[rsp]
	mov	rcx, QWORD PTR stack$[rsp]
	mov	QWORD PTR [rax+200], rcx

; 197  : 	t->user_stack = stack;

	mov	rax, QWORD PTR t$[rsp]
	mov	rcx, QWORD PTR stack$[rsp]
	mov	QWORD PTR [rax+208], rcx

; 198  : 	t->_is_user = 0;

	mov	rax, QWORD PTR t$[rsp]
	mov	BYTE PTR [rax+228], 0

; 199  : 	t->frame.cr3 = cr3;

	mov	rax, QWORD PTR t$[rsp]
	mov	rcx, QWORD PTR cr3$[rsp]
	mov	QWORD PTR [rax+192], rcx

; 200  : 	t->name = name;

	mov	rax, QWORD PTR t$[rsp]
	mov	rcx, QWORD PTR name$[rsp]
	mov	QWORD PTR [rax+232], rcx

; 201  : 	t->id = task_id++;

	mov	rax, QWORD PTR t$[rsp]
	movzx	ecx, WORD PTR ?task_id@@3GA		; task_id
	mov	WORD PTR [rax+242], cx
	movzx	eax, WORD PTR ?task_id@@3GA		; task_id
	inc	ax
	mov	WORD PTR ?task_id@@3GA, ax		; task_id

; 202  : 	t->quanta = 0;

	xor	eax, eax
	mov	rcx, QWORD PTR t$[rsp]
	mov	WORD PTR [rcx+246], ax

; 203  : 	t->priviledge = THREAD_LEVEL_KERNEL;

	mov	rax, QWORD PTR t$[rsp]
	mov	BYTE PTR [rax+244], 1

; 204  : 	t->state = THREAD_STATE_READY;

	mov	rax, QWORD PTR t$[rsp]
	mov	BYTE PTR [rax+240], 1

; 205  : 	//t->priority = priority;
; 206  : 	t->fd_current = 3;

	mov	rax, QWORD PTR t$[rsp]
	mov	DWORD PTR [rax+744], 3

; 207  : 
; 208  : 	t->fx_state = (uint8_t*)malloc(512);

	mov	ecx, 512				; 00000200H
	call	malloc
	mov	rcx, QWORD PTR t$[rsp]
	mov	QWORD PTR [rcx+216], rax

; 209  : 	memset(t->fx_state, 0, 512);

	mov	r8d, 512				; 00000200H
	xor	edx, edx
	mov	rax, QWORD PTR t$[rsp]
	mov	rcx, QWORD PTR [rax+216]
	call	memset

; 210  : 	t->mxcsr = 0x1f80;

	mov	rax, QWORD PTR t$[rsp]
	mov	DWORD PTR [rax+224], 8064		; 00001f80H

; 211  : 	thread_insert(t);

	mov	rcx, QWORD PTR t$[rsp]
	call	?thread_insert@@YAXPEAU_thread_@@@Z	; thread_insert

; 212  : 	return t;

	mov	rax, QWORD PTR t$[rsp]

; 213  : }

	add	rsp, 56					; 00000038H
	ret	0
create_kthread ENDP
_TEXT	ENDS
; Function compile flags: /Odtpy
; File e:\xeneva project\xeneva\aurora\aurora\arch\x86_64\thread.cpp
_TEXT	SEGMENT
i$1 = 32
t$ = 40
tv171 = 48
tv198 = 56
entry$ = 80
stack$ = 88
cr3$ = 96
name$ = 104
priority$ = 112
?create_user_thread@@YAPEAU_thread_@@P6AXPEAX@Z_K2QEADE@Z PROC ; create_user_thread

; 224  : {

$LN6:
	mov	QWORD PTR [rsp+32], r9
	mov	QWORD PTR [rsp+24], r8
	mov	QWORD PTR [rsp+16], rdx
	mov	QWORD PTR [rsp+8], rcx
	sub	rsp, 72					; 00000048H

; 225  : 	thread_t *t = (thread_t*)malloc(sizeof(thread_t));//pmmngr_alloc();

	mov	ecx, 1112				; 00000458H
	call	malloc
	mov	QWORD PTR t$[rsp], rax

; 226  : 	memset (t, 0, sizeof(thread_t));

	mov	r8d, 1112				; 00000458H
	xor	edx, edx
	mov	rcx, QWORD PTR t$[rsp]
	call	memset

; 227  : 	t->frame.ss = SEGVAL(GDT_ENTRY_USER_DATA,3); 

	mov	rax, QWORD PTR t$[rsp]
	mov	QWORD PTR [rax], 35			; 00000023H

; 228  : 	t->frame.rsp = (uint64_t)stack;

	mov	rax, QWORD PTR t$[rsp]
	mov	rcx, QWORD PTR stack$[rsp]
	mov	QWORD PTR [rax+8], rcx

; 229  : 	t->frame.rflags = 0x286;

	mov	rax, QWORD PTR t$[rsp]
	mov	QWORD PTR [rax+16], 646			; 00000286H

; 230  : 	t->frame.cs = SEGVAL (GDT_ENTRY_USER_CODE,3);

	mov	rax, QWORD PTR t$[rsp]
	mov	QWORD PTR [rax+24], 43			; 0000002bH

; 231  : 	t->frame.rip = (uint64_t)entry;

	mov	rax, QWORD PTR t$[rsp]
	mov	rcx, QWORD PTR entry$[rsp]
	mov	QWORD PTR [rax+32], rcx

; 232  : 	t->frame.rax = 0;

	mov	rax, QWORD PTR t$[rsp]
	mov	QWORD PTR [rax+40], 0

; 233  : 	t->frame.rbx = 10;

	mov	rax, QWORD PTR t$[rsp]
	mov	QWORD PTR [rax+48], 10

; 234  : 	t->frame.rcx = 0;

	mov	rax, QWORD PTR t$[rsp]
	mov	QWORD PTR [rax+56], 0

; 235  : 	t->frame.rdx = 0;

	mov	rax, QWORD PTR t$[rsp]
	mov	QWORD PTR [rax+64], 0

; 236  : 	t->frame.rsi = 10;

	mov	rax, QWORD PTR t$[rsp]
	mov	QWORD PTR [rax+72], 10

; 237  : 	t->frame.rdi = 0;

	mov	rax, QWORD PTR t$[rsp]
	mov	QWORD PTR [rax+80], 0

; 238  : 	t->frame.rbp = (uint64_t)t->frame.rsp;

	mov	rax, QWORD PTR t$[rsp]
	mov	rcx, QWORD PTR t$[rsp]
	mov	rcx, QWORD PTR [rcx+8]
	mov	QWORD PTR [rax+88], rcx

; 239  : 	t->frame.r8 = 0;

	mov	rax, QWORD PTR t$[rsp]
	mov	QWORD PTR [rax+96], 0

; 240  : 	t->frame.r9 = 0;

	mov	rax, QWORD PTR t$[rsp]
	mov	QWORD PTR [rax+104], 0

; 241  : 	t->frame.r10 = 0;

	mov	rax, QWORD PTR t$[rsp]
	mov	QWORD PTR [rax+112], 0

; 242  : 	t->frame.r11 = 0;

	mov	rax, QWORD PTR t$[rsp]
	mov	QWORD PTR [rax+120], 0

; 243  : 	t->frame.r12 = 0;

	mov	rax, QWORD PTR t$[rsp]
	mov	QWORD PTR [rax+128], 0

; 244  : 	t->frame.r13 = 0;

	mov	rax, QWORD PTR t$[rsp]
	mov	QWORD PTR [rax+136], 0

; 245  : 	t->frame.r14 = 0;

	mov	rax, QWORD PTR t$[rsp]
	mov	QWORD PTR [rax+144], 0

; 246  : 	t->frame.r15 = 0;

	mov	rax, QWORD PTR t$[rsp]
	mov	QWORD PTR [rax+152], 0

; 247  : 
; 248  : 	/** Kernel stack is important for syscall or interruption in the system **/
; 249  : 	t->frame.kern_esp = (uint64_t)allocate_kstack((uint64_t*)cr3);

	mov	rcx, QWORD PTR cr3$[rsp]
	call	?allocate_kstack@@YA_KPEA_K@Z		; allocate_kstack
	mov	rcx, QWORD PTR t$[rsp]
	mov	QWORD PTR [rcx+200], rax

; 250  : 	t->user_stack = stack;

	mov	rax, QWORD PTR t$[rsp]
	mov	rcx, QWORD PTR stack$[rsp]
	mov	QWORD PTR [rax+208], rcx

; 251  : 	t->frame.ds = 0x23;

	mov	rax, QWORD PTR t$[rsp]
	mov	QWORD PTR [rax+160], 35			; 00000023H

; 252  : 	t->frame.es = 0x23;

	mov	rax, QWORD PTR t$[rsp]
	mov	QWORD PTR [rax+168], 35			; 00000023H

; 253  : 	t->frame.fs = 0x23;

	mov	rax, QWORD PTR t$[rsp]
	mov	QWORD PTR [rax+176], 35			; 00000023H

; 254  : 	t->frame.gs = 0x23;

	mov	rax, QWORD PTR t$[rsp]
	mov	QWORD PTR [rax+184], 35			; 00000023H

; 255  : 	t->frame.cr3 = v2p(cr3);

	mov	rcx, QWORD PTR cr3$[rsp]
	call	v2p
	mov	rcx, QWORD PTR t$[rsp]
	mov	QWORD PTR [rcx+192], rax

; 256  : 	t->name = name;

	mov	rax, QWORD PTR t$[rsp]
	mov	rcx, QWORD PTR name$[rsp]
	mov	QWORD PTR [rax+232], rcx

; 257  : 	t->id = task_id++;

	mov	rax, QWORD PTR t$[rsp]
	movzx	ecx, WORD PTR ?task_id@@3GA		; task_id
	mov	WORD PTR [rax+242], cx
	movzx	eax, WORD PTR ?task_id@@3GA		; task_id
	inc	ax
	mov	WORD PTR ?task_id@@3GA, ax		; task_id

; 258  : 	t->quanta = 0;

	xor	eax, eax
	mov	rcx, QWORD PTR t$[rsp]
	mov	WORD PTR [rcx+246], ax

; 259  : 	t->msg_box = (uint64_t*)p2v((size_t)AuPmmngrAlloc());

	call	AuPmmngrAlloc
	mov	rcx, rax
	call	p2v
	mov	rcx, QWORD PTR t$[rsp]
	mov	QWORD PTR [rcx+248], rax

; 260  : 	/** Map the thread's msg box to a virtual address, from where the process will receive system messages **/
; 261  : 	AuMapPageEx((uint64_t*)p2v(t->frame.cr3),v2p((size_t)t->msg_box),(uint64_t)0x400000, PAGING_USER);

	mov	rax, QWORD PTR t$[rsp]
	mov	rcx, QWORD PTR [rax+248]
	call	v2p
	mov	QWORD PTR tv171[rsp], rax
	mov	rcx, QWORD PTR t$[rsp]
	mov	rcx, QWORD PTR [rcx+192]
	call	p2v
	mov	r9b, 4
	mov	r8d, 4194304				; 00400000H
	mov	rcx, QWORD PTR tv171[rsp]
	mov	rdx, rcx
	mov	rcx, rax
	call	?AuMapPageEx@@YA_NPEA_K_K1E@Z		; AuMapPageEx

; 262  : 
; 263  : 	t->fx_state = (uint8_t*)malloc(512);

	mov	ecx, 512				; 00000200H
	call	malloc
	mov	rcx, QWORD PTR t$[rsp]
	mov	QWORD PTR [rcx+216], rax

; 264  : 	memset(t->fx_state, 0, 512);

	mov	r8d, 512				; 00000200H
	xor	edx, edx
	mov	rax, QWORD PTR t$[rsp]
	mov	rcx, QWORD PTR [rax+216]
	call	memset

; 265  : 	t->mxcsr = 0x1f80;

	mov	rax, QWORD PTR t$[rsp]
	mov	DWORD PTR [rax+224], 8064		; 00001f80H

; 266  : 	t->_is_user = 1;

	mov	rax, QWORD PTR t$[rsp]
	mov	BYTE PTR [rax+228], 1

; 267  : 	t->priviledge = THREAD_LEVEL_USER;

	mov	rax, QWORD PTR t$[rsp]
	mov	BYTE PTR [rax+244], 2

; 268  : 	t->state = THREAD_STATE_READY;

	mov	rax, QWORD PTR t$[rsp]
	mov	BYTE PTR [rax+240], 1

; 269  : 	t->priority = priority;

	mov	rax, QWORD PTR t$[rsp]
	movzx	ecx, BYTE PTR priority$[rsp]
	mov	BYTE PTR [rax+256], cl

; 270  : 	t->fd_current = 3;

	mov	rax, QWORD PTR t$[rsp]
	mov	DWORD PTR [rax+744], 3

; 271  : 	for (int i = 0; i < 1024*1024 / 4096; i++)

	mov	DWORD PTR i$1[rsp], 0
	jmp	SHORT $LN3@create_use
$LN2@create_use:
	mov	eax, DWORD PTR i$1[rsp]
	inc	eax
	mov	DWORD PTR i$1[rsp], eax
$LN3@create_use:
	cmp	DWORD PTR i$1[rsp], 256			; 00000100H
	jge	SHORT $LN1@create_use

; 272  : 		AuMapPageEx((uint64_t*)cr3,(uint64_t)AuPmmngrAlloc(), 0x0000700000400000 + i * 4096, PAGING_USER); 

	mov	eax, DWORD PTR i$1[rsp]
	imul	eax, 4096				; 00001000H
	cdqe
	mov	rcx, 123145306505216			; 0000700000400000H
	add	rax, rcx
	mov	QWORD PTR tv198[rsp], rax
	call	AuPmmngrAlloc
	mov	r9b, 4
	mov	rcx, QWORD PTR tv198[rsp]
	mov	r8, rcx
	mov	rdx, rax
	mov	rcx, QWORD PTR cr3$[rsp]
	call	?AuMapPageEx@@YA_NPEA_K_K1E@Z		; AuMapPageEx
	jmp	SHORT $LN2@create_use
$LN1@create_use:

; 273  : 	t->signal_stack = (0x0000700000400000 + 1024*1024 - 256);

	mov	rax, QWORD PTR t$[rsp]
	mov	rcx, 123145307553536			; 00007000004fff00H
	mov	QWORD PTR [rax+1072], rcx

; 274  : 	thread_insert (t);

	mov	rcx, QWORD PTR t$[rsp]
	call	?thread_insert@@YAXPEAU_thread_@@@Z	; thread_insert

; 275  : 	return t;

	mov	rax, QWORD PTR t$[rsp]

; 276  : }

	add	rsp, 72					; 00000048H
	ret	0
?create_user_thread@@YAPEAU_thread_@@P6AXPEAX@Z_K2QEADE@Z ENDP ; create_user_thread
_TEXT	ENDS
; Function compile flags: /Odtpy
; File e:\xeneva project\xeneva\aurora\aurora\arch\x86_64\thread.cpp
_TEXT	SEGMENT
?AuSchedulerStart@@YAXXZ PROC				; AuSchedulerStart

; 513  : void AuSchedulerStart () {

$LN3:
	sub	rsp, 40					; 00000028H

; 514  : #ifdef USE_APIC
; 515  : 	setvect(0x40, scheduler_isr);

	lea	rdx, OFFSET FLAT:?scheduler_isr@@YAX_KPEAX@Z ; scheduler_isr
	mov	ecx, 64					; 00000040H
	call	setvect

; 516  : #endif
; 517  : #ifdef USE_PIC
; 518  : 	AuInterruptSet(0,scheduler_isr,0, false);
; 519  : #endif
; 520  : 	execute_idle(current_thread,get_kernel_tss());

	call	get_kernel_tss
	mov	rdx, rax
	mov	rcx, QWORD PTR current_thread
	call	execute_idle

; 521  : }

	add	rsp, 40					; 00000028H
	ret	0
?AuSchedulerStart@@YAXXZ ENDP				; AuSchedulerStart
_TEXT	ENDS
; Function compile flags: /Odtpy
; File e:\xeneva project\xeneva\aurora\aurora\arch\x86_64\thread.cpp
_TEXT	SEGMENT
tv67 = 48
idle_$ = 56
?AuInitializeScheduler@@YAXXZ PROC			; AuInitializeScheduler

; 344  : void AuInitializeScheduler () {

$LN3:
	sub	rsp, 72					; 00000048H

; 345  : 	//blocked_list = initialize_list();
; 346  : 	scheduler_enable = true;

	mov	BYTE PTR ?scheduler_enable@@3_NA, 1	; scheduler_enable

; 347  : 	scheduler_initialized = true;

	mov	BYTE PTR ?scheduler_initialized@@3_NA, 1 ; scheduler_initialized

; 348  : 	task_id = 0;

	xor	eax, eax
	mov	WORD PTR ?task_id@@3GA, ax		; task_id

; 349  : 	/** Here create the first thread, the idle thread which never gets
; 350  : 	    blocked nor get destroyed untill the system turns off **/
; 351  : 	thread_t *idle_ = create_kthread (idle_thread,(uint64_t)p2v((uint64_t)AuPmmngrAlloc() + 4096),x64_read_cr3(),"Idle",1);

	call	x64_read_cr3
	mov	QWORD PTR tv67[rsp], rax
	call	AuPmmngrAlloc
	add	rax, 4096				; 00001000H
	mov	rcx, rax
	call	p2v
	mov	BYTE PTR [rsp+32], 1
	lea	r9, OFFSET FLAT:$SG3733
	mov	rcx, QWORD PTR tv67[rsp]
	mov	r8, rcx
	mov	rdx, rax
	lea	rcx, OFFSET FLAT:?idle_thread@@YAXXZ	; idle_thread
	call	create_kthread
	mov	QWORD PTR idle_$[rsp], rax

; 352  : 	current_thread = idle_;

	mov	rax, QWORD PTR idle_$[rsp]
	mov	QWORD PTR current_thread, rax

; 353  : 	AuPCPUSetCurrentThread(current_thread);

	mov	rcx, QWORD PTR current_thread
	call	?AuPCPUSetCurrentThread@@YAXPEAU_thread_@@@Z ; AuPCPUSetCurrentThread

; 354  : }

	add	rsp, 72					; 00000048H
	ret	0
?AuInitializeScheduler@@YAXXZ ENDP			; AuInitializeScheduler
_TEXT	ENDS
END
