; Listing generated by Microsoft (R) Optimizing Compiler Version 17.00.50727.1 

include listing.inc

INCLUDELIB LIBCMT
INCLUDELIB OLDNAMES

PUBLIC	?scheduler_enable@@3_NA				; scheduler_enable
PUBLIC	?scheduler_initialized@@3_NA			; scheduler_initialized
PUBLIC	?task_id@@3GA					; task_id
PUBLIC	?task_list_head@@3PEAU_thread_@@EA		; task_list_head
PUBLIC	?task_list_last@@3PEAU_thread_@@EA		; task_list_last
PUBLIC	?blocked_thr_head@@3PEAU_thread_@@EA		; blocked_thr_head
PUBLIC	?blocked_thr_last@@3PEAU_thread_@@EA		; blocked_thr_last
PUBLIC	?system_tick@@3IA				; system_tick
PUBLIC	current_thread
_BSS	SEGMENT
?scheduler_enable@@3_NA DB 01H DUP (?)			; scheduler_enable
	ALIGN	4

?scheduler_initialized@@3_NA DB 01H DUP (?)		; scheduler_initialized
	ALIGN	4

?task_id@@3GA DW 01H DUP (?)				; task_id
	ALIGN	8

?task_list_head@@3PEAU_thread_@@EA DQ 01H DUP (?)	; task_list_head
?task_list_last@@3PEAU_thread_@@EA DQ 01H DUP (?)	; task_list_last
?blocked_thr_head@@3PEAU_thread_@@EA DQ 01H DUP (?)	; blocked_thr_head
?blocked_thr_last@@3PEAU_thread_@@EA DQ 01H DUP (?)	; blocked_thr_last
?system_tick@@3IA DD 01H DUP (?)			; system_tick
	ALIGN	8

current_thread DQ 01H DUP (?)
_BSS	ENDS
CONST	SEGMENT
$SG3512	DB	'Idle', 00H
CONST	ENDS
PUBLIC	?initialize_scheduler@@YAXXZ			; initialize_scheduler
PUBLIC	?scheduler_start@@YAXXZ				; scheduler_start
PUBLIC	?create_user_thread@@YAPEAU_thread_@@P6AXPEAX@Z_K2QEADE@Z ; create_user_thread
PUBLIC	?create_kthread@@YAPEAU_thread_@@P6AXXZ_K1QEADE@Z ; create_kthread
PUBLIC	?block_thread@@YAXPEAU_thread_@@@Z		; block_thread
PUBLIC	?unblock_thread@@YAXPEAU_thread_@@@Z		; unblock_thread
PUBLIC	?get_current_thread@@YAPEAU_thread_@@XZ		; get_current_thread
PUBLIC	?set_multi_task_enable@@YAX_N@Z			; set_multi_task_enable
PUBLIC	?is_multi_task_enable@@YA_NXZ			; is_multi_task_enable
PUBLIC	?force_sched@@YAXXZ				; force_sched
PUBLIC	?thread_iterate_ready_list@@YAPEAU_thread_@@G@Z	; thread_iterate_ready_list
PUBLIC	?thread_iterate_block_list@@YAPEAU_thread_@@H@Z	; thread_iterate_block_list
PUBLIC	?thread_get_id_by_name@@YAGPEAD@Z		; thread_get_id_by_name
PUBLIC	?set_current_thread@@YAXPEAU_thread_@@@Z	; set_current_thread
PUBLIC	?sleep_thread@@YAXPEAU_thread_@@_K@Z		; sleep_thread
PUBLIC	?task_delete@@YAXPEAU_thread_@@@Z		; task_delete
PUBLIC	?is_scheduler_initialized@@YA_NXZ		; is_scheduler_initialized
PUBLIC	?sched_get_tick@@YAIXZ				; sched_get_tick
PUBLIC	?thread_insert@@YAXPEAU_thread_@@@Z		; thread_insert
PUBLIC	?thread_insert_block@@YAXPEAU_thread_@@@Z	; thread_insert_block
PUBLIC	?thread_delete_block@@YAXPEAU_thread_@@@Z	; thread_delete_block
PUBLIC	?idle_thread@@YAXXZ				; idle_thread
PUBLIC	?next_task@@YAXXZ				; next_task
PUBLIC	?scheduler_isr@@YAX_KPEAX@Z			; scheduler_isr
EXTRN	memset:PROC
EXTRN	AuPmmngrAlloc:PROC
EXTRN	p2v:PROC
EXTRN	v2p:PROC
EXTRN	x64_cli:PROC
EXTRN	x64_sti:PROC
EXTRN	x64_read_cr3:PROC
EXTRN	x64_fxsave:PROC
EXTRN	x64_fxrstor:PROC
EXTRN	?setvect@@YAX_KP6AX0PEAX@Z@Z:PROC		; setvect
EXTRN	?is_cpu_fxsave_supported@@YA_NXZ:PROC		; is_cpu_fxsave_supported
EXTRN	?AuMapPageEx@@YA_NPEA_K_K1E@Z:PROC		; AuMapPageEx
EXTRN	malloc:PROC
EXTRN	save_context:PROC
EXTRN	execute_idle:PROC
EXTRN	get_kernel_tss:PROC
EXTRN	?allocate_kstack@@YA_KPEA_K@Z:PROC		; allocate_kstack
EXTRN	?timer_fire@@YAXXZ:PROC				; timer_fire
EXTRN	?apic_local_eoi@@YAXXZ:PROC			; apic_local_eoi
EXTRN	force_sched_apic:PROC
pdata	SEGMENT
$pdata$?initialize_scheduler@@YAXXZ DD imagerel $LN3
	DD	imagerel $LN3+113
	DD	imagerel $unwind$?initialize_scheduler@@YAXXZ
$pdata$?scheduler_start@@YAXXZ DD imagerel $LN3
	DD	imagerel $LN3+56
	DD	imagerel $unwind$?scheduler_start@@YAXXZ
$pdata$?create_user_thread@@YAPEAU_thread_@@P6AXPEAX@Z_K2QEADE@Z DD imagerel $LN3
	DD	imagerel $LN3+696
	DD	imagerel $unwind$?create_user_thread@@YAPEAU_thread_@@P6AXPEAX@Z_K2QEADE@Z
$pdata$?create_kthread@@YAPEAU_thread_@@P6AXXZ_K1QEADE@Z DD imagerel $LN3
	DD	imagerel $LN3+614
	DD	imagerel $unwind$?create_kthread@@YAPEAU_thread_@@P6AXXZ_K1QEADE@Z
$pdata$?block_thread@@YAXPEAU_thread_@@@Z DD imagerel $LN3
	DD	imagerel $LN3+46
	DD	imagerel $unwind$?block_thread@@YAXPEAU_thread_@@@Z
$pdata$?unblock_thread@@YAXPEAU_thread_@@@Z DD imagerel $LN7
	DD	imagerel $LN7+104
	DD	imagerel $unwind$?unblock_thread@@YAXPEAU_thread_@@@Z
$pdata$?force_sched@@YAXXZ DD imagerel $LN3
	DD	imagerel $LN3+14
	DD	imagerel $unwind$?force_sched@@YAXXZ
$pdata$?thread_iterate_ready_list@@YAPEAU_thread_@@G@Z DD imagerel $LN7
	DD	imagerel $LN7+79
	DD	imagerel $unwind$?thread_iterate_ready_list@@YAPEAU_thread_@@G@Z
$pdata$?thread_iterate_block_list@@YAPEAU_thread_@@H@Z DD imagerel $LN8
	DD	imagerel $LN8+85
	DD	imagerel $unwind$?thread_iterate_block_list@@YAPEAU_thread_@@H@Z
$pdata$?thread_get_id_by_name@@YAGPEAD@Z DD imagerel $LN14
	DD	imagerel $LN14+200
	DD	imagerel $unwind$?thread_get_id_by_name@@YAGPEAD@Z
$pdata$?next_task@@YAXXZ DD imagerel $LN9
	DD	imagerel $LN9+147
	DD	imagerel $unwind$?next_task@@YAXXZ
$pdata$?scheduler_isr@@YAX_KPEAX@Z DD imagerel $LN10
	DD	imagerel $LN10+326
	DD	imagerel $unwind$?scheduler_isr@@YAX_KPEAX@Z
pdata	ENDS
xdata	SEGMENT
$unwind$?initialize_scheduler@@YAXXZ DD 010401H
	DD	08204H
$unwind$?scheduler_start@@YAXXZ DD 010401H
	DD	04204H
$unwind$?create_user_thread@@YAPEAU_thread_@@P6AXPEAX@Z_K2QEADE@Z DD 011801H
	DD	06218H
$unwind$?create_kthread@@YAPEAU_thread_@@P6AXXZ_K1QEADE@Z DD 011801H
	DD	06218H
$unwind$?block_thread@@YAXPEAU_thread_@@@Z DD 010901H
	DD	04209H
$unwind$?unblock_thread@@YAXPEAU_thread_@@@Z DD 010901H
	DD	06209H
$unwind$?force_sched@@YAXXZ DD 010401H
	DD	04204H
$unwind$?thread_iterate_ready_list@@YAPEAU_thread_@@G@Z DD 010901H
	DD	02209H
$unwind$?thread_iterate_block_list@@YAPEAU_thread_@@H@Z DD 010801H
	DD	02208H
$unwind$?thread_get_id_by_name@@YAGPEAD@Z DD 010901H
	DD	04209H
$unwind$?next_task@@YAXXZ DD 010401H
	DD	02204H
$unwind$?scheduler_isr@@YAX_KPEAX@Z DD 010e01H
	DD	0620eH
xdata	ENDS
; Function compile flags: /Odtpy
; File e:\xeneva project\xeneva\aurora\aurora\arch\x86_64\thread.cpp
_TEXT	SEGMENT
frame$ = 32
v$ = 64
param$ = 72
?scheduler_isr@@YAX_KPEAX@Z PROC			; scheduler_isr

; 308  : void scheduler_isr (size_t v, void* param) {

$LN10:
	mov	QWORD PTR [rsp+16], rdx
	mov	QWORD PTR [rsp+8], rcx
	sub	rsp, 56					; 00000038H

; 309  : 	x64_cli();

	call	x64_cli

; 310  : 	interrupt_stack_frame *frame = (interrupt_stack_frame*)param;

	mov	rax, QWORD PTR param$[rsp]
	mov	QWORD PTR frame$[rsp], rax

; 311  : 	/* check for enable bit, if yes than proceed for 
; 312  : 	   multitasking */
; 313  : 	if (scheduler_enable == false)

	movzx	eax, BYTE PTR ?scheduler_enable@@3_NA	; scheduler_enable
	test	eax, eax
	jne	SHORT $LN7@scheduler_

; 314  : 		goto sched_end;

	jmp	$LN6@scheduler_
	jmp	$sched_end$11
$LN7@scheduler_:

; 315  : 
; 316  : 	//mutex_lock (scheduler_mutex);
; 317  : 	/** save currently running thread contexts */
; 318  : 	if (save_context(current_thread,get_kernel_tss()) == 0) {

	call	get_kernel_tss
	mov	rdx, rax
	mov	rcx, QWORD PTR current_thread
	call	save_context
	test	eax, eax
	jne	$LN5@scheduler_

; 319  : 		current_thread->cr3 = x64_read_cr3();

	call	x64_read_cr3
	mov	rcx, QWORD PTR current_thread
	mov	QWORD PTR [rcx+192], rax

; 320  : 
; 321  : 		if(is_cpu_fxsave_supported()) {

	call	?is_cpu_fxsave_supported@@YA_NXZ	; is_cpu_fxsave_supported
	movzx	eax, al
	test	eax, eax
	je	SHORT $LN4@scheduler_

; 322  : 			x64_fxsave((uint8_t*)&current_thread->fx_state);

	mov	rax, QWORD PTR current_thread
	add	rax, 208				; 000000d0H
	mov	rcx, rax
	call	x64_fxsave
$LN4@scheduler_:

; 323  : 		}
; 324  : 		/* check if the thread is user mode thread, if yes
; 325  : 		   than store the kernel esp */
; 326  : 		if (current_thread->priviledge == THREAD_LEVEL_USER)

	mov	rax, QWORD PTR current_thread
	movzx	eax, BYTE PTR [rax+740]
	cmp	eax, 2
	jne	SHORT $LN3@scheduler_

; 327  : 			current_thread->kern_esp = get_kernel_tss()->rsp[0];

	call	get_kernel_tss
	mov	ecx, 8
	imul	rcx, 0
	mov	rdx, QWORD PTR current_thread
	mov	rax, QWORD PTR [rax+rcx+4]
	mov	QWORD PTR [rdx+200], rax
$LN3@scheduler_:

; 328  : 
; 329  : 		/* now get the next runnable task from the thread list */
; 330  : 		next_task();

	call	?next_task@@YAXXZ			; next_task

; 331  : 
; 332  : 		/*
; 333  : 		  Here increase the system tick and
; 334  : 		  fire the timer
; 335  : 		  */
; 336  : 		system_tick++;

	mov	eax, DWORD PTR ?system_tick@@3IA	; system_tick
	inc	eax
	mov	DWORD PTR ?system_tick@@3IA, eax	; system_tick

; 337  : 		timer_fire();

	call	?timer_fire@@YAXXZ			; timer_fire

; 338  : #ifdef USE_APIC
; 339  : 	    apic_local_eoi();

	call	?apic_local_eoi@@YAXXZ			; apic_local_eoi

; 340  : #endif
; 341  : #ifdef USE_PIC
; 342  : 		interrupt_end (0);
; 343  : #endif
; 344  : 		
; 345  : 		/** now return to the new task last stored instruction */
; 346  : 		if (is_cpu_fxsave_supported())

	call	?is_cpu_fxsave_supported@@YA_NXZ	; is_cpu_fxsave_supported
	movzx	eax, al
	test	eax, eax
	je	SHORT $LN2@scheduler_

; 347  : 			x64_fxrstor((uint8_t*)&current_thread->fx_state);

	mov	rax, QWORD PTR current_thread
	add	rax, 208				; 000000d0H
	mov	rcx, rax
	call	x64_fxrstor
$LN2@scheduler_:

; 348  : 
; 349  : 
; 350  : 		if (current_thread->priviledge == THREAD_LEVEL_USER){

	mov	rax, QWORD PTR current_thread
	movzx	eax, BYTE PTR [rax+740]
	cmp	eax, 2
	jne	SHORT $LN1@scheduler_

; 351  : 			get_kernel_tss()->rsp[0] = current_thread->kern_esp;

	call	get_kernel_tss
	mov	ecx, 8
	imul	rcx, 0
	mov	rdx, QWORD PTR current_thread
	mov	rdx, QWORD PTR [rdx+200]
	mov	QWORD PTR [rax+rcx+4], rdx
$LN1@scheduler_:

; 352  : 		}
; 353  : 
; 354  : 
; 355  : 		//x64_write_cr3 (current_thread->cr3);
; 356  : 		//mutex_unlock (scheduler_mutex);
; 357  : 		execute_idle (current_thread,get_kernel_tss());

	call	get_kernel_tss
	mov	rdx, rax
	mov	rcx, QWORD PTR current_thread
	call	execute_idle
$LN5@scheduler_:
$LN6@scheduler_:
$sched_end$11:

; 358  : 	}
; 359  : 
; 360  : sched_end:
; 361  : #ifdef USE_APIC
; 362  : 	apic_local_eoi();

	call	?apic_local_eoi@@YAXXZ			; apic_local_eoi

; 363  : #endif
; 364  : #ifdef USE_PIC
; 365  : 	interrupt_end(0);
; 366  : #endif
; 367  : 	//x64_sti();
; 368  : 	
; 369  : }

	add	rsp, 56					; 00000038H
	ret	0
?scheduler_isr@@YAX_KPEAX@Z ENDP			; scheduler_isr
_TEXT	ENDS
; Function compile flags: /Odtpy
; File e:\xeneva project\xeneva\aurora\aurora\arch\x86_64\thread.cpp
_TEXT	SEGMENT
task$ = 0
?next_task@@YAXXZ PROC					; next_task

; 284  : void next_task () {

$LN9:
	sub	rsp, 24

; 285  : 	thread_t* task = current_thread;

	mov	rax, QWORD PTR current_thread
	mov	QWORD PTR task$[rsp], rax
$LN6@next_task:

; 286  : 	do {
; 287  : 		if (task->state == THREAD_STATE_SLEEP) {

	mov	rax, QWORD PTR task$[rsp]
	movzx	eax, BYTE PTR [rax+736]
	cmp	eax, 4
	jne	SHORT $LN3@next_task

; 288  : 			if (task->quanta == 0) {

	mov	rax, QWORD PTR task$[rsp]
	movzx	eax, WORD PTR [rax+742]
	test	eax, eax
	jne	SHORT $LN2@next_task

; 289  : 				task->state = THREAD_STATE_READY;

	mov	rax, QWORD PTR task$[rsp]
	mov	BYTE PTR [rax+736], 1
$LN2@next_task:

; 290  : 			}
; 291  : 			task->quanta--;

	mov	rax, QWORD PTR task$[rsp]
	movzx	eax, WORD PTR [rax+742]
	dec	ax
	mov	rcx, QWORD PTR task$[rsp]
	mov	WORD PTR [rcx+742], ax
$LN3@next_task:

; 292  : 		}
; 293  : 		task = task->next;

	mov	rax, QWORD PTR task$[rsp]
	mov	rax, QWORD PTR [rax+1264]
	mov	QWORD PTR task$[rsp], rax

; 294  : 		if (task == NULL) {

	cmp	QWORD PTR task$[rsp], 0
	jne	SHORT $LN1@next_task

; 295  : 			task = task_list_head;

	mov	rax, QWORD PTR ?task_list_head@@3PEAU_thread_@@EA ; task_list_head
	mov	QWORD PTR task$[rsp], rax
$LN1@next_task:

; 296  : 		}
; 297  : 	}while (task->state != THREAD_STATE_READY);

	mov	rax, QWORD PTR task$[rsp]
	movzx	eax, BYTE PTR [rax+736]
	cmp	eax, 1
	jne	SHORT $LN6@next_task
$end$10:

; 298  : 
; 299  : end:
; 300  : 	current_thread = task;

	mov	rax, QWORD PTR task$[rsp]
	mov	QWORD PTR current_thread, rax

; 301  : }

	add	rsp, 24
	ret	0
?next_task@@YAXXZ ENDP					; next_task
_TEXT	ENDS
; Function compile flags: /Odtpy
; File e:\xeneva project\xeneva\aurora\aurora\arch\x86_64\thread.cpp
_TEXT	SEGMENT
?idle_thread@@YAXXZ PROC				; idle_thread

; 254  : void idle_thread () {

	npad	2
$LN2@idle_threa:

; 255  : 	while(1) {

	xor	eax, eax
	cmp	eax, 1
	je	SHORT $LN1@idle_threa

; 256  : 		//x64_hlt();
; 257  : 	}

	jmp	SHORT $LN2@idle_threa
$LN1@idle_threa:

; 258  : }

	fatret	0
?idle_thread@@YAXXZ ENDP				; idle_thread
_TEXT	ENDS
; Function compile flags: /Odtpy
; File e:\xeneva project\xeneva\aurora\aurora\arch\x86_64\thread.cpp
_TEXT	SEGMENT
thread$ = 8
?thread_delete_block@@YAXPEAU_thread_@@@Z PROC		; thread_delete_block

; 115  : void thread_delete_block (thread_t* thread) {

	mov	QWORD PTR [rsp+8], rcx

; 116  : 
; 117  : 	if (blocked_thr_head == NULL)

	cmp	QWORD PTR ?blocked_thr_head@@3PEAU_thread_@@EA, 0 ; blocked_thr_head
	jne	SHORT $LN5@thread_del

; 118  : 		return;

	jmp	$LN6@thread_del
$LN5@thread_del:

; 119  : 
; 120  : 	if (thread == blocked_thr_head) {

	mov	rax, QWORD PTR ?blocked_thr_head@@3PEAU_thread_@@EA ; blocked_thr_head
	cmp	QWORD PTR thread$[rsp], rax
	jne	SHORT $LN4@thread_del

; 121  : 		blocked_thr_head = blocked_thr_head->next;

	mov	rax, QWORD PTR ?blocked_thr_head@@3PEAU_thread_@@EA ; blocked_thr_head
	mov	rax, QWORD PTR [rax+1264]
	mov	QWORD PTR ?blocked_thr_head@@3PEAU_thread_@@EA, rax ; blocked_thr_head

; 122  : 	} else {

	jmp	SHORT $LN3@thread_del
$LN4@thread_del:

; 123  : 		thread->prev->next = thread->next;

	mov	rax, QWORD PTR thread$[rsp]
	mov	rax, QWORD PTR [rax+1272]
	mov	rcx, QWORD PTR thread$[rsp]
	mov	rcx, QWORD PTR [rcx+1264]
	mov	QWORD PTR [rax+1264], rcx
$LN3@thread_del:

; 124  : 	}
; 125  : 
; 126  : 	if (thread == blocked_thr_last) {

	mov	rax, QWORD PTR ?blocked_thr_last@@3PEAU_thread_@@EA ; blocked_thr_last
	cmp	QWORD PTR thread$[rsp], rax
	jne	SHORT $LN2@thread_del

; 127  : 		blocked_thr_last = thread->prev;

	mov	rax, QWORD PTR thread$[rsp]
	mov	rax, QWORD PTR [rax+1272]
	mov	QWORD PTR ?blocked_thr_last@@3PEAU_thread_@@EA, rax ; blocked_thr_last

; 128  : 	} else {

	jmp	SHORT $LN1@thread_del
$LN2@thread_del:

; 129  : 		thread->next->prev = thread->prev;

	mov	rax, QWORD PTR thread$[rsp]
	mov	rax, QWORD PTR [rax+1264]
	mov	rcx, QWORD PTR thread$[rsp]
	mov	rcx, QWORD PTR [rcx+1272]
	mov	QWORD PTR [rax+1272], rcx
$LN1@thread_del:
$LN6@thread_del:

; 130  : 	}
; 131  : }

	fatret	0
?thread_delete_block@@YAXPEAU_thread_@@@Z ENDP		; thread_delete_block
_TEXT	ENDS
; Function compile flags: /Odtpy
; File e:\xeneva project\xeneva\aurora\aurora\arch\x86_64\thread.cpp
_TEXT	SEGMENT
new_task$ = 8
?thread_insert_block@@YAXPEAU_thread_@@@Z PROC		; thread_insert_block

; 97   : void thread_insert_block (thread_t* new_task ) {

	mov	QWORD PTR [rsp+8], rcx

; 98   : 	new_task->next = NULL;

	mov	rax, QWORD PTR new_task$[rsp]
	mov	QWORD PTR [rax+1264], 0

; 99   : 	new_task->prev = NULL;

	mov	rax, QWORD PTR new_task$[rsp]
	mov	QWORD PTR [rax+1272], 0

; 100  : 
; 101  : 	if (blocked_thr_head == NULL) {

	cmp	QWORD PTR ?blocked_thr_head@@3PEAU_thread_@@EA, 0 ; blocked_thr_head
	jne	SHORT $LN2@thread_ins

; 102  : 		blocked_thr_last = new_task;

	mov	rax, QWORD PTR new_task$[rsp]
	mov	QWORD PTR ?blocked_thr_last@@3PEAU_thread_@@EA, rax ; blocked_thr_last

; 103  : 		blocked_thr_head = new_task;

	mov	rax, QWORD PTR new_task$[rsp]
	mov	QWORD PTR ?blocked_thr_head@@3PEAU_thread_@@EA, rax ; blocked_thr_head

; 104  : 	} else {

	jmp	SHORT $LN1@thread_ins
$LN2@thread_ins:

; 105  : 		blocked_thr_last->next = new_task;

	mov	rax, QWORD PTR ?blocked_thr_last@@3PEAU_thread_@@EA ; blocked_thr_last
	mov	rcx, QWORD PTR new_task$[rsp]
	mov	QWORD PTR [rax+1264], rcx

; 106  : 		new_task->prev = blocked_thr_last;

	mov	rax, QWORD PTR new_task$[rsp]
	mov	rcx, QWORD PTR ?blocked_thr_last@@3PEAU_thread_@@EA ; blocked_thr_last
	mov	QWORD PTR [rax+1272], rcx
$LN1@thread_ins:

; 107  : 	}
; 108  : 	blocked_thr_last = new_task;

	mov	rax, QWORD PTR new_task$[rsp]
	mov	QWORD PTR ?blocked_thr_last@@3PEAU_thread_@@EA, rax ; blocked_thr_last

; 109  : }

	ret	0
?thread_insert_block@@YAXPEAU_thread_@@@Z ENDP		; thread_insert_block
_TEXT	ENDS
; Function compile flags: /Odtpy
; File e:\xeneva project\xeneva\aurora\aurora\arch\x86_64\thread.cpp
_TEXT	SEGMENT
new_task$ = 8
?thread_insert@@YAXPEAU_thread_@@@Z PROC		; thread_insert

; 53   : void thread_insert (thread_t* new_task ) {

	mov	QWORD PTR [rsp+8], rcx

; 54   : 	new_task->next = NULL;

	mov	rax, QWORD PTR new_task$[rsp]
	mov	QWORD PTR [rax+1264], 0

; 55   : 	new_task->prev = NULL;

	mov	rax, QWORD PTR new_task$[rsp]
	mov	QWORD PTR [rax+1272], 0

; 56   : 
; 57   : 	if (task_list_head == NULL) {

	cmp	QWORD PTR ?task_list_head@@3PEAU_thread_@@EA, 0 ; task_list_head
	jne	SHORT $LN2@thread_ins

; 58   : 		task_list_last = new_task;

	mov	rax, QWORD PTR new_task$[rsp]
	mov	QWORD PTR ?task_list_last@@3PEAU_thread_@@EA, rax ; task_list_last

; 59   : 		task_list_head = new_task;

	mov	rax, QWORD PTR new_task$[rsp]
	mov	QWORD PTR ?task_list_head@@3PEAU_thread_@@EA, rax ; task_list_head

; 60   : 		current_thread = task_list_last;

	mov	rax, QWORD PTR ?task_list_last@@3PEAU_thread_@@EA ; task_list_last
	mov	QWORD PTR current_thread, rax

; 61   : 	} else {

	jmp	SHORT $LN1@thread_ins
$LN2@thread_ins:

; 62   : 		task_list_last->next = new_task;

	mov	rax, QWORD PTR ?task_list_last@@3PEAU_thread_@@EA ; task_list_last
	mov	rcx, QWORD PTR new_task$[rsp]
	mov	QWORD PTR [rax+1264], rcx

; 63   : 		new_task->prev = task_list_last;

	mov	rax, QWORD PTR new_task$[rsp]
	mov	rcx, QWORD PTR ?task_list_last@@3PEAU_thread_@@EA ; task_list_last
	mov	QWORD PTR [rax+1272], rcx
$LN1@thread_ins:

; 64   : 	}
; 65   : 	task_list_last = new_task;

	mov	rax, QWORD PTR new_task$[rsp]
	mov	QWORD PTR ?task_list_last@@3PEAU_thread_@@EA, rax ; task_list_last

; 66   : }

	ret	0
?thread_insert@@YAXPEAU_thread_@@@Z ENDP		; thread_insert
_TEXT	ENDS
; Function compile flags: /Odtpy
; File e:\xeneva project\xeneva\aurora\aurora\arch\x86_64\thread.cpp
_TEXT	SEGMENT
?sched_get_tick@@YAIXZ PROC				; sched_get_tick

; 508  : 	return system_tick;

	mov	eax, DWORD PTR ?system_tick@@3IA	; system_tick

; 509  : }

	ret	0
?sched_get_tick@@YAIXZ ENDP				; sched_get_tick
_TEXT	ENDS
; Function compile flags: /Odtpy
; File e:\xeneva project\xeneva\aurora\aurora\arch\x86_64\thread.cpp
_TEXT	SEGMENT
?is_scheduler_initialized@@YA_NXZ PROC			; is_scheduler_initialized

; 501  : 	return scheduler_initialized;

	movzx	eax, BYTE PTR ?scheduler_initialized@@3_NA ; scheduler_initialized

; 502  : }

	ret	0
?is_scheduler_initialized@@YA_NXZ ENDP			; is_scheduler_initialized
_TEXT	ENDS
; Function compile flags: /Odtpy
; File e:\xeneva project\xeneva\aurora\aurora\arch\x86_64\thread.cpp
_TEXT	SEGMENT
thread$ = 8
?task_delete@@YAXPEAU_thread_@@@Z PROC			; task_delete

; 72   : void task_delete (thread_t* thread) {

	mov	QWORD PTR [rsp+8], rcx

; 73   : 
; 74   : 	if (task_list_head == NULL)

	cmp	QWORD PTR ?task_list_head@@3PEAU_thread_@@EA, 0 ; task_list_head
	jne	SHORT $LN5@task_delet

; 75   : 		return;

	jmp	$LN6@task_delet
$LN5@task_delet:

; 76   : 
; 77   : 	if (thread == task_list_head) {

	mov	rax, QWORD PTR ?task_list_head@@3PEAU_thread_@@EA ; task_list_head
	cmp	QWORD PTR thread$[rsp], rax
	jne	SHORT $LN4@task_delet

; 78   : 		task_list_head = task_list_head->next;

	mov	rax, QWORD PTR ?task_list_head@@3PEAU_thread_@@EA ; task_list_head
	mov	rax, QWORD PTR [rax+1264]
	mov	QWORD PTR ?task_list_head@@3PEAU_thread_@@EA, rax ; task_list_head

; 79   : 	} else {

	jmp	SHORT $LN3@task_delet
$LN4@task_delet:

; 80   : 		thread->prev->next = thread->next;

	mov	rax, QWORD PTR thread$[rsp]
	mov	rax, QWORD PTR [rax+1272]
	mov	rcx, QWORD PTR thread$[rsp]
	mov	rcx, QWORD PTR [rcx+1264]
	mov	QWORD PTR [rax+1264], rcx
$LN3@task_delet:

; 81   : 	}
; 82   : 
; 83   : 	if (thread == task_list_last) {

	mov	rax, QWORD PTR ?task_list_last@@3PEAU_thread_@@EA ; task_list_last
	cmp	QWORD PTR thread$[rsp], rax
	jne	SHORT $LN2@task_delet

; 84   : 		task_list_last = thread->prev;

	mov	rax, QWORD PTR thread$[rsp]
	mov	rax, QWORD PTR [rax+1272]
	mov	QWORD PTR ?task_list_last@@3PEAU_thread_@@EA, rax ; task_list_last

; 85   : 	} else {

	jmp	SHORT $LN1@task_delet
$LN2@task_delet:

; 86   : 		thread->next->prev = thread->prev;

	mov	rax, QWORD PTR thread$[rsp]
	mov	rax, QWORD PTR [rax+1264]
	mov	rcx, QWORD PTR thread$[rsp]
	mov	rcx, QWORD PTR [rcx+1272]
	mov	QWORD PTR [rax+1272], rcx
$LN1@task_delet:
$LN6@task_delet:

; 87   : 	}
; 88   : 
; 89   : 	//pmmngr_free (thread);
; 90   : }

	fatret	0
?task_delete@@YAXPEAU_thread_@@@Z ENDP			; task_delete
_TEXT	ENDS
; Function compile flags: /Odtpy
; File e:\xeneva project\xeneva\aurora\aurora\arch\x86_64\thread.cpp
_TEXT	SEGMENT
t$ = 8
ms$ = 16
?sleep_thread@@YAXPEAU_thread_@@_K@Z PROC		; sleep_thread

; 477  : void sleep_thread (thread_t *t, uint64_t ms) {

	mov	QWORD PTR [rsp+16], rdx
	mov	QWORD PTR [rsp+8], rcx

; 478  : 	t->quanta = ms;

	mov	rax, QWORD PTR t$[rsp]
	movzx	ecx, WORD PTR ms$[rsp]
	mov	WORD PTR [rax+742], cx

; 479  : 	t->state = THREAD_STATE_SLEEP;

	mov	rax, QWORD PTR t$[rsp]
	mov	BYTE PTR [rax+736], 4

; 480  : }

	ret	0
?sleep_thread@@YAXPEAU_thread_@@_K@Z ENDP		; sleep_thread
_TEXT	ENDS
; Function compile flags: /Odtpy
; File e:\xeneva project\xeneva\aurora\aurora\arch\x86_64\thread.cpp
_TEXT	SEGMENT
thread$ = 8
?set_current_thread@@YAXPEAU_thread_@@@Z PROC		; set_current_thread

; 394  : void set_current_thread (thread_t *thread) {

	mov	QWORD PTR [rsp+8], rcx

; 395  : 	current_thread = thread;

	mov	rax, QWORD PTR thread$[rsp]
	mov	QWORD PTR current_thread, rax

; 396  : }

	ret	0
?set_current_thread@@YAXPEAU_thread_@@@Z ENDP		; set_current_thread
_TEXT	ENDS
; Function compile flags: /Odtpy
; File e:\xeneva project\xeneva\aurora\aurora\arch\x86_64\thread.cpp
_TEXT	SEGMENT
id$ = 0
it$1 = 8
thr$2 = 16
name$ = 48
?thread_get_id_by_name@@YAGPEAD@Z PROC			; thread_get_id_by_name

; 438  : uint16_t thread_get_id_by_name (char* name) {

$LN14:
	mov	QWORD PTR [rsp+8], rcx
	sub	rsp, 40					; 00000028H

; 439  : 	uint16_t id = 0;

	xor	eax, eax
	mov	WORD PTR id$[rsp], ax

; 440  : 	for (thread_t *it = task_list_head; it != NULL; it = it->next) {

	mov	rax, QWORD PTR ?task_list_head@@3PEAU_thread_@@EA ; task_list_head
	mov	QWORD PTR it$1[rsp], rax
	jmp	SHORT $LN11@thread_get
$LN10@thread_get:
	mov	rax, QWORD PTR it$1[rsp]
	mov	rax, QWORD PTR [rax+1264]
	mov	QWORD PTR it$1[rsp], rax
$LN11@thread_get:
	cmp	QWORD PTR it$1[rsp], 0
	je	SHORT $LN9@thread_get

; 441  : 		if (it->name == name) {

	mov	rax, QWORD PTR it$1[rsp]
	mov	rcx, QWORD PTR name$[rsp]
	cmp	QWORD PTR [rax+728], rcx
	jne	SHORT $LN8@thread_get

; 442  : 			id = it->id;

	mov	rax, QWORD PTR it$1[rsp]
	movzx	eax, WORD PTR [rax+738]
	mov	WORD PTR id$[rsp], ax

; 443  : 			break;

	jmp	SHORT $LN9@thread_get
$LN8@thread_get:

; 444  : 		}
; 445  : 	}

	jmp	SHORT $LN10@thread_get
$LN9@thread_get:

; 446  : 
; 447  : 	if (id > 0)

	movzx	eax, WORD PTR id$[rsp]
	test	eax, eax
	jle	SHORT $LN7@thread_get

; 448  : 		return id;

	movzx	eax, WORD PTR id$[rsp]
	jmp	SHORT $LN12@thread_get

; 449  : 	else{

	jmp	SHORT $LN6@thread_get
$LN7@thread_get:

; 450  : 		if (blocked_thr_head != NULL)

	cmp	QWORD PTR ?blocked_thr_head@@3PEAU_thread_@@EA, 0 ; blocked_thr_head
	je	SHORT $LN5@thread_get

; 451  : 			for (thread_t *thr = blocked_thr_head; thr != NULL; thr = thr->next) {

	mov	rax, QWORD PTR ?blocked_thr_head@@3PEAU_thread_@@EA ; blocked_thr_head
	mov	QWORD PTR thr$2[rsp], rax
	jmp	SHORT $LN4@thread_get
$LN3@thread_get:
	mov	rax, QWORD PTR thr$2[rsp]
	mov	rax, QWORD PTR [rax+1264]
	mov	QWORD PTR thr$2[rsp], rax
$LN4@thread_get:
	cmp	QWORD PTR thr$2[rsp], 0
	je	SHORT $LN2@thread_get

; 452  : 				if (thr->name == name) 

	mov	rax, QWORD PTR thr$2[rsp]
	mov	rcx, QWORD PTR name$[rsp]
	cmp	QWORD PTR [rax+728], rcx
	jne	SHORT $LN1@thread_get

; 453  : 					return thr->id;

	mov	rax, QWORD PTR thr$2[rsp]
	movzx	eax, WORD PTR [rax+738]
	jmp	SHORT $LN12@thread_get
$LN1@thread_get:

; 454  : 			}

	jmp	SHORT $LN3@thread_get
$LN2@thread_get:
$LN5@thread_get:
$LN6@thread_get:

; 455  : 	}
; 456  : 
; 457  : 	return NULL;

	xor	eax, eax
$LN12@thread_get:

; 458  : }

	add	rsp, 40					; 00000028H
	ret	0
?thread_get_id_by_name@@YAGPEAD@Z ENDP			; thread_get_id_by_name
_TEXT	ENDS
; Function compile flags: /Odtpy
; File e:\xeneva project\xeneva\aurora\aurora\arch\x86_64\thread.cpp
_TEXT	SEGMENT
thr$1 = 0
id$ = 32
?thread_iterate_block_list@@YAPEAU_thread_@@H@Z PROC	; thread_iterate_block_list

; 417  : thread_t* thread_iterate_block_list (int id) {

$LN8:
	mov	DWORD PTR [rsp+8], ecx
	sub	rsp, 24

; 418  : 	if (blocked_thr_head != NULL)

	cmp	QWORD PTR ?blocked_thr_head@@3PEAU_thread_@@EA, 0 ; blocked_thr_head
	je	SHORT $LN5@thread_ite

; 419  : 		for (thread_t *thr = blocked_thr_head; thr != NULL; thr = thr->next) {

	mov	rax, QWORD PTR ?blocked_thr_head@@3PEAU_thread_@@EA ; blocked_thr_head
	mov	QWORD PTR thr$1[rsp], rax
	jmp	SHORT $LN4@thread_ite
$LN3@thread_ite:
	mov	rax, QWORD PTR thr$1[rsp]
	mov	rax, QWORD PTR [rax+1264]
	mov	QWORD PTR thr$1[rsp], rax
$LN4@thread_ite:
	cmp	QWORD PTR thr$1[rsp], 0
	je	SHORT $LN2@thread_ite

; 420  : 			if (thr->id == id) {

	mov	rax, QWORD PTR thr$1[rsp]
	movzx	eax, WORD PTR [rax+738]
	cmp	eax, DWORD PTR id$[rsp]
	jne	SHORT $LN1@thread_ite

; 421  : 				return thr;

	mov	rax, QWORD PTR thr$1[rsp]
	jmp	SHORT $LN6@thread_ite
$LN1@thread_ite:

; 422  : 		}
; 423  : 	}

	jmp	SHORT $LN3@thread_ite
$LN2@thread_ite:
$LN5@thread_ite:

; 424  : 	return NULL;

	xor	eax, eax
$LN6@thread_ite:

; 425  : }

	add	rsp, 24
	ret	0
?thread_iterate_block_list@@YAPEAU_thread_@@H@Z ENDP	; thread_iterate_block_list
_TEXT	ENDS
; Function compile flags: /Odtpy
; File e:\xeneva project\xeneva\aurora\aurora\arch\x86_64\thread.cpp
_TEXT	SEGMENT
it$1 = 0
id$ = 32
?thread_iterate_ready_list@@YAPEAU_thread_@@G@Z PROC	; thread_iterate_ready_list

; 428  : thread_t * thread_iterate_ready_list (uint16_t id) {

$LN7:
	mov	WORD PTR [rsp+8], cx
	sub	rsp, 24

; 429  : 	for (thread_t *it = task_list_head; it != NULL; it = it->next) {

	mov	rax, QWORD PTR ?task_list_head@@3PEAU_thread_@@EA ; task_list_head
	mov	QWORD PTR it$1[rsp], rax
	jmp	SHORT $LN4@thread_ite
$LN3@thread_ite:
	mov	rax, QWORD PTR it$1[rsp]
	mov	rax, QWORD PTR [rax+1264]
	mov	QWORD PTR it$1[rsp], rax
$LN4@thread_ite:
	cmp	QWORD PTR it$1[rsp], 0
	je	SHORT $LN2@thread_ite

; 430  : 		if (it->id == id) {

	mov	rax, QWORD PTR it$1[rsp]
	movzx	eax, WORD PTR [rax+738]
	movzx	ecx, WORD PTR id$[rsp]
	cmp	eax, ecx
	jne	SHORT $LN1@thread_ite

; 431  : 			return it;

	mov	rax, QWORD PTR it$1[rsp]
	jmp	SHORT $LN5@thread_ite
$LN1@thread_ite:

; 432  : 		}
; 433  : 	}

	jmp	SHORT $LN3@thread_ite
$LN2@thread_ite:

; 434  : 	return NULL;

	xor	eax, eax
$LN5@thread_ite:

; 435  : }

	add	rsp, 24
	ret	0
?thread_iterate_ready_list@@YAPEAU_thread_@@G@Z ENDP	; thread_iterate_ready_list
_TEXT	ENDS
; Function compile flags: /Odtpy
; File e:\xeneva project\xeneva\aurora\aurora\arch\x86_64\thread.cpp
_TEXT	SEGMENT
?force_sched@@YAXXZ PROC				; force_sched

; 488  : void force_sched () {

$LN3:
	sub	rsp, 40					; 00000028H

; 489  : #ifdef USE_APIC
; 490  : 	force_sched_apic();

	call	force_sched_apic

; 491  : #elif USE_PIC
; 492  : 	force_sched_pic();
; 493  : #endif
; 494  : }

	add	rsp, 40					; 00000028H
	ret	0
?force_sched@@YAXXZ ENDP				; force_sched
_TEXT	ENDS
; Function compile flags: /Odtpy
; File e:\xeneva project\xeneva\aurora\aurora\arch\x86_64\thread.cpp
_TEXT	SEGMENT
?is_multi_task_enable@@YA_NXZ PROC			; is_multi_task_enable

; 402  : 	return scheduler_enable;

	movzx	eax, BYTE PTR ?scheduler_enable@@3_NA	; scheduler_enable

; 403  : }

	ret	0
?is_multi_task_enable@@YA_NXZ ENDP			; is_multi_task_enable
_TEXT	ENDS
; Function compile flags: /Odtpy
; File e:\xeneva project\xeneva\aurora\aurora\arch\x86_64\thread.cpp
_TEXT	SEGMENT
value$ = 8
?set_multi_task_enable@@YAX_N@Z PROC			; set_multi_task_enable

; 387  : void set_multi_task_enable (bool value) {

	mov	BYTE PTR [rsp+8], cl

; 388  : 	if (scheduler_enable == value)

	movzx	eax, BYTE PTR ?scheduler_enable@@3_NA	; scheduler_enable
	movzx	ecx, BYTE PTR value$[rsp]
	cmp	eax, ecx
	jne	SHORT $LN1@set_multi_

; 389  : 		return;

	jmp	SHORT $LN2@set_multi_
$LN1@set_multi_:

; 390  : 
; 391  : 	scheduler_enable = value;

	movzx	eax, BYTE PTR value$[rsp]
	mov	BYTE PTR ?scheduler_enable@@3_NA, al	; scheduler_enable
$LN2@set_multi_:

; 392  : }

	fatret	0
?set_multi_task_enable@@YAX_N@Z ENDP			; set_multi_task_enable
_TEXT	ENDS
; Function compile flags: /Odtpy
; File e:\xeneva project\xeneva\aurora\aurora\arch\x86_64\thread.cpp
_TEXT	SEGMENT
?get_current_thread@@YAPEAU_thread_@@XZ PROC		; get_current_thread

; 484  : 	return current_thread;

	mov	rax, QWORD PTR current_thread

; 485  : }

	ret	0
?get_current_thread@@YAPEAU_thread_@@XZ ENDP		; get_current_thread
_TEXT	ENDS
; Function compile flags: /Odtpy
; File e:\xeneva project\xeneva\aurora\aurora\arch\x86_64\thread.cpp
_TEXT	SEGMENT
thr$1 = 32
t$ = 64
?unblock_thread@@YAXPEAU_thread_@@@Z PROC		; unblock_thread

; 461  : void unblock_thread (thread_t *t) {

$LN7:
	mov	QWORD PTR [rsp+8], rcx
	sub	rsp, 56					; 00000038H

; 462  : 	x64_cli();

	call	x64_cli

; 463  : 	t->state = THREAD_STATE_READY;

	mov	rax, QWORD PTR t$[rsp]
	mov	BYTE PTR [rax+736], 1

; 464  : 	for (thread_t *thr = blocked_thr_head; thr != NULL; thr = thr->next) {

	mov	rax, QWORD PTR ?blocked_thr_head@@3PEAU_thread_@@EA ; blocked_thr_head
	mov	QWORD PTR thr$1[rsp], rax
	jmp	SHORT $LN4@unblock_th
$LN3@unblock_th:
	mov	rax, QWORD PTR thr$1[rsp]
	mov	rax, QWORD PTR [rax+1264]
	mov	QWORD PTR thr$1[rsp], rax
$LN4@unblock_th:
	cmp	QWORD PTR thr$1[rsp], 0
	je	SHORT $LN2@unblock_th

; 465  : 		if (thr == t) 

	mov	rax, QWORD PTR t$[rsp]
	cmp	QWORD PTR thr$1[rsp], rax
	jne	SHORT $LN1@unblock_th

; 466  : 			thread_delete_block(thr);

	mov	rcx, QWORD PTR thr$1[rsp]
	call	?thread_delete_block@@YAXPEAU_thread_@@@Z ; thread_delete_block
$LN1@unblock_th:

; 467  : 	}

	jmp	SHORT $LN3@unblock_th
$LN2@unblock_th:

; 468  : 	thread_insert (t);

	mov	rcx, QWORD PTR t$[rsp]
	call	?thread_insert@@YAXPEAU_thread_@@@Z	; thread_insert

; 469  : }

	add	rsp, 56					; 00000038H
	ret	0
?unblock_thread@@YAXPEAU_thread_@@@Z ENDP		; unblock_thread
_TEXT	ENDS
; Function compile flags: /Odtpy
; File e:\xeneva project\xeneva\aurora\aurora\arch\x86_64\thread.cpp
_TEXT	SEGMENT
thread$ = 48
?block_thread@@YAXPEAU_thread_@@@Z PROC			; block_thread

; 407  : void block_thread (thread_t *thread) {

$LN3:
	mov	QWORD PTR [rsp+8], rcx
	sub	rsp, 40					; 00000028H

; 408  : 	thread->state = THREAD_STATE_BLOCKED;

	mov	rax, QWORD PTR thread$[rsp]
	mov	BYTE PTR [rax+736], 3

; 409  : 	task_delete (thread);

	mov	rcx, QWORD PTR thread$[rsp]
	call	?task_delete@@YAXPEAU_thread_@@@Z	; task_delete

; 410  : 	//list_add (blocked_list,thread);
; 411  : 	thread_insert_block(thread);

	mov	rcx, QWORD PTR thread$[rsp]
	call	?thread_insert_block@@YAXPEAU_thread_@@@Z ; thread_insert_block

; 412  : }

	add	rsp, 40					; 00000028H
	ret	0
?block_thread@@YAXPEAU_thread_@@@Z ENDP			; block_thread
_TEXT	ENDS
; Function compile flags: /Odtpy
; File e:\xeneva project\xeneva\aurora\aurora\arch\x86_64\thread.cpp
_TEXT	SEGMENT
t$ = 32
entry$ = 64
stack$ = 72
cr3$ = 80
name$ = 88
priority$ = 96
?create_kthread@@YAPEAU_thread_@@P6AXXZ_K1QEADE@Z PROC	; create_kthread

; 145  : {

$LN3:
	mov	QWORD PTR [rsp+32], r9
	mov	QWORD PTR [rsp+24], r8
	mov	QWORD PTR [rsp+16], rdx
	mov	QWORD PTR [rsp+8], rcx
	sub	rsp, 56					; 00000038H

; 146  : 	thread_t *t = (thread_t*)malloc(sizeof(thread_t));//pmmngr_alloc();

	mov	ecx, 1280				; 00000500H
	call	malloc
	mov	QWORD PTR t$[rsp], rax

; 147  : 	memset(t, 0, sizeof(thread_t));

	mov	r8d, 1280				; 00000500H
	xor	edx, edx
	mov	rcx, QWORD PTR t$[rsp]
	call	memset

; 148  : 	t->ss = 0x10;

	mov	rax, QWORD PTR t$[rsp]
	mov	QWORD PTR [rax], 16

; 149  : 	t->rsp = (uint64_t*)stack;

	mov	rax, QWORD PTR t$[rsp]
	mov	rcx, QWORD PTR stack$[rsp]
	mov	QWORD PTR [rax+8], rcx

; 150  : 	t->rflags = 0x202;

	mov	rax, QWORD PTR t$[rsp]
	mov	QWORD PTR [rax+16], 514			; 00000202H

; 151  : 	t->cs = 0x08;

	mov	rax, QWORD PTR t$[rsp]
	mov	QWORD PTR [rax+24], 8

; 152  : 	t->rip = (uint64_t)entry;

	mov	rax, QWORD PTR t$[rsp]
	mov	rcx, QWORD PTR entry$[rsp]
	mov	QWORD PTR [rax+32], rcx

; 153  : 	t->rax = 0;

	mov	rax, QWORD PTR t$[rsp]
	mov	QWORD PTR [rax+40], 0

; 154  : 	t->rbx = 0;

	mov	rax, QWORD PTR t$[rsp]
	mov	QWORD PTR [rax+48], 0

; 155  : 	t->rcx = 0;

	mov	rax, QWORD PTR t$[rsp]
	mov	QWORD PTR [rax+56], 0

; 156  : 	t->rdx = 0;

	mov	rax, QWORD PTR t$[rsp]
	mov	QWORD PTR [rax+64], 0

; 157  : 	t->rsi = 0;

	mov	rax, QWORD PTR t$[rsp]
	mov	QWORD PTR [rax+72], 0

; 158  : 	t->rdi = 0;

	mov	rax, QWORD PTR t$[rsp]
	mov	QWORD PTR [rax+80], 0

; 159  : 	t->rbp = (uint64_t)t->rsp;

	mov	rax, QWORD PTR t$[rsp]
	mov	rcx, QWORD PTR t$[rsp]
	mov	rcx, QWORD PTR [rcx+8]
	mov	QWORD PTR [rax+88], rcx

; 160  : 	t->r8 = 0;

	mov	rax, QWORD PTR t$[rsp]
	mov	QWORD PTR [rax+96], 0

; 161  : 	t->r9 = 0;

	mov	rax, QWORD PTR t$[rsp]
	mov	QWORD PTR [rax+104], 0

; 162  : 	t->r10 = 0;

	mov	rax, QWORD PTR t$[rsp]
	mov	QWORD PTR [rax+112], 0

; 163  : 	t->r11 = 0;

	mov	rax, QWORD PTR t$[rsp]
	mov	QWORD PTR [rax+120], 0

; 164  : 	t->r12 = 0;

	mov	rax, QWORD PTR t$[rsp]
	mov	QWORD PTR [rax+128], 0

; 165  : 	t->r13 = 0;

	mov	rax, QWORD PTR t$[rsp]
	mov	QWORD PTR [rax+136], 0

; 166  : 	t->r14 = 0;

	mov	rax, QWORD PTR t$[rsp]
	mov	QWORD PTR [rax+144], 0

; 167  : 	t->r15 = 0;

	mov	rax, QWORD PTR t$[rsp]
	mov	QWORD PTR [rax+152], 0

; 168  : 	t->ds = 0x10;

	mov	rax, QWORD PTR t$[rsp]
	mov	QWORD PTR [rax+160], 16

; 169  : 	t->es = 0x10;

	mov	rax, QWORD PTR t$[rsp]
	mov	QWORD PTR [rax+168], 16

; 170  : 	t->fs = 0x10;

	mov	rax, QWORD PTR t$[rsp]
	mov	QWORD PTR [rax+176], 16

; 171  : 	t->gs = 0x10;

	mov	rax, QWORD PTR t$[rsp]
	mov	QWORD PTR [rax+184], 16

; 172  : 	t->kern_esp = stack;

	mov	rax, QWORD PTR t$[rsp]
	mov	rcx, QWORD PTR stack$[rsp]
	mov	QWORD PTR [rax+200], rcx

; 173  : 	t->ttype = 0;

	mov	rax, QWORD PTR t$[rsp]
	mov	QWORD PTR [rax+744], 0

; 174  : 	t->_is_user = 0;

	mov	rax, QWORD PTR t$[rsp]
	mov	BYTE PTR [rax+720], 0

; 175  : 	t->cr3 = cr3;

	mov	rax, QWORD PTR t$[rsp]
	mov	rcx, QWORD PTR cr3$[rsp]
	mov	QWORD PTR [rax+192], rcx

; 176  : 	t->name = name;

	mov	rax, QWORD PTR t$[rsp]
	mov	rcx, QWORD PTR name$[rsp]
	mov	QWORD PTR [rax+728], rcx

; 177  : 	t->id = task_id++;

	mov	rax, QWORD PTR t$[rsp]
	movzx	ecx, WORD PTR ?task_id@@3GA		; task_id
	mov	WORD PTR [rax+738], cx
	movzx	eax, WORD PTR ?task_id@@3GA		; task_id
	inc	ax
	mov	WORD PTR ?task_id@@3GA, ax		; task_id

; 178  : 	t->quanta = 0;

	xor	eax, eax
	mov	rcx, QWORD PTR t$[rsp]
	mov	WORD PTR [rcx+742], ax

; 179  : 	t->priviledge = THREAD_LEVEL_KERNEL;

	mov	rax, QWORD PTR t$[rsp]
	mov	BYTE PTR [rax+740], 1

; 180  : 	t->state = THREAD_STATE_READY;

	mov	rax, QWORD PTR t$[rsp]
	mov	BYTE PTR [rax+736], 1

; 181  : 	//t->priority = priority;
; 182  : 	t->fd_current = 0;

	mov	rax, QWORD PTR t$[rsp]
	mov	DWORD PTR [rax+1256], 0

; 183  : 	//t->fx_state = (char*)malloc(512);
; 184  : 	memset(t->fx_state, 0, 512);

	mov	rax, QWORD PTR t$[rsp]
	add	rax, 208				; 000000d0H
	mov	r8d, 512				; 00000200H
	xor	edx, edx
	mov	rcx, rax
	call	memset

; 185  : 	/*((fx_state_t*)t->fx_state)->mxcsr = 0x1f80;
; 186  : 	((fx_state_t*)t->fx_state)->mxcsrMask = 0xffbf;
; 187  : 	((fx_state_t*)t->fx_state)->fcw = 0x33f;*/
; 188  : 	thread_insert(t);

	mov	rcx, QWORD PTR t$[rsp]
	call	?thread_insert@@YAXPEAU_thread_@@@Z	; thread_insert

; 189  : 	return t;

	mov	rax, QWORD PTR t$[rsp]

; 190  : }

	add	rsp, 56					; 00000038H
	ret	0
?create_kthread@@YAPEAU_thread_@@P6AXXZ_K1QEADE@Z ENDP	; create_kthread
_TEXT	ENDS
; Function compile flags: /Odtpy
; File e:\xeneva project\xeneva\aurora\aurora\arch\x86_64\thread.cpp
_TEXT	SEGMENT
t$ = 32
entry$ = 64
stack$ = 72
cr3$ = 80
name$ = 88
priority$ = 96
?create_user_thread@@YAPEAU_thread_@@P6AXPEAX@Z_K2QEADE@Z PROC ; create_user_thread

; 201  : {

$LN3:
	mov	QWORD PTR [rsp+32], r9
	mov	QWORD PTR [rsp+24], r8
	mov	QWORD PTR [rsp+16], rdx
	mov	QWORD PTR [rsp+8], rcx
	sub	rsp, 56					; 00000038H

; 202  : 	thread_t *t = (thread_t*)malloc(sizeof(thread_t));//pmmngr_alloc();

	mov	ecx, 1280				; 00000500H
	call	malloc
	mov	QWORD PTR t$[rsp], rax

; 203  : 	memset (t, 0, sizeof(thread_t));

	mov	r8d, 1280				; 00000500H
	xor	edx, edx
	mov	rcx, QWORD PTR t$[rsp]
	call	memset

; 204  : 	t->ss = SEGVAL(GDT_ENTRY_USER_DATA,3); 

	mov	rax, QWORD PTR t$[rsp]
	mov	QWORD PTR [rax], 35			; 00000023H

; 205  : 	t->rsp = (uint64_t*)stack;

	mov	rax, QWORD PTR t$[rsp]
	mov	rcx, QWORD PTR stack$[rsp]
	mov	QWORD PTR [rax+8], rcx

; 206  : 	t->rflags = 0x286;

	mov	rax, QWORD PTR t$[rsp]
	mov	QWORD PTR [rax+16], 646			; 00000286H

; 207  : 	t->cs = SEGVAL (GDT_ENTRY_USER_CODE,3);

	mov	rax, QWORD PTR t$[rsp]
	mov	QWORD PTR [rax+24], 43			; 0000002bH

; 208  : 	t->rip = (uint64_t)entry;

	mov	rax, QWORD PTR t$[rsp]
	mov	rcx, QWORD PTR entry$[rsp]
	mov	QWORD PTR [rax+32], rcx

; 209  : 	t->rax = 0;

	mov	rax, QWORD PTR t$[rsp]
	mov	QWORD PTR [rax+40], 0

; 210  : 	t->rbx = 10;

	mov	rax, QWORD PTR t$[rsp]
	mov	QWORD PTR [rax+48], 10

; 211  : 	t->rcx = 0;

	mov	rax, QWORD PTR t$[rsp]
	mov	QWORD PTR [rax+56], 0

; 212  : 	t->rdx = 0;

	mov	rax, QWORD PTR t$[rsp]
	mov	QWORD PTR [rax+64], 0

; 213  : 	t->rsi = 10;

	mov	rax, QWORD PTR t$[rsp]
	mov	QWORD PTR [rax+72], 10

; 214  : 	t->rdi = 0;

	mov	rax, QWORD PTR t$[rsp]
	mov	QWORD PTR [rax+80], 0

; 215  : 	t->rbp = (uint64_t)t->rsp;

	mov	rax, QWORD PTR t$[rsp]
	mov	rcx, QWORD PTR t$[rsp]
	mov	rcx, QWORD PTR [rcx+8]
	mov	QWORD PTR [rax+88], rcx

; 216  : 	t->r8 = 0;

	mov	rax, QWORD PTR t$[rsp]
	mov	QWORD PTR [rax+96], 0

; 217  : 	t->r9 = 0;

	mov	rax, QWORD PTR t$[rsp]
	mov	QWORD PTR [rax+104], 0

; 218  : 	t->r10 = 0;

	mov	rax, QWORD PTR t$[rsp]
	mov	QWORD PTR [rax+112], 0

; 219  : 	t->r11 = 0;

	mov	rax, QWORD PTR t$[rsp]
	mov	QWORD PTR [rax+120], 0

; 220  : 	t->r12 = 0;

	mov	rax, QWORD PTR t$[rsp]
	mov	QWORD PTR [rax+128], 0

; 221  : 	t->r13 = 0;

	mov	rax, QWORD PTR t$[rsp]
	mov	QWORD PTR [rax+136], 0

; 222  : 	t->r14 = 0;

	mov	rax, QWORD PTR t$[rsp]
	mov	QWORD PTR [rax+144], 0

; 223  : 	t->r15 = 0;

	mov	rax, QWORD PTR t$[rsp]
	mov	QWORD PTR [rax+152], 0

; 224  : 
; 225  : 	/** Kernel stack is important for syscall or interruption in the system **/
; 226  : 	t->kern_esp = (uint64_t)allocate_kstack((uint64_t*)cr3);

	mov	rcx, QWORD PTR cr3$[rsp]
	call	?allocate_kstack@@YA_KPEA_K@Z		; allocate_kstack
	mov	rcx, QWORD PTR t$[rsp]
	mov	QWORD PTR [rcx+200], rax

; 227  : 
; 228  : 	t->ds = 0x23;

	mov	rax, QWORD PTR t$[rsp]
	mov	QWORD PTR [rax+160], 35			; 00000023H

; 229  : 	t->es = 0x23;

	mov	rax, QWORD PTR t$[rsp]
	mov	QWORD PTR [rax+168], 35			; 00000023H

; 230  : 	t->fs = 0x23;

	mov	rax, QWORD PTR t$[rsp]
	mov	QWORD PTR [rax+176], 35			; 00000023H

; 231  : 	t->gs = 0x23;

	mov	rax, QWORD PTR t$[rsp]
	mov	QWORD PTR [rax+184], 35			; 00000023H

; 232  : 	t->cr3 = v2p(cr3);

	mov	rcx, QWORD PTR cr3$[rsp]
	call	v2p
	mov	rcx, QWORD PTR t$[rsp]
	mov	QWORD PTR [rcx+192], rax

; 233  : 	t->name = name;

	mov	rax, QWORD PTR t$[rsp]
	mov	rcx, QWORD PTR name$[rsp]
	mov	QWORD PTR [rax+728], rcx

; 234  : 	t->id = task_id++;

	mov	rax, QWORD PTR t$[rsp]
	movzx	ecx, WORD PTR ?task_id@@3GA		; task_id
	mov	WORD PTR [rax+738], cx
	movzx	eax, WORD PTR ?task_id@@3GA		; task_id
	inc	ax
	mov	WORD PTR ?task_id@@3GA, ax		; task_id

; 235  : 	t->quanta = 0;

	xor	eax, eax
	mov	rcx, QWORD PTR t$[rsp]
	mov	WORD PTR [rcx+742], ax

; 236  : 	t->ttype = 0;

	mov	rax, QWORD PTR t$[rsp]
	mov	QWORD PTR [rax+744], 0

; 237  : 	t->msg_box = (uint64_t*)AuPmmngrAlloc();

	call	AuPmmngrAlloc
	mov	rcx, QWORD PTR t$[rsp]
	mov	QWORD PTR [rcx+752], rax

; 238  : 	/** Map the thread's msg box to a virtual address, from where the process will receive system messages **/
; 239  : 	AuMapPageEx((uint64_t*)t->cr3,(uint64_t)t->msg_box,(uint64_t)0xFFFFFFFFB0000000, PAGING_USER);

	mov	r9b, 4
	mov	r8, -1342177280				; ffffffffb0000000H
	mov	rax, QWORD PTR t$[rsp]
	mov	rdx, QWORD PTR [rax+752]
	mov	rax, QWORD PTR t$[rsp]
	mov	rcx, QWORD PTR [rax+192]
	call	?AuMapPageEx@@YA_NPEA_K_K1E@Z		; AuMapPageEx

; 240  : 	memset(t->fx_state, 0, 512);

	mov	rax, QWORD PTR t$[rsp]
	add	rax, 208				; 000000d0H
	mov	r8d, 512				; 00000200H
	xor	edx, edx
	mov	rcx, rax
	call	memset

; 241  : 	/*((fx_state_t*)t->fx_state)->mxcsr = 0x1f80;
; 242  : 	((fx_state_t*)t->fx_state)->mxcsrMask = 0xffbf;
; 243  : 	((fx_state_t*)t->fx_state)->fcw = 0x33f;*/
; 244  : 	t->_is_user = 1;

	mov	rax, QWORD PTR t$[rsp]
	mov	BYTE PTR [rax+720], 1

; 245  : 	t->priviledge = THREAD_LEVEL_USER;

	mov	rax, QWORD PTR t$[rsp]
	mov	BYTE PTR [rax+740], 2

; 246  : 	t->state = THREAD_STATE_READY;

	mov	rax, QWORD PTR t$[rsp]
	mov	BYTE PTR [rax+736], 1

; 247  : 	t->priority = priority;

	mov	rax, QWORD PTR t$[rsp]
	movzx	ecx, BYTE PTR priority$[rsp]
	mov	BYTE PTR [rax+768], cl

; 248  : 	t->fd_current = 0;

	mov	rax, QWORD PTR t$[rsp]
	mov	DWORD PTR [rax+1256], 0

; 249  : 	thread_insert (t);

	mov	rcx, QWORD PTR t$[rsp]
	call	?thread_insert@@YAXPEAU_thread_@@@Z	; thread_insert

; 250  : 	return t;

	mov	rax, QWORD PTR t$[rsp]

; 251  : }

	add	rsp, 56					; 00000038H
	ret	0
?create_user_thread@@YAPEAU_thread_@@P6AXPEAX@Z_K2QEADE@Z ENDP ; create_user_thread
_TEXT	ENDS
; Function compile flags: /Odtpy
; File e:\xeneva project\xeneva\aurora\aurora\arch\x86_64\thread.cpp
_TEXT	SEGMENT
?scheduler_start@@YAXXZ PROC				; scheduler_start

; 373  : void scheduler_start () {

$LN3:
	sub	rsp, 40					; 00000028H

; 374  : 	x64_cli();

	call	x64_cli

; 375  : #ifdef USE_APIC
; 376  : 	setvect(0x40, scheduler_isr);

	lea	rdx, OFFSET FLAT:?scheduler_isr@@YAX_KPEAX@Z ; scheduler_isr
	mov	ecx, 64					; 00000040H
	call	?setvect@@YAX_KP6AX0PEAX@Z@Z		; setvect

; 377  : #endif
; 378  : #ifdef USE_PIC
; 379  : 	interrupt_set(0,scheduler_isr,0);
; 380  : #endif
; 381  : 	x64_sti();

	call	x64_sti

; 382  : 	execute_idle(current_thread,get_kernel_tss());

	call	get_kernel_tss
	mov	rdx, rax
	mov	rcx, QWORD PTR current_thread
	call	execute_idle

; 383  : }

	add	rsp, 40					; 00000028H
	ret	0
?scheduler_start@@YAXXZ ENDP				; scheduler_start
_TEXT	ENDS
; Function compile flags: /Odtpy
; File e:\xeneva project\xeneva\aurora\aurora\arch\x86_64\thread.cpp
_TEXT	SEGMENT
tv67 = 48
idle_$ = 56
?initialize_scheduler@@YAXXZ PROC			; initialize_scheduler

; 263  : void initialize_scheduler () {

$LN3:
	sub	rsp, 72					; 00000048H

; 264  : 	//blocked_list = initialize_list();
; 265  : 	scheduler_enable = true;

	mov	BYTE PTR ?scheduler_enable@@3_NA, 1	; scheduler_enable

; 266  : 	scheduler_initialized = true;

	mov	BYTE PTR ?scheduler_initialized@@3_NA, 1 ; scheduler_initialized

; 267  : 	task_id = 0;

	xor	eax, eax
	mov	WORD PTR ?task_id@@3GA, ax		; task_id

; 268  : 	/** Here create the first thread, the idle thread which never gets
; 269  : 	    blocked nor get destroyed untill the system turns off **/
; 270  : 	thread_t *idle_ = create_kthread (idle_thread,(uint64_t)p2v((uint64_t)AuPmmngrAlloc() + 4096),x64_read_cr3(),"Idle",1);

	call	x64_read_cr3
	mov	QWORD PTR tv67[rsp], rax
	call	AuPmmngrAlloc
	add	rax, 4096				; 00001000H
	mov	rcx, rax
	call	p2v
	mov	BYTE PTR [rsp+32], 1
	lea	r9, OFFSET FLAT:$SG3512
	mov	rcx, QWORD PTR tv67[rsp]
	mov	r8, rcx
	mov	rdx, rax
	lea	rcx, OFFSET FLAT:?idle_thread@@YAXXZ	; idle_thread
	call	?create_kthread@@YAPEAU_thread_@@P6AXXZ_K1QEADE@Z ; create_kthread
	mov	QWORD PTR idle_$[rsp], rax

; 271  : 	current_thread = idle_;

	mov	rax, QWORD PTR idle_$[rsp]
	mov	QWORD PTR current_thread, rax

; 272  : }

	add	rsp, 72					; 00000048H
	ret	0
?initialize_scheduler@@YAXXZ ENDP			; initialize_scheduler
_TEXT	ENDS
END
