; Listing generated by Microsoft (R) Optimizing Compiler Version 17.00.50727.1 

include listing.inc

INCLUDELIB LIBCMT
INCLUDELIB OLDNAMES

PUBLIC	?scheduler_enable@@3_NA				; scheduler_enable
PUBLIC	?scheduler_initialized@@3_NA			; scheduler_initialized
PUBLIC	?task_id@@3GA					; task_id
PUBLIC	?blocked_list@@3PEAU_list_@@EA			; blocked_list
PUBLIC	?task_list_head@@3PEAU_thread_@@EA		; task_list_head
PUBLIC	?task_list_last@@3PEAU_thread_@@EA		; task_list_last
PUBLIC	?system_tick@@3IA				; system_tick
PUBLIC	current_thread
_BSS	SEGMENT
?scheduler_enable@@3_NA DB 01H DUP (?)			; scheduler_enable
	ALIGN	4

?scheduler_initialized@@3_NA DB 01H DUP (?)		; scheduler_initialized
	ALIGN	4

?task_id@@3GA DW 01H DUP (?)				; task_id
	ALIGN	8

?blocked_list@@3PEAU_list_@@EA DQ 01H DUP (?)		; blocked_list
?task_list_head@@3PEAU_thread_@@EA DQ 01H DUP (?)	; task_list_head
?task_list_last@@3PEAU_thread_@@EA DQ 01H DUP (?)	; task_list_last
?system_tick@@3IA DD 01H DUP (?)			; system_tick
	ALIGN	8

current_thread DQ 01H DUP (?)
_BSS	ENDS
CONST	SEGMENT
$SG3416	DB	'Idle', 00H
CONST	ENDS
PUBLIC	?initialize_scheduler@@YAXXZ			; initialize_scheduler
PUBLIC	?scheduler_start@@YAXXZ				; scheduler_start
PUBLIC	?create_user_thread@@YAPEAU_thread_@@P6AXPEAX@Z_K2QEADE@Z ; create_user_thread
PUBLIC	?create_kthread@@YAPEAU_thread_@@P6AXXZ_K1QEADE@Z ; create_kthread
PUBLIC	?block_thread@@YAXPEAU_thread_@@@Z		; block_thread
PUBLIC	?unblock_thread@@YAXPEAU_thread_@@@Z		; unblock_thread
PUBLIC	?get_current_thread@@YAPEAU_thread_@@XZ		; get_current_thread
PUBLIC	?set_multi_task_enable@@YAX_N@Z			; set_multi_task_enable
PUBLIC	?is_multi_task_enable@@YA_NXZ			; is_multi_task_enable
PUBLIC	?force_sched@@YAXXZ				; force_sched
PUBLIC	?thread_iterate_ready_list@@YAPEAU_thread_@@G@Z	; thread_iterate_ready_list
PUBLIC	?thread_iterate_block_list@@YAPEAU_thread_@@H@Z	; thread_iterate_block_list
PUBLIC	?thread_get_id_by_name@@YAGPEAD@Z		; thread_get_id_by_name
PUBLIC	?set_current_thread@@YAXPEAU_thread_@@@Z	; set_current_thread
PUBLIC	?sleep_thread@@YAXPEAU_thread_@@_K@Z		; sleep_thread
PUBLIC	?task_delete@@YAXPEAU_thread_@@@Z		; task_delete
PUBLIC	?is_scheduler_initialized@@YA_NXZ		; is_scheduler_initialized
PUBLIC	?sched_get_tick@@YAIXZ				; sched_get_tick
PUBLIC	?thread_insert@@YAXPEAU_thread_@@@Z		; thread_insert
PUBLIC	?idle_thread@@YAXXZ				; idle_thread
PUBLIC	?next_task@@YAXXZ				; next_task
PUBLIC	?scheduler_isr@@YAX_KPEAX@Z			; scheduler_isr
EXTRN	?memset@@YAXPEAXEI@Z:PROC			; memset
EXTRN	?pmmngr_alloc@@YAPEAXXZ:PROC			; pmmngr_alloc
EXTRN	x64_cli:PROC
EXTRN	x64_sti:PROC
EXTRN	x64_hlt:PROC
EXTRN	x64_read_cr3:PROC
EXTRN	?setvect@@YAX_KP6AX0PEAX@Z@Z:PROC		; setvect
EXTRN	?map_page_ex@@YA_NPEA_K_K1E@Z:PROC		; map_page_ex
EXTRN	?malloc@@YAPEAX_K@Z:PROC			; malloc
EXTRN	save_context:PROC
EXTRN	execute_idle:PROC
EXTRN	get_kernel_tss:PROC
EXTRN	?allocate_kstack@@YA_KPEA_K@Z:PROC		; allocate_kstack
EXTRN	?timer_fire@@YAXXZ:PROC				; timer_fire
EXTRN	?apic_local_eoi@@YAXXZ:PROC			; apic_local_eoi
EXTRN	?initialize_list@@YAPEAU_list_@@XZ:PROC		; initialize_list
EXTRN	?list_add@@YAXPEAU_list_@@PEAX@Z:PROC		; list_add
EXTRN	?list_remove@@YAPEAXPEAU_list_@@I@Z:PROC	; list_remove
EXTRN	?list_get_at@@YAPEAXPEAU_list_@@I@Z:PROC	; list_get_at
EXTRN	force_sched_apic:PROC
pdata	SEGMENT
$pdata$?initialize_scheduler@@YAXXZ DD imagerel $LN3
	DD	imagerel $LN3+111
	DD	imagerel $unwind$?initialize_scheduler@@YAXXZ
$pdata$?scheduler_start@@YAXXZ DD imagerel $LN3
	DD	imagerel $LN3+56
	DD	imagerel $unwind$?scheduler_start@@YAXXZ
$pdata$?create_user_thread@@YAPEAU_thread_@@P6AXPEAX@Z_K2QEADE@Z DD imagerel $LN3
	DD	imagerel $LN3+664
	DD	imagerel $unwind$?create_user_thread@@YAPEAU_thread_@@P6AXPEAX@Z_K2QEADE@Z
$pdata$?create_kthread@@YAPEAU_thread_@@P6AXXZ_K1QEADE@Z DD imagerel $LN3
	DD	imagerel $LN3+586
	DD	imagerel $unwind$?create_kthread@@YAPEAU_thread_@@P6AXXZ_K1QEADE@Z
$pdata$?block_thread@@YAXPEAU_thread_@@@Z DD imagerel $LN3
	DD	imagerel $LN3+53
	DD	imagerel $unwind$?block_thread@@YAXPEAU_thread_@@@Z
$pdata$?unblock_thread@@YAXPEAU_thread_@@@Z DD imagerel $LN7
	DD	imagerel $LN7+127
	DD	imagerel $unwind$?unblock_thread@@YAXPEAU_thread_@@@Z
$pdata$?force_sched@@YAXXZ DD imagerel $LN3
	DD	imagerel $LN3+14
	DD	imagerel $unwind$?force_sched@@YAXXZ
$pdata$?thread_iterate_ready_list@@YAPEAU_thread_@@G@Z DD imagerel $LN7
	DD	imagerel $LN7+79
	DD	imagerel $unwind$?thread_iterate_ready_list@@YAPEAU_thread_@@G@Z
$pdata$?thread_iterate_block_list@@YAPEAU_thread_@@H@Z DD imagerel $LN8
	DD	imagerel $LN8+110
	DD	imagerel $unwind$?thread_iterate_block_list@@YAPEAU_thread_@@H@Z
$pdata$?thread_get_id_by_name@@YAGPEAD@Z DD imagerel $LN14
	DD	imagerel $LN14+223
	DD	imagerel $unwind$?thread_get_id_by_name@@YAGPEAD@Z
$pdata$?idle_thread@@YAXXZ DD imagerel $LN5
	DD	imagerel $LN5+23
	DD	imagerel $unwind$?idle_thread@@YAXXZ
$pdata$?next_task@@YAXXZ DD imagerel $LN9
	DD	imagerel $LN9+147
	DD	imagerel $unwind$?next_task@@YAXXZ
$pdata$?scheduler_isr@@YAX_KPEAX@Z DD imagerel $LN8
	DD	imagerel $LN8+260
	DD	imagerel $unwind$?scheduler_isr@@YAX_KPEAX@Z
pdata	ENDS
xdata	SEGMENT
$unwind$?initialize_scheduler@@YAXXZ DD 010401H
	DD	08204H
$unwind$?scheduler_start@@YAXXZ DD 010401H
	DD	04204H
$unwind$?create_user_thread@@YAPEAU_thread_@@P6AXPEAX@Z_K2QEADE@Z DD 011801H
	DD	06218H
$unwind$?create_kthread@@YAPEAU_thread_@@P6AXXZ_K1QEADE@Z DD 011801H
	DD	06218H
$unwind$?block_thread@@YAXPEAU_thread_@@@Z DD 010901H
	DD	04209H
$unwind$?unblock_thread@@YAXPEAU_thread_@@@Z DD 010901H
	DD	06209H
$unwind$?force_sched@@YAXXZ DD 010401H
	DD	04204H
$unwind$?thread_iterate_ready_list@@YAPEAU_thread_@@G@Z DD 010901H
	DD	02209H
$unwind$?thread_iterate_block_list@@YAPEAU_thread_@@H@Z DD 010801H
	DD	06208H
$unwind$?thread_get_id_by_name@@YAGPEAD@Z DD 010901H
	DD	08209H
$unwind$?idle_thread@@YAXXZ DD 010401H
	DD	04204H
$unwind$?next_task@@YAXXZ DD 010401H
	DD	02204H
$unwind$?scheduler_isr@@YAX_KPEAX@Z DD 010e01H
	DD	0620eH
xdata	ENDS
; Function compile flags: /Odtpy
; File e:\xeneva project\xeneva\aurora\aurora\arch\x86_64\thread.cpp
_TEXT	SEGMENT
frame$ = 32
v$ = 64
param$ = 72
?scheduler_isr@@YAX_KPEAX@Z PROC			; scheduler_isr

; 257  : void scheduler_isr (size_t v, void* param) {

$LN8:
	mov	QWORD PTR [rsp+16], rdx
	mov	QWORD PTR [rsp+8], rcx
	sub	rsp, 56					; 00000038H

; 258  : 	x64_cli();

	call	x64_cli

; 259  : 	interrupt_stack_frame *frame = (interrupt_stack_frame*)param;

	mov	rax, QWORD PTR param$[rsp]
	mov	QWORD PTR frame$[rsp], rax

; 260  : 	/* check for enable bit, if yes than proceed for 
; 261  : 	   multitasking */
; 262  : 	if (scheduler_enable == false)

	movzx	eax, BYTE PTR ?scheduler_enable@@3_NA	; scheduler_enable
	test	eax, eax
	jne	SHORT $LN5@scheduler_

; 263  : 		goto sched_end;

	jmp	$LN4@scheduler_
	jmp	$sched_end$9
$LN5@scheduler_:

; 264  : 
; 265  : 	//mutex_lock (scheduler_mutex);
; 266  :    
; 267  : 	/** save currently running thread contexts */
; 268  : 	if (save_context(current_thread,get_kernel_tss()) == 0) {

	call	get_kernel_tss
	mov	rdx, rax
	mov	rcx, QWORD PTR current_thread
	call	save_context
	test	eax, eax
	jne	$LN3@scheduler_

; 269  : 		current_thread->cr3 = x64_read_cr3();

	call	x64_read_cr3
	mov	rcx, QWORD PTR current_thread
	mov	QWORD PTR [rcx+192], rax

; 270  : 
; 271  : 		/* check if the thread is user mode thread, if yes
; 272  : 		   than store the kernel esp */
; 273  : 		if (current_thread->priviledge == THREAD_LEVEL_USER)

	mov	rax, QWORD PTR current_thread
	movzx	eax, BYTE PTR [rax+236]
	cmp	eax, 2
	jne	SHORT $LN2@scheduler_

; 274  : 			current_thread->kern_esp = get_kernel_tss()->rsp[0];

	call	get_kernel_tss
	mov	ecx, 8
	imul	rcx, 0
	mov	rdx, QWORD PTR current_thread
	mov	rax, QWORD PTR [rax+rcx+4]
	mov	QWORD PTR [rdx+200], rax
$LN2@scheduler_:

; 275  : 
; 276  : 		/* now get the next runnable task from the thread list */
; 277  : 		next_task();

	call	?next_task@@YAXXZ			; next_task

; 278  : 
; 279  : 		/*
; 280  : 		  Here increase the system tick and
; 281  : 		  fire the timer
; 282  : 		  */
; 283  : 		system_tick++;

	mov	eax, DWORD PTR ?system_tick@@3IA	; system_tick
	inc	eax
	mov	DWORD PTR ?system_tick@@3IA, eax	; system_tick

; 284  : 		timer_fire();

	call	?timer_fire@@YAXXZ			; timer_fire

; 285  : #ifdef USE_APIC
; 286  : 	    apic_local_eoi();

	call	?apic_local_eoi@@YAXXZ			; apic_local_eoi

; 287  : #endif
; 288  : #ifdef USE_PIC
; 289  : 		interrupt_end (0);
; 290  : #endif
; 291  : 		
; 292  : 		/** now return to the new task last stored instruction */
; 293  : 
; 294  : 
; 295  : 		if (current_thread->priviledge == THREAD_LEVEL_USER){

	mov	rax, QWORD PTR current_thread
	movzx	eax, BYTE PTR [rax+236]
	cmp	eax, 2
	jne	SHORT $LN1@scheduler_

; 296  : 			get_kernel_tss()->rsp[0] = current_thread->kern_esp;

	call	get_kernel_tss
	mov	ecx, 8
	imul	rcx, 0
	mov	rdx, QWORD PTR current_thread
	mov	rdx, QWORD PTR [rdx+200]
	mov	QWORD PTR [rax+rcx+4], rdx
$LN1@scheduler_:

; 297  : 		}
; 298  : 
; 299  : 		//x64_write_cr3 (current_thread->cr3);
; 300  : 		//mutex_unlock (scheduler_mutex);
; 301  : 		execute_idle (current_thread,get_kernel_tss());

	call	get_kernel_tss
	mov	rdx, rax
	mov	rcx, QWORD PTR current_thread
	call	execute_idle
$LN3@scheduler_:
$LN4@scheduler_:
$sched_end$9:

; 302  : 	}
; 303  : 
; 304  : sched_end:
; 305  : #ifdef USE_APIC
; 306  : 	apic_local_eoi();

	call	?apic_local_eoi@@YAXXZ			; apic_local_eoi

; 307  : #endif
; 308  : #ifdef USE_PIC
; 309  : 	interrupt_end(0);
; 310  : #endif
; 311  : 	//x64_sti();
; 312  : 	
; 313  : }

	add	rsp, 56					; 00000038H
	ret	0
?scheduler_isr@@YAX_KPEAX@Z ENDP			; scheduler_isr
_TEXT	ENDS
; Function compile flags: /Odtpy
; File e:\xeneva project\xeneva\aurora\aurora\arch\x86_64\thread.cpp
_TEXT	SEGMENT
task$ = 0
?next_task@@YAXXZ PROC					; next_task

; 233  : void next_task () {

$LN9:
	sub	rsp, 24

; 234  : 	thread_t* task = current_thread;

	mov	rax, QWORD PTR current_thread
	mov	QWORD PTR task$[rsp], rax
$LN6@next_task:

; 235  : 	do {
; 236  : 		if (task->state == THREAD_STATE_SLEEP) {

	mov	rax, QWORD PTR task$[rsp]
	movzx	eax, BYTE PTR [rax+232]
	cmp	eax, 4
	jne	SHORT $LN3@next_task

; 237  : 			if (task->quanta == 0) {

	mov	rax, QWORD PTR task$[rsp]
	movzx	eax, WORD PTR [rax+238]
	test	eax, eax
	jne	SHORT $LN2@next_task

; 238  : 				task->state = THREAD_STATE_READY;

	mov	rax, QWORD PTR task$[rsp]
	mov	BYTE PTR [rax+232], 1
$LN2@next_task:

; 239  : 			}
; 240  : 			task->quanta--;

	mov	rax, QWORD PTR task$[rsp]
	movzx	eax, WORD PTR [rax+238]
	dec	ax
	mov	rcx, QWORD PTR task$[rsp]
	mov	WORD PTR [rcx+238], ax
$LN3@next_task:

; 241  : 		}
; 242  : 		task = task->next;

	mov	rax, QWORD PTR task$[rsp]
	mov	rax, QWORD PTR [rax+760]
	mov	QWORD PTR task$[rsp], rax

; 243  : 		if (task == NULL) {

	cmp	QWORD PTR task$[rsp], 0
	jne	SHORT $LN1@next_task

; 244  : 			task = task_list_head;

	mov	rax, QWORD PTR ?task_list_head@@3PEAU_thread_@@EA ; task_list_head
	mov	QWORD PTR task$[rsp], rax
$LN1@next_task:

; 245  : 		}
; 246  : 	}while (task->state != THREAD_STATE_READY);

	mov	rax, QWORD PTR task$[rsp]
	movzx	eax, BYTE PTR [rax+232]
	cmp	eax, 1
	jne	SHORT $LN6@next_task
$end$10:

; 247  : 
; 248  : end:
; 249  : 	current_thread = task;

	mov	rax, QWORD PTR task$[rsp]
	mov	QWORD PTR current_thread, rax

; 250  : }

	add	rsp, 24
	ret	0
?next_task@@YAXXZ ENDP					; next_task
_TEXT	ENDS
; Function compile flags: /Odtpy
; File e:\xeneva project\xeneva\aurora\aurora\arch\x86_64\thread.cpp
_TEXT	SEGMENT
?idle_thread@@YAXXZ PROC				; idle_thread

; 203  : void idle_thread () {

$LN5:
	sub	rsp, 40					; 00000028H
$LN2@idle_threa:

; 204  : 	while(1) {

	xor	eax, eax
	cmp	eax, 1
	je	SHORT $LN1@idle_threa

; 205  : 		x64_hlt();

	call	x64_hlt

; 206  : 	}

	jmp	SHORT $LN2@idle_threa
$LN1@idle_threa:

; 207  : }

	add	rsp, 40					; 00000028H
	ret	0
?idle_thread@@YAXXZ ENDP				; idle_thread
_TEXT	ENDS
; Function compile flags: /Odtpy
; File e:\xeneva project\xeneva\aurora\aurora\arch\x86_64\thread.cpp
_TEXT	SEGMENT
new_task$ = 8
?thread_insert@@YAXPEAU_thread_@@@Z PROC		; thread_insert

; 50   : void thread_insert (thread_t* new_task ) {

	mov	QWORD PTR [rsp+8], rcx

; 51   : 	new_task->next = NULL;

	mov	rax, QWORD PTR new_task$[rsp]
	mov	QWORD PTR [rax+760], 0

; 52   : 	new_task->prev = NULL;

	mov	rax, QWORD PTR new_task$[rsp]
	mov	QWORD PTR [rax+768], 0

; 53   : 
; 54   : 	if (task_list_head == NULL) {

	cmp	QWORD PTR ?task_list_head@@3PEAU_thread_@@EA, 0 ; task_list_head
	jne	SHORT $LN2@thread_ins

; 55   : 		task_list_last = new_task;

	mov	rax, QWORD PTR new_task$[rsp]
	mov	QWORD PTR ?task_list_last@@3PEAU_thread_@@EA, rax ; task_list_last

; 56   : 		task_list_head = new_task;

	mov	rax, QWORD PTR new_task$[rsp]
	mov	QWORD PTR ?task_list_head@@3PEAU_thread_@@EA, rax ; task_list_head

; 57   : 		current_thread = task_list_last;

	mov	rax, QWORD PTR ?task_list_last@@3PEAU_thread_@@EA ; task_list_last
	mov	QWORD PTR current_thread, rax

; 58   : 	} else {

	jmp	SHORT $LN1@thread_ins
$LN2@thread_ins:

; 59   : 		task_list_last->next = new_task;

	mov	rax, QWORD PTR ?task_list_last@@3PEAU_thread_@@EA ; task_list_last
	mov	rcx, QWORD PTR new_task$[rsp]
	mov	QWORD PTR [rax+760], rcx

; 60   : 		new_task->prev = task_list_last;

	mov	rax, QWORD PTR new_task$[rsp]
	mov	rcx, QWORD PTR ?task_list_last@@3PEAU_thread_@@EA ; task_list_last
	mov	QWORD PTR [rax+768], rcx
$LN1@thread_ins:

; 61   : 	}
; 62   : 	task_list_last = new_task;

	mov	rax, QWORD PTR new_task$[rsp]
	mov	QWORD PTR ?task_list_last@@3PEAU_thread_@@EA, rax ; task_list_last

; 63   : }

	ret	0
?thread_insert@@YAXPEAU_thread_@@@Z ENDP		; thread_insert
_TEXT	ENDS
; Function compile flags: /Odtpy
; File e:\xeneva project\xeneva\aurora\aurora\arch\x86_64\thread.cpp
_TEXT	SEGMENT
?sched_get_tick@@YAIXZ PROC				; sched_get_tick

; 455  : 	return system_tick;

	mov	eax, DWORD PTR ?system_tick@@3IA	; system_tick

; 456  : }

	ret	0
?sched_get_tick@@YAIXZ ENDP				; sched_get_tick
_TEXT	ENDS
; Function compile flags: /Odtpy
; File e:\xeneva project\xeneva\aurora\aurora\arch\x86_64\thread.cpp
_TEXT	SEGMENT
?is_scheduler_initialized@@YA_NXZ PROC			; is_scheduler_initialized

; 448  : 	return scheduler_initialized;

	movzx	eax, BYTE PTR ?scheduler_initialized@@3_NA ; scheduler_initialized

; 449  : }

	ret	0
?is_scheduler_initialized@@YA_NXZ ENDP			; is_scheduler_initialized
_TEXT	ENDS
; Function compile flags: /Odtpy
; File e:\xeneva project\xeneva\aurora\aurora\arch\x86_64\thread.cpp
_TEXT	SEGMENT
thread$ = 8
?task_delete@@YAXPEAU_thread_@@@Z PROC			; task_delete

; 69   : void task_delete (thread_t* thread) {

	mov	QWORD PTR [rsp+8], rcx

; 70   : 
; 71   : 	if (task_list_head == NULL)

	cmp	QWORD PTR ?task_list_head@@3PEAU_thread_@@EA, 0 ; task_list_head
	jne	SHORT $LN5@task_delet

; 72   : 		return;

	jmp	$LN6@task_delet
$LN5@task_delet:

; 73   : 
; 74   : 	if (thread == task_list_head) {

	mov	rax, QWORD PTR ?task_list_head@@3PEAU_thread_@@EA ; task_list_head
	cmp	QWORD PTR thread$[rsp], rax
	jne	SHORT $LN4@task_delet

; 75   : 		task_list_head = task_list_head->next;

	mov	rax, QWORD PTR ?task_list_head@@3PEAU_thread_@@EA ; task_list_head
	mov	rax, QWORD PTR [rax+760]
	mov	QWORD PTR ?task_list_head@@3PEAU_thread_@@EA, rax ; task_list_head

; 76   : 	} else {

	jmp	SHORT $LN3@task_delet
$LN4@task_delet:

; 77   : 		thread->prev->next = thread->next;

	mov	rax, QWORD PTR thread$[rsp]
	mov	rax, QWORD PTR [rax+768]
	mov	rcx, QWORD PTR thread$[rsp]
	mov	rcx, QWORD PTR [rcx+760]
	mov	QWORD PTR [rax+760], rcx
$LN3@task_delet:

; 78   : 	}
; 79   : 
; 80   : 	if (thread == task_list_last) {

	mov	rax, QWORD PTR ?task_list_last@@3PEAU_thread_@@EA ; task_list_last
	cmp	QWORD PTR thread$[rsp], rax
	jne	SHORT $LN2@task_delet

; 81   : 		task_list_last = thread->prev;

	mov	rax, QWORD PTR thread$[rsp]
	mov	rax, QWORD PTR [rax+768]
	mov	QWORD PTR ?task_list_last@@3PEAU_thread_@@EA, rax ; task_list_last

; 82   : 	} else {

	jmp	SHORT $LN1@task_delet
$LN2@task_delet:

; 83   : 		thread->next->prev = thread->prev;

	mov	rax, QWORD PTR thread$[rsp]
	mov	rax, QWORD PTR [rax+760]
	mov	rcx, QWORD PTR thread$[rsp]
	mov	rcx, QWORD PTR [rcx+768]
	mov	QWORD PTR [rax+768], rcx
$LN1@task_delet:
$LN6@task_delet:

; 84   : 	}
; 85   : 
; 86   : 	//pmmngr_free (thread);
; 87   : }

	fatret	0
?task_delete@@YAXPEAU_thread_@@@Z ENDP			; task_delete
_TEXT	ENDS
; Function compile flags: /Odtpy
; File e:\xeneva project\xeneva\aurora\aurora\arch\x86_64\thread.cpp
_TEXT	SEGMENT
t$ = 8
ms$ = 16
?sleep_thread@@YAXPEAU_thread_@@_K@Z PROC		; sleep_thread

; 424  : void sleep_thread (thread_t *t, uint64_t ms) {

	mov	QWORD PTR [rsp+16], rdx
	mov	QWORD PTR [rsp+8], rcx

; 425  : 	t->quanta = ms;

	mov	rax, QWORD PTR t$[rsp]
	movzx	ecx, WORD PTR ms$[rsp]
	mov	WORD PTR [rax+238], cx

; 426  : 	t->state = THREAD_STATE_SLEEP;

	mov	rax, QWORD PTR t$[rsp]
	mov	BYTE PTR [rax+232], 4

; 427  : }

	ret	0
?sleep_thread@@YAXPEAU_thread_@@_K@Z ENDP		; sleep_thread
_TEXT	ENDS
; Function compile flags: /Odtpy
; File e:\xeneva project\xeneva\aurora\aurora\arch\x86_64\thread.cpp
_TEXT	SEGMENT
thread$ = 8
?set_current_thread@@YAXPEAU_thread_@@@Z PROC		; set_current_thread

; 338  : void set_current_thread (thread_t *thread) {

	mov	QWORD PTR [rsp+8], rcx

; 339  : 	current_thread = thread;

	mov	rax, QWORD PTR thread$[rsp]
	mov	QWORD PTR current_thread, rax

; 340  : }

	ret	0
?set_current_thread@@YAXPEAU_thread_@@@Z ENDP		; set_current_thread
_TEXT	ENDS
; Function compile flags: /Odtpy
; File e:\xeneva project\xeneva\aurora\aurora\arch\x86_64\thread.cpp
_TEXT	SEGMENT
id$ = 32
i$1 = 36
it$2 = 40
t$3 = 48
name$ = 80
?thread_get_id_by_name@@YAGPEAD@Z PROC			; thread_get_id_by_name

; 382  : uint16_t thread_get_id_by_name (char* name) {

$LN14:
	mov	QWORD PTR [rsp+8], rcx
	sub	rsp, 72					; 00000048H

; 383  : 	uint16_t id = 0;

	xor	eax, eax
	mov	WORD PTR id$[rsp], ax

; 384  : 	for (thread_t *it = task_list_head; it != NULL; it = it->next) {

	mov	rax, QWORD PTR ?task_list_head@@3PEAU_thread_@@EA ; task_list_head
	mov	QWORD PTR it$2[rsp], rax
	jmp	SHORT $LN11@thread_get
$LN10@thread_get:
	mov	rax, QWORD PTR it$2[rsp]
	mov	rax, QWORD PTR [rax+760]
	mov	QWORD PTR it$2[rsp], rax
$LN11@thread_get:
	cmp	QWORD PTR it$2[rsp], 0
	je	SHORT $LN9@thread_get

; 385  : 		if (it->name == name) {

	mov	rax, QWORD PTR it$2[rsp]
	mov	rcx, QWORD PTR name$[rsp]
	cmp	QWORD PTR [rax+224], rcx
	jne	SHORT $LN8@thread_get

; 386  : 			id = it->id;

	mov	rax, QWORD PTR it$2[rsp]
	movzx	eax, WORD PTR [rax+234]
	mov	WORD PTR id$[rsp], ax

; 387  : 			break;

	jmp	SHORT $LN9@thread_get
$LN8@thread_get:

; 388  : 		}
; 389  : 	}

	jmp	SHORT $LN10@thread_get
$LN9@thread_get:

; 390  : 
; 391  : 	if (id > 0)

	movzx	eax, WORD PTR id$[rsp]
	test	eax, eax
	jle	SHORT $LN7@thread_get

; 392  : 		return id;

	movzx	eax, WORD PTR id$[rsp]
	jmp	SHORT $LN12@thread_get

; 393  : 	else{

	jmp	SHORT $LN6@thread_get
$LN7@thread_get:

; 394  : 		if (blocked_list->pointer >0)

	mov	rax, QWORD PTR ?blocked_list@@3PEAU_list_@@EA ; blocked_list
	cmp	DWORD PTR [rax], 0
	jbe	SHORT $LN5@thread_get

; 395  : 			for (int i = 0; i < blocked_list->pointer; i++) {

	mov	DWORD PTR i$1[rsp], 0
	jmp	SHORT $LN4@thread_get
$LN3@thread_get:
	mov	eax, DWORD PTR i$1[rsp]
	inc	eax
	mov	DWORD PTR i$1[rsp], eax
$LN4@thread_get:
	mov	rax, QWORD PTR ?blocked_list@@3PEAU_list_@@EA ; blocked_list
	mov	eax, DWORD PTR [rax]
	cmp	DWORD PTR i$1[rsp], eax
	jae	SHORT $LN2@thread_get

; 396  : 				thread_t*  t = (thread_t*)list_get_at (blocked_list,i);

	mov	edx, DWORD PTR i$1[rsp]
	mov	rcx, QWORD PTR ?blocked_list@@3PEAU_list_@@EA ; blocked_list
	call	?list_get_at@@YAPEAXPEAU_list_@@I@Z	; list_get_at
	mov	QWORD PTR t$3[rsp], rax

; 397  : 				if (t->name == name) {

	mov	rax, QWORD PTR t$3[rsp]
	mov	rcx, QWORD PTR name$[rsp]
	cmp	QWORD PTR [rax+224], rcx
	jne	SHORT $LN1@thread_get

; 398  : 					return t->id;

	mov	rax, QWORD PTR t$3[rsp]
	movzx	eax, WORD PTR [rax+234]
	jmp	SHORT $LN12@thread_get
$LN1@thread_get:

; 399  : 				}
; 400  : 			}

	jmp	SHORT $LN3@thread_get
$LN2@thread_get:
$LN5@thread_get:
$LN6@thread_get:

; 401  : 	}
; 402  : 
; 403  : 	return NULL;

	xor	eax, eax
$LN12@thread_get:

; 404  : }

	add	rsp, 72					; 00000048H
	ret	0
?thread_get_id_by_name@@YAGPEAD@Z ENDP			; thread_get_id_by_name
_TEXT	ENDS
; Function compile flags: /Odtpy
; File e:\xeneva project\xeneva\aurora\aurora\arch\x86_64\thread.cpp
_TEXT	SEGMENT
i$1 = 32
t$2 = 40
id$ = 64
?thread_iterate_block_list@@YAPEAU_thread_@@H@Z PROC	; thread_iterate_block_list

; 360  : thread_t* thread_iterate_block_list (int id) {

$LN8:
	mov	DWORD PTR [rsp+8], ecx
	sub	rsp, 56					; 00000038H

; 361  : 	if (blocked_list->pointer >0)

	mov	rax, QWORD PTR ?blocked_list@@3PEAU_list_@@EA ; blocked_list
	cmp	DWORD PTR [rax], 0
	jbe	SHORT $LN5@thread_ite

; 362  : 		for (int i = 0; i < blocked_list->pointer; i++) {

	mov	DWORD PTR i$1[rsp], 0
	jmp	SHORT $LN4@thread_ite
$LN3@thread_ite:
	mov	eax, DWORD PTR i$1[rsp]
	inc	eax
	mov	DWORD PTR i$1[rsp], eax
$LN4@thread_ite:
	mov	rax, QWORD PTR ?blocked_list@@3PEAU_list_@@EA ; blocked_list
	mov	eax, DWORD PTR [rax]
	cmp	DWORD PTR i$1[rsp], eax
	jae	SHORT $LN2@thread_ite

; 363  : 			thread_t*  t = (thread_t*)list_get_at (blocked_list,i);

	mov	edx, DWORD PTR i$1[rsp]
	mov	rcx, QWORD PTR ?blocked_list@@3PEAU_list_@@EA ; blocked_list
	call	?list_get_at@@YAPEAXPEAU_list_@@I@Z	; list_get_at
	mov	QWORD PTR t$2[rsp], rax

; 364  : 			if (t->id == id) {

	mov	rax, QWORD PTR t$2[rsp]
	movzx	eax, WORD PTR [rax+234]
	cmp	eax, DWORD PTR id$[rsp]
	jne	SHORT $LN1@thread_ite

; 365  : 				return t;

	mov	rax, QWORD PTR t$2[rsp]
	jmp	SHORT $LN6@thread_ite
$LN1@thread_ite:

; 366  : 		}
; 367  : 	}

	jmp	SHORT $LN3@thread_ite
$LN2@thread_ite:
$LN5@thread_ite:

; 368  : 	return NULL;

	xor	eax, eax
$LN6@thread_ite:

; 369  : }

	add	rsp, 56					; 00000038H
	ret	0
?thread_iterate_block_list@@YAPEAU_thread_@@H@Z ENDP	; thread_iterate_block_list
_TEXT	ENDS
; Function compile flags: /Odtpy
; File e:\xeneva project\xeneva\aurora\aurora\arch\x86_64\thread.cpp
_TEXT	SEGMENT
it$1 = 0
id$ = 32
?thread_iterate_ready_list@@YAPEAU_thread_@@G@Z PROC	; thread_iterate_ready_list

; 372  : thread_t * thread_iterate_ready_list (uint16_t id) {

$LN7:
	mov	WORD PTR [rsp+8], cx
	sub	rsp, 24

; 373  : 	for (thread_t *it = task_list_head; it != NULL; it = it->next) {

	mov	rax, QWORD PTR ?task_list_head@@3PEAU_thread_@@EA ; task_list_head
	mov	QWORD PTR it$1[rsp], rax
	jmp	SHORT $LN4@thread_ite
$LN3@thread_ite:
	mov	rax, QWORD PTR it$1[rsp]
	mov	rax, QWORD PTR [rax+760]
	mov	QWORD PTR it$1[rsp], rax
$LN4@thread_ite:
	cmp	QWORD PTR it$1[rsp], 0
	je	SHORT $LN2@thread_ite

; 374  : 		if (it->id == id) {

	mov	rax, QWORD PTR it$1[rsp]
	movzx	eax, WORD PTR [rax+234]
	movzx	ecx, WORD PTR id$[rsp]
	cmp	eax, ecx
	jne	SHORT $LN1@thread_ite

; 375  : 			return it;

	mov	rax, QWORD PTR it$1[rsp]
	jmp	SHORT $LN5@thread_ite
$LN1@thread_ite:

; 376  : 		}
; 377  : 	}

	jmp	SHORT $LN3@thread_ite
$LN2@thread_ite:

; 378  : 	return NULL;

	xor	eax, eax
$LN5@thread_ite:

; 379  : }

	add	rsp, 24
	ret	0
?thread_iterate_ready_list@@YAPEAU_thread_@@G@Z ENDP	; thread_iterate_ready_list
_TEXT	ENDS
; Function compile flags: /Odtpy
; File e:\xeneva project\xeneva\aurora\aurora\arch\x86_64\thread.cpp
_TEXT	SEGMENT
?force_sched@@YAXXZ PROC				; force_sched

; 435  : void force_sched () {

$LN3:
	sub	rsp, 40					; 00000028H

; 436  : #ifdef USE_APIC
; 437  : 	force_sched_apic();

	call	force_sched_apic

; 438  : #elif USE_PIC
; 439  : 	force_sched_pic();
; 440  : #endif
; 441  : }

	add	rsp, 40					; 00000028H
	ret	0
?force_sched@@YAXXZ ENDP				; force_sched
_TEXT	ENDS
; Function compile flags: /Odtpy
; File e:\xeneva project\xeneva\aurora\aurora\arch\x86_64\thread.cpp
_TEXT	SEGMENT
?is_multi_task_enable@@YA_NXZ PROC			; is_multi_task_enable

; 346  : 	return scheduler_enable;

	movzx	eax, BYTE PTR ?scheduler_enable@@3_NA	; scheduler_enable

; 347  : }

	ret	0
?is_multi_task_enable@@YA_NXZ ENDP			; is_multi_task_enable
_TEXT	ENDS
; Function compile flags: /Odtpy
; File e:\xeneva project\xeneva\aurora\aurora\arch\x86_64\thread.cpp
_TEXT	SEGMENT
value$ = 8
?set_multi_task_enable@@YAX_N@Z PROC			; set_multi_task_enable

; 331  : void set_multi_task_enable (bool value) {

	mov	BYTE PTR [rsp+8], cl

; 332  : 	if (scheduler_enable == value)

	movzx	eax, BYTE PTR ?scheduler_enable@@3_NA	; scheduler_enable
	movzx	ecx, BYTE PTR value$[rsp]
	cmp	eax, ecx
	jne	SHORT $LN1@set_multi_

; 333  : 		return;

	jmp	SHORT $LN2@set_multi_
$LN1@set_multi_:

; 334  : 
; 335  : 	scheduler_enable = value;

	movzx	eax, BYTE PTR value$[rsp]
	mov	BYTE PTR ?scheduler_enable@@3_NA, al	; scheduler_enable
$LN2@set_multi_:

; 336  : }

	fatret	0
?set_multi_task_enable@@YAX_N@Z ENDP			; set_multi_task_enable
_TEXT	ENDS
; Function compile flags: /Odtpy
; File e:\xeneva project\xeneva\aurora\aurora\arch\x86_64\thread.cpp
_TEXT	SEGMENT
?get_current_thread@@YAPEAU_thread_@@XZ PROC		; get_current_thread

; 431  : 	return current_thread;

	mov	rax, QWORD PTR current_thread

; 432  : }

	ret	0
?get_current_thread@@YAPEAU_thread_@@XZ ENDP		; get_current_thread
_TEXT	ENDS
; Function compile flags: /Odtpy
; File e:\xeneva project\xeneva\aurora\aurora\arch\x86_64\thread.cpp
_TEXT	SEGMENT
i$1 = 32
thr$2 = 40
t$ = 64
?unblock_thread@@YAXPEAU_thread_@@@Z PROC		; unblock_thread

; 407  : void unblock_thread (thread_t *t) {

$LN7:
	mov	QWORD PTR [rsp+8], rcx
	sub	rsp, 56					; 00000038H

; 408  : 	x64_cli();

	call	x64_cli

; 409  : 	t->state = THREAD_STATE_READY;

	mov	rax, QWORD PTR t$[rsp]
	mov	BYTE PTR [rax+232], 1

; 410  : 	thread_insert (t);

	mov	rcx, QWORD PTR t$[rsp]
	call	?thread_insert@@YAXPEAU_thread_@@@Z	; thread_insert

; 411  : 	for (int i = 0; i < blocked_list->pointer; i++) {

	mov	DWORD PTR i$1[rsp], 0
	jmp	SHORT $LN4@unblock_th
$LN3@unblock_th:
	mov	eax, DWORD PTR i$1[rsp]
	inc	eax
	mov	DWORD PTR i$1[rsp], eax
$LN4@unblock_th:
	mov	rax, QWORD PTR ?blocked_list@@3PEAU_list_@@EA ; blocked_list
	mov	eax, DWORD PTR [rax]
	cmp	DWORD PTR i$1[rsp], eax
	jae	SHORT $LN2@unblock_th

; 412  : 		thread_t *thr = (thread_t*)list_get_at(blocked_list,i);

	mov	edx, DWORD PTR i$1[rsp]
	mov	rcx, QWORD PTR ?blocked_list@@3PEAU_list_@@EA ; blocked_list
	call	?list_get_at@@YAPEAXPEAU_list_@@I@Z	; list_get_at
	mov	QWORD PTR thr$2[rsp], rax

; 413  : 		if (thr == t) 

	mov	rax, QWORD PTR t$[rsp]
	cmp	QWORD PTR thr$2[rsp], rax
	jne	SHORT $LN1@unblock_th

; 414  : 			list_remove (blocked_list,i);

	mov	edx, DWORD PTR i$1[rsp]
	mov	rcx, QWORD PTR ?blocked_list@@3PEAU_list_@@EA ; blocked_list
	call	?list_remove@@YAPEAXPEAU_list_@@I@Z	; list_remove
$LN1@unblock_th:

; 415  : 	}

	jmp	SHORT $LN3@unblock_th
$LN2@unblock_th:

; 416  : }

	add	rsp, 56					; 00000038H
	ret	0
?unblock_thread@@YAXPEAU_thread_@@@Z ENDP		; unblock_thread
_TEXT	ENDS
; Function compile flags: /Odtpy
; File e:\xeneva project\xeneva\aurora\aurora\arch\x86_64\thread.cpp
_TEXT	SEGMENT
thread$ = 48
?block_thread@@YAXPEAU_thread_@@@Z PROC			; block_thread

; 351  : void block_thread (thread_t *thread) {

$LN3:
	mov	QWORD PTR [rsp+8], rcx
	sub	rsp, 40					; 00000028H

; 352  : 	thread->state = THREAD_STATE_BLOCKED;

	mov	rax, QWORD PTR thread$[rsp]
	mov	BYTE PTR [rax+232], 3

; 353  : 	task_delete (thread);

	mov	rcx, QWORD PTR thread$[rsp]
	call	?task_delete@@YAXPEAU_thread_@@@Z	; task_delete

; 354  : 	list_add (blocked_list,thread);

	mov	rdx, QWORD PTR thread$[rsp]
	mov	rcx, QWORD PTR ?blocked_list@@3PEAU_list_@@EA ; blocked_list
	call	?list_add@@YAXPEAU_list_@@PEAX@Z	; list_add

; 355  : }

	add	rsp, 40					; 00000028H
	ret	0
?block_thread@@YAXPEAU_thread_@@@Z ENDP			; block_thread
_TEXT	ENDS
; Function compile flags: /Odtpy
; File e:\xeneva project\xeneva\aurora\aurora\arch\x86_64\thread.cpp
_TEXT	SEGMENT
t$ = 32
entry$ = 64
stack$ = 72
cr3$ = 80
name$ = 88
priority$ = 96
?create_kthread@@YAPEAU_thread_@@P6AXXZ_K1QEADE@Z PROC	; create_kthread

; 101  : {

$LN3:
	mov	QWORD PTR [rsp+32], r9
	mov	QWORD PTR [rsp+24], r8
	mov	QWORD PTR [rsp+16], rdx
	mov	QWORD PTR [rsp+8], rcx
	sub	rsp, 56					; 00000038H

; 102  : 	thread_t *t = (thread_t*)malloc(sizeof(thread_t));//pmmngr_alloc();

	mov	ecx, 776				; 00000308H
	call	?malloc@@YAPEAX_K@Z			; malloc
	mov	QWORD PTR t$[rsp], rax

; 103  : 	t->ss = 0x10;

	mov	rax, QWORD PTR t$[rsp]
	mov	QWORD PTR [rax], 16

; 104  : 	t->rsp = (uint64_t*)stack;

	mov	rax, QWORD PTR t$[rsp]
	mov	rcx, QWORD PTR stack$[rsp]
	mov	QWORD PTR [rax+8], rcx

; 105  : 	t->rflags = 0x202;

	mov	rax, QWORD PTR t$[rsp]
	mov	QWORD PTR [rax+16], 514			; 00000202H

; 106  : 	t->cs = 0x08;

	mov	rax, QWORD PTR t$[rsp]
	mov	QWORD PTR [rax+24], 8

; 107  : 	t->rip = (uint64_t)entry;

	mov	rax, QWORD PTR t$[rsp]
	mov	rcx, QWORD PTR entry$[rsp]
	mov	QWORD PTR [rax+32], rcx

; 108  : 	t->rax = 0;

	mov	rax, QWORD PTR t$[rsp]
	mov	QWORD PTR [rax+40], 0

; 109  : 	t->rbx = 0;

	mov	rax, QWORD PTR t$[rsp]
	mov	QWORD PTR [rax+48], 0

; 110  : 	t->rcx = 0;

	mov	rax, QWORD PTR t$[rsp]
	mov	QWORD PTR [rax+56], 0

; 111  : 	t->rdx = 0;

	mov	rax, QWORD PTR t$[rsp]
	mov	QWORD PTR [rax+64], 0

; 112  : 	t->rsi = 0;

	mov	rax, QWORD PTR t$[rsp]
	mov	QWORD PTR [rax+72], 0

; 113  : 	t->rdi = 0;

	mov	rax, QWORD PTR t$[rsp]
	mov	QWORD PTR [rax+80], 0

; 114  : 	t->rbp = (uint64_t)t->rsp;

	mov	rax, QWORD PTR t$[rsp]
	mov	rcx, QWORD PTR t$[rsp]
	mov	rcx, QWORD PTR [rcx+8]
	mov	QWORD PTR [rax+88], rcx

; 115  : 	t->r8 = 0;

	mov	rax, QWORD PTR t$[rsp]
	mov	QWORD PTR [rax+96], 0

; 116  : 	t->r9 = 0;

	mov	rax, QWORD PTR t$[rsp]
	mov	QWORD PTR [rax+104], 0

; 117  : 	t->r10 = 0;

	mov	rax, QWORD PTR t$[rsp]
	mov	QWORD PTR [rax+112], 0

; 118  : 	t->r11 = 0;

	mov	rax, QWORD PTR t$[rsp]
	mov	QWORD PTR [rax+120], 0

; 119  : 	t->r12 = 0;

	mov	rax, QWORD PTR t$[rsp]
	mov	QWORD PTR [rax+128], 0

; 120  : 	t->r13 = 0;

	mov	rax, QWORD PTR t$[rsp]
	mov	QWORD PTR [rax+136], 0

; 121  : 	t->r14 = 0;

	mov	rax, QWORD PTR t$[rsp]
	mov	QWORD PTR [rax+144], 0

; 122  : 	t->r15 = 0;

	mov	rax, QWORD PTR t$[rsp]
	mov	QWORD PTR [rax+152], 0

; 123  : 	t->ds = 0x10;

	mov	rax, QWORD PTR t$[rsp]
	mov	QWORD PTR [rax+160], 16

; 124  : 	t->es = 0x10;

	mov	rax, QWORD PTR t$[rsp]
	mov	QWORD PTR [rax+168], 16

; 125  : 	t->fs = 0x10;

	mov	rax, QWORD PTR t$[rsp]
	mov	QWORD PTR [rax+176], 16

; 126  : 	t->gs = 0x10;

	mov	rax, QWORD PTR t$[rsp]
	mov	QWORD PTR [rax+184], 16

; 127  : 	t->kern_esp = stack;

	mov	rax, QWORD PTR t$[rsp]
	mov	rcx, QWORD PTR stack$[rsp]
	mov	QWORD PTR [rax+200], rcx

; 128  : 	t->ttype = 0;

	mov	rax, QWORD PTR t$[rsp]
	mov	QWORD PTR [rax+240], 0

; 129  : 	t->_is_user = 0;

	mov	rax, QWORD PTR t$[rsp]
	mov	BYTE PTR [rax+216], 0

; 130  : 	t->cr3 = cr3;

	mov	rax, QWORD PTR t$[rsp]
	mov	rcx, QWORD PTR cr3$[rsp]
	mov	QWORD PTR [rax+192], rcx

; 131  : 	t->name = name;

	mov	rax, QWORD PTR t$[rsp]
	mov	rcx, QWORD PTR name$[rsp]
	mov	QWORD PTR [rax+224], rcx

; 132  : 	t->id = task_id++;

	mov	rax, QWORD PTR t$[rsp]
	movzx	ecx, WORD PTR ?task_id@@3GA		; task_id
	mov	WORD PTR [rax+234], cx
	movzx	eax, WORD PTR ?task_id@@3GA		; task_id
	inc	ax
	mov	WORD PTR ?task_id@@3GA, ax		; task_id

; 133  : 	t->quanta = 0;

	xor	eax, eax
	mov	rcx, QWORD PTR t$[rsp]
	mov	WORD PTR [rcx+238], ax

; 134  : 	t->priviledge = THREAD_LEVEL_KERNEL;

	mov	rax, QWORD PTR t$[rsp]
	mov	BYTE PTR [rax+236], 1

; 135  : 	t->state = THREAD_STATE_READY;

	mov	rax, QWORD PTR t$[rsp]
	mov	BYTE PTR [rax+232], 1

; 136  : 	//t->priority = priority;
; 137  : 	t->fd_current = 0;

	mov	rax, QWORD PTR t$[rsp]
	mov	DWORD PTR [rax+752], 0

; 138  : 	t->fx_state = (uint32_t*)pmmngr_alloc();

	call	?pmmngr_alloc@@YAPEAXXZ			; pmmngr_alloc
	mov	rcx, QWORD PTR t$[rsp]
	mov	QWORD PTR [rcx+208], rax

; 139  : 	//printf ("FX State addr-> %x\n", t->fx_state);
; 140  : 	thread_insert(t);

	mov	rcx, QWORD PTR t$[rsp]
	call	?thread_insert@@YAXPEAU_thread_@@@Z	; thread_insert

; 141  : 	return t;

	mov	rax, QWORD PTR t$[rsp]

; 142  : }

	add	rsp, 56					; 00000038H
	ret	0
?create_kthread@@YAPEAU_thread_@@P6AXXZ_K1QEADE@Z ENDP	; create_kthread
_TEXT	ENDS
; Function compile flags: /Odtpy
; File e:\xeneva project\xeneva\aurora\aurora\arch\x86_64\thread.cpp
_TEXT	SEGMENT
t$ = 32
entry$ = 64
stack$ = 72
cr3$ = 80
name$ = 88
priority$ = 96
?create_user_thread@@YAPEAU_thread_@@P6AXPEAX@Z_K2QEADE@Z PROC ; create_user_thread

; 153  : {

$LN3:
	mov	QWORD PTR [rsp+32], r9
	mov	QWORD PTR [rsp+24], r8
	mov	QWORD PTR [rsp+16], rdx
	mov	QWORD PTR [rsp+8], rcx
	sub	rsp, 56					; 00000038H

; 154  : 	thread_t *t = (thread_t*)malloc(sizeof(thread_t));//pmmngr_alloc();

	mov	ecx, 776				; 00000308H
	call	?malloc@@YAPEAX_K@Z			; malloc
	mov	QWORD PTR t$[rsp], rax

; 155  : 	memset (t, 0, 4096);

	mov	r8d, 4096				; 00001000H
	xor	edx, edx
	mov	rcx, QWORD PTR t$[rsp]
	call	?memset@@YAXPEAXEI@Z			; memset

; 156  : 	t->ss = SEGVAL(GDT_ENTRY_USER_DATA,3); 

	mov	rax, QWORD PTR t$[rsp]
	mov	QWORD PTR [rax], 35			; 00000023H

; 157  : 	t->rsp = (uint64_t*)stack;

	mov	rax, QWORD PTR t$[rsp]
	mov	rcx, QWORD PTR stack$[rsp]
	mov	QWORD PTR [rax+8], rcx

; 158  : 	t->rflags = 0x286;

	mov	rax, QWORD PTR t$[rsp]
	mov	QWORD PTR [rax+16], 646			; 00000286H

; 159  : 	t->cs = SEGVAL (GDT_ENTRY_USER_CODE,3);

	mov	rax, QWORD PTR t$[rsp]
	mov	QWORD PTR [rax+24], 43			; 0000002bH

; 160  : 	t->rip = (uint64_t)entry;

	mov	rax, QWORD PTR t$[rsp]
	mov	rcx, QWORD PTR entry$[rsp]
	mov	QWORD PTR [rax+32], rcx

; 161  : 	t->rax = 0;

	mov	rax, QWORD PTR t$[rsp]
	mov	QWORD PTR [rax+40], 0

; 162  : 	t->rbx = 10;

	mov	rax, QWORD PTR t$[rsp]
	mov	QWORD PTR [rax+48], 10

; 163  : 	t->rcx = 0;

	mov	rax, QWORD PTR t$[rsp]
	mov	QWORD PTR [rax+56], 0

; 164  : 	t->rdx = 0;

	mov	rax, QWORD PTR t$[rsp]
	mov	QWORD PTR [rax+64], 0

; 165  : 	t->rsi = 10;

	mov	rax, QWORD PTR t$[rsp]
	mov	QWORD PTR [rax+72], 10

; 166  : 	t->rdi = 0;

	mov	rax, QWORD PTR t$[rsp]
	mov	QWORD PTR [rax+80], 0

; 167  : 	t->rbp = (uint64_t)t->rsp;

	mov	rax, QWORD PTR t$[rsp]
	mov	rcx, QWORD PTR t$[rsp]
	mov	rcx, QWORD PTR [rcx+8]
	mov	QWORD PTR [rax+88], rcx

; 168  : 	t->r8 = 0;

	mov	rax, QWORD PTR t$[rsp]
	mov	QWORD PTR [rax+96], 0

; 169  : 	t->r9 = 0;

	mov	rax, QWORD PTR t$[rsp]
	mov	QWORD PTR [rax+104], 0

; 170  : 	t->r10 = 0;

	mov	rax, QWORD PTR t$[rsp]
	mov	QWORD PTR [rax+112], 0

; 171  : 	t->r11 = 0;

	mov	rax, QWORD PTR t$[rsp]
	mov	QWORD PTR [rax+120], 0

; 172  : 	t->r12 = 0;

	mov	rax, QWORD PTR t$[rsp]
	mov	QWORD PTR [rax+128], 0

; 173  : 	t->r13 = 0;

	mov	rax, QWORD PTR t$[rsp]
	mov	QWORD PTR [rax+136], 0

; 174  : 	t->r14 = 0;

	mov	rax, QWORD PTR t$[rsp]
	mov	QWORD PTR [rax+144], 0

; 175  : 	t->r15 = 0;

	mov	rax, QWORD PTR t$[rsp]
	mov	QWORD PTR [rax+152], 0

; 176  : 
; 177  : 	/** Kernel stack is important for syscall or interruption in the system **/
; 178  : 	t->kern_esp = (uint64_t)allocate_kstack((uint64_t*)cr3);

	mov	rcx, QWORD PTR cr3$[rsp]
	call	?allocate_kstack@@YA_KPEA_K@Z		; allocate_kstack
	mov	rcx, QWORD PTR t$[rsp]
	mov	QWORD PTR [rcx+200], rax

; 179  : 
; 180  : 	t->ds = 0x23;

	mov	rax, QWORD PTR t$[rsp]
	mov	QWORD PTR [rax+160], 35			; 00000023H

; 181  : 	t->es = 0x23;

	mov	rax, QWORD PTR t$[rsp]
	mov	QWORD PTR [rax+168], 35			; 00000023H

; 182  : 	t->fs = 0x23;

	mov	rax, QWORD PTR t$[rsp]
	mov	QWORD PTR [rax+176], 35			; 00000023H

; 183  : 	t->gs = 0x23;

	mov	rax, QWORD PTR t$[rsp]
	mov	QWORD PTR [rax+184], 35			; 00000023H

; 184  : 	t->cr3 = cr3;

	mov	rax, QWORD PTR t$[rsp]
	mov	rcx, QWORD PTR cr3$[rsp]
	mov	QWORD PTR [rax+192], rcx

; 185  : 	t->name = name;

	mov	rax, QWORD PTR t$[rsp]
	mov	rcx, QWORD PTR name$[rsp]
	mov	QWORD PTR [rax+224], rcx

; 186  : 	t->id = task_id++;

	mov	rax, QWORD PTR t$[rsp]
	movzx	ecx, WORD PTR ?task_id@@3GA		; task_id
	mov	WORD PTR [rax+234], cx
	movzx	eax, WORD PTR ?task_id@@3GA		; task_id
	inc	ax
	mov	WORD PTR ?task_id@@3GA, ax		; task_id

; 187  : 	t->quanta = 0;

	xor	eax, eax
	mov	rcx, QWORD PTR t$[rsp]
	mov	WORD PTR [rcx+238], ax

; 188  : 	t->ttype = 0;

	mov	rax, QWORD PTR t$[rsp]
	mov	QWORD PTR [rax+240], 0

; 189  : 	t->msg_box = (uint64_t*)pmmngr_alloc();

	call	?pmmngr_alloc@@YAPEAXXZ			; pmmngr_alloc
	mov	rcx, QWORD PTR t$[rsp]
	mov	QWORD PTR [rcx+248], rax

; 190  : 	/** Map the thread's msg box to a virtual address, from where the process will receive system messages **/
; 191  : 	map_page_ex((uint64_t*)t->cr3,(uint64_t)t->msg_box,(uint64_t)0xFFFFFFFFB0000000, PAGING_USER);

	mov	r9b, 4
	mov	r8, -1342177280				; ffffffffb0000000H
	mov	rax, QWORD PTR t$[rsp]
	mov	rdx, QWORD PTR [rax+248]
	mov	rax, QWORD PTR t$[rsp]
	mov	rcx, QWORD PTR [rax+192]
	call	?map_page_ex@@YA_NPEA_K_K1E@Z		; map_page_ex

; 192  : 
; 193  : 	t->_is_user = 1;

	mov	rax, QWORD PTR t$[rsp]
	mov	BYTE PTR [rax+216], 1

; 194  : 	t->priviledge = THREAD_LEVEL_USER;

	mov	rax, QWORD PTR t$[rsp]
	mov	BYTE PTR [rax+236], 2

; 195  : 	t->state = THREAD_STATE_READY;

	mov	rax, QWORD PTR t$[rsp]
	mov	BYTE PTR [rax+232], 1

; 196  : 	t->priority = priority;

	mov	rax, QWORD PTR t$[rsp]
	movzx	ecx, BYTE PTR priority$[rsp]
	mov	BYTE PTR [rax+264], cl

; 197  : 	t->fd_current = 0;

	mov	rax, QWORD PTR t$[rsp]
	mov	DWORD PTR [rax+752], 0

; 198  : 	thread_insert (t);

	mov	rcx, QWORD PTR t$[rsp]
	call	?thread_insert@@YAXPEAU_thread_@@@Z	; thread_insert

; 199  : 	return t;

	mov	rax, QWORD PTR t$[rsp]

; 200  : }

	add	rsp, 56					; 00000038H
	ret	0
?create_user_thread@@YAPEAU_thread_@@P6AXPEAX@Z_K2QEADE@Z ENDP ; create_user_thread
_TEXT	ENDS
; Function compile flags: /Odtpy
; File e:\xeneva project\xeneva\aurora\aurora\arch\x86_64\thread.cpp
_TEXT	SEGMENT
?scheduler_start@@YAXXZ PROC				; scheduler_start

; 317  : void scheduler_start () {

$LN3:
	sub	rsp, 40					; 00000028H

; 318  : 	x64_cli();

	call	x64_cli

; 319  : #ifdef USE_APIC
; 320  : 	setvect(0x40, scheduler_isr);

	lea	rdx, OFFSET FLAT:?scheduler_isr@@YAX_KPEAX@Z ; scheduler_isr
	mov	ecx, 64					; 00000040H
	call	?setvect@@YAX_KP6AX0PEAX@Z@Z		; setvect

; 321  : #endif
; 322  : #ifdef USE_PIC
; 323  : 	interrupt_set(0,scheduler_isr,0);
; 324  : #endif
; 325  : 	x64_sti();

	call	x64_sti

; 326  : 	execute_idle(current_thread,get_kernel_tss());

	call	get_kernel_tss
	mov	rdx, rax
	mov	rcx, QWORD PTR current_thread
	call	execute_idle

; 327  : }

	add	rsp, 40					; 00000028H
	ret	0
?scheduler_start@@YAXXZ ENDP				; scheduler_start
_TEXT	ENDS
; Function compile flags: /Odtpy
; File e:\xeneva project\xeneva\aurora\aurora\arch\x86_64\thread.cpp
_TEXT	SEGMENT
tv68 = 48
idle_$ = 56
?initialize_scheduler@@YAXXZ PROC			; initialize_scheduler

; 212  : void initialize_scheduler () {

$LN3:
	sub	rsp, 72					; 00000048H

; 213  : 	blocked_list = initialize_list();

	call	?initialize_list@@YAPEAU_list_@@XZ	; initialize_list
	mov	QWORD PTR ?blocked_list@@3PEAU_list_@@EA, rax ; blocked_list

; 214  : 	scheduler_enable = true;

	mov	BYTE PTR ?scheduler_enable@@3_NA, 1	; scheduler_enable

; 215  : 	scheduler_initialized = true;

	mov	BYTE PTR ?scheduler_initialized@@3_NA, 1 ; scheduler_initialized

; 216  : 	task_id = 0;

	xor	eax, eax
	mov	WORD PTR ?task_id@@3GA, ax		; task_id

; 217  : 	/** Here create the first thread, the idle thread which never gets
; 218  : 	    blocked nor get destroyed untill the system turns off **/
; 219  : 	thread_t *idle_ = create_kthread (idle_thread,(uint64_t)pmmngr_alloc(),x64_read_cr3(),"Idle",1);

	call	x64_read_cr3
	mov	QWORD PTR tv68[rsp], rax
	call	?pmmngr_alloc@@YAPEAXXZ			; pmmngr_alloc
	mov	BYTE PTR [rsp+32], 1
	lea	r9, OFFSET FLAT:$SG3416
	mov	rcx, QWORD PTR tv68[rsp]
	mov	r8, rcx
	mov	rdx, rax
	lea	rcx, OFFSET FLAT:?idle_thread@@YAXXZ	; idle_thread
	call	?create_kthread@@YAPEAU_thread_@@P6AXXZ_K1QEADE@Z ; create_kthread
	mov	QWORD PTR idle_$[rsp], rax

; 220  : 	current_thread = idle_;

	mov	rax, QWORD PTR idle_$[rsp]
	mov	QWORD PTR current_thread, rax

; 221  : }

	add	rsp, 72					; 00000048H
	ret	0
?initialize_scheduler@@YAXXZ ENDP			; initialize_scheduler
_TEXT	ENDS
END
