; Listing generated by Microsoft (R) Optimizing Compiler Version 17.00.50727.1 

include listing.inc

INCLUDELIB LIBCMT
INCLUDELIB OLDNAMES

PUBLIC	?timer_head@@3PEAU_timer_@@EA			; timer_head
PUBLIC	?timer_last@@3PEAU_timer_@@EA			; timer_last
PUBLIC	?utimer_id@@3IA					; utimer_id
_BSS	SEGMENT
?timer_head@@3PEAU_timer_@@EA DQ 01H DUP (?)		; timer_head
?timer_last@@3PEAU_timer_@@EA DQ 01H DUP (?)		; timer_last
?utimer_id@@3IA DD 01H DUP (?)				; utimer_id
_BSS	ENDS
PUBLIC	?create_timer@@YAHIG@Z				; create_timer
PUBLIC	?destroy_timer@@YAXH@Z				; destroy_timer
PUBLIC	?pause_timer@@YAXH@Z				; pause_timer
PUBLIC	?start_timer@@YAXH@Z				; start_timer
PUBLIC	?timer_fire@@YAXXZ				; timer_fire
PUBLIC	?find_timer_id@@YAHG@Z				; find_timer_id
PUBLIC	?timer_insert@@YAXPEAU_timer_@@@Z		; timer_insert
PUBLIC	?timer_delete@@YAXPEAU_timer_@@@Z		; timer_delete
EXTRN	?pmmngr_alloc@@YAPEAXXZ:PROC			; pmmngr_alloc
EXTRN	?pmmngr_free@@YAXPEAX@Z:PROC			; pmmngr_free
EXTRN	?post_box_put_msg@@YAXPEAU_post_box_message_@@G@Z:PROC ; post_box_put_msg
pdata	SEGMENT
$pdata$?create_timer@@YAHIG@Z DD imagerel $LN3
	DD	imagerel $LN3+118
	DD	imagerel $unwind$?create_timer@@YAHIG@Z
$pdata$?destroy_timer@@YAXH@Z DD imagerel $LN7
	DD	imagerel $LN7+87
	DD	imagerel $unwind$?destroy_timer@@YAXH@Z
$pdata$?pause_timer@@YAXH@Z DD imagerel $LN7
	DD	imagerel $LN7+70
	DD	imagerel $unwind$?pause_timer@@YAXH@Z
$pdata$?start_timer@@YAXH@Z DD imagerel $LN7
	DD	imagerel $LN7+70
	DD	imagerel $unwind$?start_timer@@YAXH@Z
$pdata$?timer_fire@@YAXXZ DD imagerel $LN9
	DD	imagerel $LN9+161
	DD	imagerel $unwind$?timer_fire@@YAXXZ
$pdata$?find_timer_id@@YAHG@Z DD imagerel $LN7
	DD	imagerel $LN7+81
	DD	imagerel $unwind$?find_timer_id@@YAHG@Z
$pdata$?timer_delete@@YAXPEAU_timer_@@@Z DD imagerel $LN8
	DD	imagerel $LN8+146
	DD	imagerel $unwind$?timer_delete@@YAXPEAU_timer_@@@Z
pdata	ENDS
xdata	SEGMENT
$unwind$?create_timer@@YAHIG@Z DD 010d01H
	DD	0620dH
$unwind$?destroy_timer@@YAXH@Z DD 010801H
	DD	06208H
$unwind$?pause_timer@@YAXH@Z DD 010801H
	DD	02208H
$unwind$?start_timer@@YAXH@Z DD 010801H
	DD	02208H
$unwind$?timer_fire@@YAXXZ DD 010401H
	DD	0a204H
$unwind$?find_timer_id@@YAHG@Z DD 010901H
	DD	02209H
$unwind$?timer_delete@@YAXPEAU_timer_@@@Z DD 010901H
	DD	04209H
xdata	ENDS
; Function compile flags: /Odtpy
; File e:\xeneva project\xeneva\aurora\aurora\timer.cpp
_TEXT	SEGMENT
new_timer$ = 48
?timer_delete@@YAXPEAU_timer_@@@Z PROC			; timer_delete

; 37   : void timer_delete (timer_t* new_timer) {

$LN8:
	mov	QWORD PTR [rsp+8], rcx
	sub	rsp, 40					; 00000028H

; 38   : 
; 39   : 	if (timer_head == NULL)

	cmp	QWORD PTR ?timer_head@@3PEAU_timer_@@EA, 0 ; timer_head
	jne	SHORT $LN5@timer_dele

; 40   : 		return;

	jmp	SHORT $LN6@timer_dele
$LN5@timer_dele:

; 41   : 
; 42   : 	if (new_timer == timer_head) {

	mov	rax, QWORD PTR ?timer_head@@3PEAU_timer_@@EA ; timer_head
	cmp	QWORD PTR new_timer$[rsp], rax
	jne	SHORT $LN4@timer_dele

; 43   : 		timer_head = timer_head->next;

	mov	rax, QWORD PTR ?timer_head@@3PEAU_timer_@@EA ; timer_head
	mov	rax, QWORD PTR [rax+24]
	mov	QWORD PTR ?timer_head@@3PEAU_timer_@@EA, rax ; timer_head

; 44   : 	} else {

	jmp	SHORT $LN3@timer_dele
$LN4@timer_dele:

; 45   : 		new_timer->prev->next = new_timer->next;

	mov	rax, QWORD PTR new_timer$[rsp]
	mov	rax, QWORD PTR [rax+32]
	mov	rcx, QWORD PTR new_timer$[rsp]
	mov	rcx, QWORD PTR [rcx+24]
	mov	QWORD PTR [rax+24], rcx
$LN3@timer_dele:

; 46   : 	}
; 47   : 
; 48   : 	if (new_timer == timer_last) {

	mov	rax, QWORD PTR ?timer_last@@3PEAU_timer_@@EA ; timer_last
	cmp	QWORD PTR new_timer$[rsp], rax
	jne	SHORT $LN2@timer_dele

; 49   : 		timer_last = new_timer->prev;

	mov	rax, QWORD PTR new_timer$[rsp]
	mov	rax, QWORD PTR [rax+32]
	mov	QWORD PTR ?timer_last@@3PEAU_timer_@@EA, rax ; timer_last

; 50   : 	} else {

	jmp	SHORT $LN1@timer_dele
$LN2@timer_dele:

; 51   : 		new_timer->next->prev = new_timer->prev;

	mov	rax, QWORD PTR new_timer$[rsp]
	mov	rax, QWORD PTR [rax+24]
	mov	rcx, QWORD PTR new_timer$[rsp]
	mov	rcx, QWORD PTR [rcx+32]
	mov	QWORD PTR [rax+32], rcx
$LN1@timer_dele:

; 52   : 	}
; 53   : 	pmmngr_free(new_timer);

	mov	rcx, QWORD PTR new_timer$[rsp]
	call	?pmmngr_free@@YAXPEAX@Z			; pmmngr_free
$LN6@timer_dele:

; 54   : }

	add	rsp, 40					; 00000028H
	ret	0
?timer_delete@@YAXPEAU_timer_@@@Z ENDP			; timer_delete
_TEXT	ENDS
; Function compile flags: /Odtpy
; File e:\xeneva project\xeneva\aurora\aurora\timer.cpp
_TEXT	SEGMENT
new_timer$ = 8
?timer_insert@@YAXPEAU_timer_@@@Z PROC			; timer_insert

; 22   : void timer_insert (timer_t* new_timer ) {

	mov	QWORD PTR [rsp+8], rcx

; 23   : 	new_timer->next = NULL;

	mov	rax, QWORD PTR new_timer$[rsp]
	mov	QWORD PTR [rax+24], 0

; 24   : 	new_timer->prev = NULL;

	mov	rax, QWORD PTR new_timer$[rsp]
	mov	QWORD PTR [rax+32], 0

; 25   : 
; 26   : 	if (timer_head == NULL) {

	cmp	QWORD PTR ?timer_head@@3PEAU_timer_@@EA, 0 ; timer_head
	jne	SHORT $LN2@timer_inse

; 27   : 		timer_last = new_timer;

	mov	rax, QWORD PTR new_timer$[rsp]
	mov	QWORD PTR ?timer_last@@3PEAU_timer_@@EA, rax ; timer_last

; 28   : 		timer_head = new_timer;

	mov	rax, QWORD PTR new_timer$[rsp]
	mov	QWORD PTR ?timer_head@@3PEAU_timer_@@EA, rax ; timer_head

; 29   : 	} else {

	jmp	SHORT $LN1@timer_inse
$LN2@timer_inse:

; 30   : 		timer_last->next = new_timer;

	mov	rax, QWORD PTR ?timer_last@@3PEAU_timer_@@EA ; timer_last
	mov	rcx, QWORD PTR new_timer$[rsp]
	mov	QWORD PTR [rax+24], rcx

; 31   : 		new_timer->prev = timer_last;

	mov	rax, QWORD PTR new_timer$[rsp]
	mov	rcx, QWORD PTR ?timer_last@@3PEAU_timer_@@EA ; timer_last
	mov	QWORD PTR [rax+32], rcx
$LN1@timer_inse:

; 32   : 	}
; 33   : 	timer_last = new_timer;

	mov	rax, QWORD PTR new_timer$[rsp]
	mov	QWORD PTR ?timer_last@@3PEAU_timer_@@EA, rax ; timer_last

; 34   : }

	ret	0
?timer_insert@@YAXPEAU_timer_@@@Z ENDP			; timer_insert
_TEXT	ENDS
; Function compile flags: /Odtpy
; File e:\xeneva project\xeneva\aurora\aurora\timer.cpp
_TEXT	SEGMENT
t$1 = 0
id$ = 32
?find_timer_id@@YAHG@Z PROC				; find_timer_id

; 126  : int find_timer_id (uint16_t id) {

$LN7:
	mov	WORD PTR [rsp+8], cx
	sub	rsp, 24

; 127  : 	for (timer_t *t = timer_head; t != NULL; t = t->next) {

	mov	rax, QWORD PTR ?timer_head@@3PEAU_timer_@@EA ; timer_head
	mov	QWORD PTR t$1[rsp], rax
	jmp	SHORT $LN4@find_timer
$LN3@find_timer:
	mov	rax, QWORD PTR t$1[rsp]
	mov	rax, QWORD PTR [rax+24]
	mov	QWORD PTR t$1[rsp], rax
$LN4@find_timer:
	cmp	QWORD PTR t$1[rsp], 0
	je	SHORT $LN2@find_timer

; 128  : 		if (t->task_id == id) {

	mov	rax, QWORD PTR t$1[rsp]
	movzx	eax, WORD PTR [rax+8]
	movzx	ecx, WORD PTR id$[rsp]
	cmp	eax, ecx
	jne	SHORT $LN1@find_timer

; 129  : 			return t->utimer_id;

	mov	rax, QWORD PTR t$1[rsp]
	mov	eax, DWORD PTR [rax+12]
	jmp	SHORT $LN5@find_timer

; 130  : 			break;

	jmp	SHORT $LN2@find_timer
$LN1@find_timer:

; 131  : 		}
; 132  : 	}

	jmp	SHORT $LN3@find_timer
$LN2@find_timer:

; 133  : 
; 134  : 	return -1;

	mov	eax, -1
$LN5@find_timer:

; 135  : }

	add	rsp, 24
	ret	0
?find_timer_id@@YAHG@Z ENDP				; find_timer_id
_TEXT	ENDS
; Function compile flags: /Odtpy
; File e:\xeneva project\xeneva\aurora\aurora\timer.cpp
_TEXT	SEGMENT
t$1 = 32
msg$2 = 40
?timer_fire@@YAXXZ PROC					; timer_fire

; 143  : void timer_fire () {

$LN9:
	sub	rsp, 88					; 00000058H

; 144  : 	if (timer_head != NULL) {

	cmp	QWORD PTR ?timer_head@@3PEAU_timer_@@EA, 0 ; timer_head
	je	$LN6@timer_fire

; 145  : 		for (timer_t *t = timer_head; t != NULL; t = t->next) {

	mov	rax, QWORD PTR ?timer_head@@3PEAU_timer_@@EA ; timer_head
	mov	QWORD PTR t$1[rsp], rax
	jmp	SHORT $LN5@timer_fire
$LN4@timer_fire:
	mov	rax, QWORD PTR t$1[rsp]
	mov	rax, QWORD PTR [rax+24]
	mov	QWORD PTR t$1[rsp], rax
$LN5@timer_fire:
	cmp	QWORD PTR t$1[rsp], 0
	je	SHORT $LN3@timer_fire

; 146  : 			if (t->start) {

	mov	rax, QWORD PTR t$1[rsp]
	movzx	eax, BYTE PTR [rax+16]
	test	eax, eax
	je	SHORT $LN2@timer_fire

; 147  : 				if (t->timer_count == t->interval ) {

	mov	rax, QWORD PTR t$1[rsp]
	mov	rcx, QWORD PTR t$1[rsp]
	mov	ecx, DWORD PTR [rcx+4]
	cmp	DWORD PTR [rax], ecx
	jne	SHORT $LN1@timer_fire

; 148  : 					postmsg_t msg;
; 149  : 			        msg.type = SYSTEM_MESSAGE_TIMER_EVENT;

	mov	eax, 1
	mov	WORD PTR msg$2[rsp], ax

; 150  : 			        msg.to_id = t->task_id;

	mov	rax, QWORD PTR t$1[rsp]
	movzx	eax, WORD PTR [rax+8]
	mov	WORD PTR msg$2[rsp+28], ax

; 151  : 			        post_box_put_msg (&msg,t->task_id);

	mov	rax, QWORD PTR t$1[rsp]
	movzx	edx, WORD PTR [rax+8]
	lea	rcx, QWORD PTR msg$2[rsp]
	call	?post_box_put_msg@@YAXPEAU_post_box_message_@@G@Z ; post_box_put_msg

; 152  : 			        t->timer_count = 0;

	mov	rax, QWORD PTR t$1[rsp]
	mov	DWORD PTR [rax], 0
$LN1@timer_fire:

; 153  : 		         }
; 154  : 			     t->timer_count++;

	mov	rax, QWORD PTR t$1[rsp]
	mov	eax, DWORD PTR [rax]
	inc	eax
	mov	rcx, QWORD PTR t$1[rsp]
	mov	DWORD PTR [rcx], eax
$LN2@timer_fire:

; 155  : 			}
; 156  : 		}

	jmp	SHORT $LN4@timer_fire
$LN3@timer_fire:
$LN6@timer_fire:

; 157  : 	}
; 158  : }

	add	rsp, 88					; 00000058H
	ret	0
?timer_fire@@YAXXZ ENDP					; timer_fire
_TEXT	ENDS
; Function compile flags: /Odtpy
; File e:\xeneva project\xeneva\aurora\aurora\timer.cpp
_TEXT	SEGMENT
t$1 = 0
utimer_id$ = 32
?start_timer@@YAXH@Z PROC				; start_timer

; 96   : void start_timer (int utimer_id ) {

$LN7:
	mov	DWORD PTR [rsp+8], ecx
	sub	rsp, 24

; 97   : 	for (timer_t *t = timer_head; t != NULL; t = t->next) {

	mov	rax, QWORD PTR ?timer_head@@3PEAU_timer_@@EA ; timer_head
	mov	QWORD PTR t$1[rsp], rax
	jmp	SHORT $LN4@start_time
$LN3@start_time:
	mov	rax, QWORD PTR t$1[rsp]
	mov	rax, QWORD PTR [rax+24]
	mov	QWORD PTR t$1[rsp], rax
$LN4@start_time:
	cmp	QWORD PTR t$1[rsp], 0
	je	SHORT $LN2@start_time

; 98   : 		if (t->utimer_id == utimer_id) {

	mov	rax, QWORD PTR t$1[rsp]
	mov	ecx, DWORD PTR utimer_id$[rsp]
	cmp	DWORD PTR [rax+12], ecx
	jne	SHORT $LN1@start_time

; 99   : 			t->start = true;

	mov	rax, QWORD PTR t$1[rsp]
	mov	BYTE PTR [rax+16], 1

; 100  : 			break;

	jmp	SHORT $LN2@start_time
$LN1@start_time:

; 101  : 		}
; 102  : 	}

	jmp	SHORT $LN3@start_time
$LN2@start_time:

; 103  : }

	add	rsp, 24
	ret	0
?start_timer@@YAXH@Z ENDP				; start_timer
_TEXT	ENDS
; Function compile flags: /Odtpy
; File e:\xeneva project\xeneva\aurora\aurora\timer.cpp
_TEXT	SEGMENT
t$1 = 0
utimer_id$ = 32
?pause_timer@@YAXH@Z PROC				; pause_timer

; 81   : void pause_timer (int utimer_id) {

$LN7:
	mov	DWORD PTR [rsp+8], ecx
	sub	rsp, 24

; 82   : 	for (timer_t *t = timer_head; t != NULL; t = t->next) {

	mov	rax, QWORD PTR ?timer_head@@3PEAU_timer_@@EA ; timer_head
	mov	QWORD PTR t$1[rsp], rax
	jmp	SHORT $LN4@pause_time
$LN3@pause_time:
	mov	rax, QWORD PTR t$1[rsp]
	mov	rax, QWORD PTR [rax+24]
	mov	QWORD PTR t$1[rsp], rax
$LN4@pause_time:
	cmp	QWORD PTR t$1[rsp], 0
	je	SHORT $LN2@pause_time

; 83   : 		if (t->utimer_id == utimer_id) {

	mov	rax, QWORD PTR t$1[rsp]
	mov	ecx, DWORD PTR utimer_id$[rsp]
	cmp	DWORD PTR [rax+12], ecx
	jne	SHORT $LN1@pause_time

; 84   : 			t->start = false;

	mov	rax, QWORD PTR t$1[rsp]
	mov	BYTE PTR [rax+16], 0

; 85   : 			break;

	jmp	SHORT $LN2@pause_time
$LN1@pause_time:

; 86   : 		}
; 87   : 	}

	jmp	SHORT $LN3@pause_time
$LN2@pause_time:

; 88   : }

	add	rsp, 24
	ret	0
?pause_timer@@YAXH@Z ENDP				; pause_timer
_TEXT	ENDS
; Function compile flags: /Odtpy
; File e:\xeneva project\xeneva\aurora\aurora\timer.cpp
_TEXT	SEGMENT
t$1 = 32
utimer_id$ = 64
?destroy_timer@@YAXH@Z PROC				; destroy_timer

; 110  : void destroy_timer (int utimer_id) {

$LN7:
	mov	DWORD PTR [rsp+8], ecx
	sub	rsp, 56					; 00000038H

; 111  : 	for (timer_t *t = timer_head; t != NULL; t = t->next) {

	mov	rax, QWORD PTR ?timer_head@@3PEAU_timer_@@EA ; timer_head
	mov	QWORD PTR t$1[rsp], rax
	jmp	SHORT $LN4@destroy_ti
$LN3@destroy_ti:
	mov	rax, QWORD PTR t$1[rsp]
	mov	rax, QWORD PTR [rax+24]
	mov	QWORD PTR t$1[rsp], rax
$LN4@destroy_ti:
	cmp	QWORD PTR t$1[rsp], 0
	je	SHORT $LN2@destroy_ti

; 112  : 		if (t->utimer_id == utimer_id) {

	mov	rax, QWORD PTR t$1[rsp]
	mov	ecx, DWORD PTR utimer_id$[rsp]
	cmp	DWORD PTR [rax+12], ecx
	jne	SHORT $LN1@destroy_ti

; 113  : 			timer_delete (t);

	mov	rcx, QWORD PTR t$1[rsp]
	call	?timer_delete@@YAXPEAU_timer_@@@Z	; timer_delete

; 114  : 			utimer_id--;

	mov	eax, DWORD PTR utimer_id$[rsp]
	dec	eax
	mov	DWORD PTR utimer_id$[rsp], eax

; 115  : 			break;

	jmp	SHORT $LN2@destroy_ti
$LN1@destroy_ti:

; 116  : 		}
; 117  : 	}

	jmp	SHORT $LN3@destroy_ti
$LN2@destroy_ti:

; 118  : 	
; 119  : }

	add	rsp, 56					; 00000038H
	ret	0
?destroy_timer@@YAXH@Z ENDP				; destroy_timer
_TEXT	ENDS
; Function compile flags: /Odtpy
; File e:\xeneva project\xeneva\aurora\aurora\timer.cpp
_TEXT	SEGMENT
t$ = 32
interval$ = 64
id$ = 72
?create_timer@@YAHIG@Z PROC				; create_timer

; 64   : int create_timer (uint32_t interval, uint16_t id) {	

$LN3:
	mov	WORD PTR [rsp+16], dx
	mov	DWORD PTR [rsp+8], ecx
	sub	rsp, 56					; 00000038H

; 65   : 	utimer_id++;

	mov	eax, DWORD PTR ?utimer_id@@3IA		; utimer_id
	inc	eax
	mov	DWORD PTR ?utimer_id@@3IA, eax		; utimer_id

; 66   : 	timer_t *t = (timer_t*)pmmngr_alloc();

	call	?pmmngr_alloc@@YAPEAXXZ			; pmmngr_alloc
	mov	QWORD PTR t$[rsp], rax

; 67   : 	t->timer_count = 0;

	mov	rax, QWORD PTR t$[rsp]
	mov	DWORD PTR [rax], 0

; 68   : 	t->task_id = id;

	mov	rax, QWORD PTR t$[rsp]
	movzx	ecx, WORD PTR id$[rsp]
	mov	WORD PTR [rax+8], cx

; 69   : 	t->interval = interval;

	mov	rax, QWORD PTR t$[rsp]
	mov	ecx, DWORD PTR interval$[rsp]
	mov	DWORD PTR [rax+4], ecx

; 70   : 	t->utimer_id = utimer_id;

	mov	rax, QWORD PTR t$[rsp]
	mov	ecx, DWORD PTR ?utimer_id@@3IA		; utimer_id
	mov	DWORD PTR [rax+12], ecx

; 71   : 	t->start = false;

	mov	rax, QWORD PTR t$[rsp]
	mov	BYTE PTR [rax+16], 0

; 72   : 	timer_insert (t);

	mov	rcx, QWORD PTR t$[rsp]
	call	?timer_insert@@YAXPEAU_timer_@@@Z	; timer_insert

; 73   : 	return utimer_id;

	mov	eax, DWORD PTR ?utimer_id@@3IA		; utimer_id

; 74   : }

	add	rsp, 56					; 00000038H
	ret	0
?create_timer@@YAHIG@Z ENDP				; create_timer
_TEXT	ENDS
END
