; Listing generated by Microsoft (R) Optimizing Compiler Version 17.00.50727.1 

include listing.inc

INCLUDELIB LIBCMT
INCLUDELIB OLDNAMES

PUBLIC	?master_count@@3HA				; master_count
PUBLIC	?slave_count@@3HA				; slave_count
PUBLIC	?root@@3PEAU_tele_type_@@EA			; root
PUBLIC	?last@@3PEAU_tele_type_@@EA			; last
_BSS	SEGMENT
?master_count@@3HA DD 01H DUP (?)			; master_count
?slave_count@@3HA DD 01H DUP (?)			; slave_count
?root@@3PEAU_tele_type_@@EA DQ 01H DUP (?)		; root
?last@@3PEAU_tele_type_@@EA DQ 01H DUP (?)		; last
_BSS	ENDS
CONST	SEGMENT
$SG3581	DB	'TTYPE In buffer full ', 0dH, 0aH, 00H
$SG3607	DB	'/dev/', 00H
	ORG $+2
$SG3608	DB	'ttym', 00H
	ORG $+3
$SG3616	DB	'/dev/', 00H
	ORG $+2
$SG3617	DB	'ttys', 00H
	ORG $+3
$SG3625	DB	'TTYPE Created -> %x ', 0dH, 0aH, 00H
CONST	ENDS
PUBLIC	?ttype_init@@YAXXZ				; ttype_init
PUBLIC	?ttype_create_master@@YAPEAU_vfs_node_@@PEAU_tele_type_@@@Z ; ttype_create_master
PUBLIC	?ttype_create_slave@@YAPEAU_vfs_node_@@PEAU_tele_type_@@@Z ; ttype_create_slave
PUBLIC	?ttype_create@@YAHPEAH0@Z			; ttype_create
PUBLIC	?get_ttype@@YAPEAU_tele_type_@@H@Z		; get_ttype
PUBLIC	?ttype_dup_master@@YAXHH@Z			; ttype_dup_master
PUBLIC	?ttype_insert@@YAXPEAU_tele_type_@@@Z		; ttype_insert
PUBLIC	?ttype_delete@@YAXPEAU_tele_type_@@@Z		; ttype_delete
PUBLIC	?ttype_master_read@@YAXPEAU_vfs_node_@@PEA_KI@Z	; ttype_master_read
PUBLIC	?ttype_master_write@@YAXPEAU_vfs_node_@@PEA_KI@Z ; ttype_master_write
PUBLIC	?ttype_slave_read@@YAXPEAU_vfs_node_@@PEA_KI@Z	; ttype_slave_read
PUBLIC	?ttype_slave_write@@YAXPEAU_vfs_node_@@PEA_KI@Z	; ttype_slave_write
PUBLIC	?tty_ioquery@@YAHPEAU_vfs_node_@@HPEAX@Z	; tty_ioquery
EXTRN	strcpy:PROC
EXTRN	memset:PROC
EXTRN	vfs_mount:PROC
EXTRN	?circ_buf_init@@YAPEAU_circ_buf_@@PEAE_K@Z:PROC	; circ_buf_init
EXTRN	?circular_buf_put2@@YAHPEAU_circ_buf_@@E@Z:PROC	; circular_buf_put2
EXTRN	?circular_buf_get@@YAHPEAU_circ_buf_@@PEAE@Z:PROC ; circular_buf_get
EXTRN	?circular_buf_full@@YA_NPEAU_circ_buf_@@@Z:PROC	; circular_buf_full
EXTRN	x64_cli:PROC
EXTRN	malloc:PROC
EXTRN	free:PROC
EXTRN	?sztoa@@YAPEAD_KPEADH@Z:PROC			; sztoa
EXTRN	get_current_thread:PROC
EXTRN	?thread_iterate_ready_list@@YAPEAU_thread_@@G@Z:PROC ; thread_iterate_ready_list
EXTRN	?thread_iterate_block_list@@YAPEAU_thread_@@H@Z:PROC ; thread_iterate_block_list
EXTRN	_debug_print_:PROC
pdata	SEGMENT
$pdata$?ttype_create_master@@YAPEAU_vfs_node_@@PEAU_tele_type_@@@Z DD imagerel $LN3
	DD	imagerel $LN3+298
	DD	imagerel $unwind$?ttype_create_master@@YAPEAU_vfs_node_@@PEAU_tele_type_@@@Z
$pdata$?ttype_create_slave@@YAPEAU_vfs_node_@@PEAU_tele_type_@@@Z DD imagerel $LN3
	DD	imagerel $LN3+298
	DD	imagerel $unwind$?ttype_create_slave@@YAPEAU_vfs_node_@@PEAU_tele_type_@@@Z
$pdata$?ttype_create@@YAHPEAH0@Z DD imagerel $LN3
	DD	imagerel $LN3+797
	DD	imagerel $unwind$?ttype_create@@YAHPEAH0@Z
$pdata$?get_ttype@@YAPEAU_tele_type_@@H@Z DD imagerel $LN8
	DD	imagerel $LN8+78
	DD	imagerel $unwind$?get_ttype@@YAPEAU_tele_type_@@H@Z
$pdata$?ttype_dup_master@@YAXHH@Z DD imagerel $LN5
	DD	imagerel $LN5+156
	DD	imagerel $unwind$?ttype_dup_master@@YAXHH@Z
$pdata$?ttype_delete@@YAXPEAU_tele_type_@@@Z DD imagerel $LN8
	DD	imagerel $LN8+146
	DD	imagerel $unwind$?ttype_delete@@YAXPEAU_tele_type_@@@Z
$pdata$?ttype_master_read@@YAXPEAU_vfs_node_@@PEA_KI@Z DD imagerel $LN3
	DD	imagerel $LN3+88
	DD	imagerel $unwind$?ttype_master_read@@YAXPEAU_vfs_node_@@PEA_KI@Z
$pdata$?ttype_master_write@@YAXPEAU_vfs_node_@@PEA_KI@Z DD imagerel $LN3
	DD	imagerel $LN3+39
	DD	imagerel $unwind$?ttype_master_write@@YAXPEAU_vfs_node_@@PEA_KI@Z
$pdata$?ttype_slave_read@@YAXPEAU_vfs_node_@@PEA_KI@Z DD imagerel $LN6
	DD	imagerel $LN6+118
	DD	imagerel $unwind$?ttype_slave_read@@YAXPEAU_vfs_node_@@PEA_KI@Z
$pdata$?ttype_slave_write@@YAXPEAU_vfs_node_@@PEA_KI@Z DD imagerel $LN8
	DD	imagerel $LN8+164
	DD	imagerel $unwind$?ttype_slave_write@@YAXPEAU_vfs_node_@@PEA_KI@Z
pdata	ENDS
xdata	SEGMENT
$unwind$?ttype_create_master@@YAPEAU_vfs_node_@@PEAU_tele_type_@@@Z DD 010901H
	DD	08209H
$unwind$?ttype_create_slave@@YAPEAU_vfs_node_@@PEAU_tele_type_@@@Z DD 010901H
	DD	08209H
$unwind$?ttype_create@@YAHPEAH0@Z DD 010e01H
	DD	0c20eH
$unwind$?get_ttype@@YAPEAU_tele_type_@@H@Z DD 010801H
	DD	02208H
$unwind$?ttype_dup_master@@YAXHH@Z DD 010c01H
	DD	0620cH
$unwind$?ttype_delete@@YAXPEAU_tele_type_@@@Z DD 010901H
	DD	04209H
$unwind$?ttype_master_read@@YAXPEAU_vfs_node_@@PEA_KI@Z DD 011301H
	DD	08213H
$unwind$?ttype_master_write@@YAXPEAU_vfs_node_@@PEA_KI@Z DD 011301H
	DD	06213H
$unwind$?ttype_slave_read@@YAXPEAU_vfs_node_@@PEA_KI@Z DD 011301H
	DD	08213H
$unwind$?ttype_slave_write@@YAXPEAU_vfs_node_@@PEA_KI@Z DD 011301H
	DD	08213H
xdata	ENDS
; Function compile flags: /Odtpy
; File e:\xeneva project\xeneva\aurora\aurora\fs\ttype.cpp
_TEXT	SEGMENT
file$ = 8
code$ = 16
arg$ = 24
?tty_ioquery@@YAHPEAU_vfs_node_@@HPEAX@Z PROC		; tty_ioquery

; 231  : int tty_ioquery (vfs_node_t *file, int code, void *arg){

	mov	QWORD PTR [rsp+24], r8
	mov	DWORD PTR [rsp+16], edx
	mov	QWORD PTR [rsp+8], rcx

; 232  : 	return 0;

	xor	eax, eax

; 233  : }

	ret	0
?tty_ioquery@@YAHPEAU_vfs_node_@@HPEAX@Z ENDP		; tty_ioquery
_TEXT	ENDS
; Function compile flags: /Odtpy
; File e:\xeneva project\xeneva\aurora\aurora\fs\ttype.cpp
_TEXT	SEGMENT
i$1 = 32
type$ = 40
aligned_buffer$ = 48
file$ = 80
buffer$ = 88
length$ = 96
?ttype_slave_write@@YAXPEAU_vfs_node_@@PEA_KI@Z PROC	; ttype_slave_write

; 205  : void ttype_slave_write (vfs_node_t *file, uint64_t* buffer, uint32_t length) {

$LN8:
	mov	DWORD PTR [rsp+24], r8d
	mov	QWORD PTR [rsp+16], rdx
	mov	QWORD PTR [rsp+8], rcx
	sub	rsp, 72					; 00000048H

; 206  : 	x64_cli();

	call	x64_cli

; 207  : 	uint8_t* aligned_buffer = (uint8_t*)buffer;

	mov	rax, QWORD PTR buffer$[rsp]
	mov	QWORD PTR aligned_buffer$[rsp], rax

; 208  : 	ttype_t *type = (ttype_t*)file->device;

	mov	rax, QWORD PTR file$[rsp]
	mov	rax, QWORD PTR [rax+56]
	mov	QWORD PTR type$[rsp], rax

; 209  : 	if (length > 512)

	cmp	DWORD PTR length$[rsp], 512		; 00000200H
	jbe	SHORT $LN5@ttype_slav

; 210  : 		length = 512;

	mov	DWORD PTR length$[rsp], 512		; 00000200H
$LN5@ttype_slav:

; 211  : 
; 212  : 	if (circular_buf_full(type->in_buffer)){

	mov	rax, QWORD PTR type$[rsp]
	mov	rcx, QWORD PTR [rax+72]
	call	?circular_buf_full@@YA_NPEAU_circ_buf_@@@Z ; circular_buf_full
	movzx	eax, al
	test	eax, eax
	je	SHORT $LN4@ttype_slav

; 213  : 		_debug_print_ ("TTYPE In buffer full \r\n");

	lea	rcx, OFFSET FLAT:$SG3581
	call	_debug_print_
$LN4@ttype_slav:

; 214  : 	}
; 215  : 
; 216  : 	for (int i = 0; i < length; i++)

	mov	DWORD PTR i$1[rsp], 0
	jmp	SHORT $LN3@ttype_slav
$LN2@ttype_slav:
	mov	eax, DWORD PTR i$1[rsp]
	inc	eax
	mov	DWORD PTR i$1[rsp], eax
$LN3@ttype_slav:
	mov	eax, DWORD PTR length$[rsp]
	cmp	DWORD PTR i$1[rsp], eax
	jae	SHORT $LN1@ttype_slav

; 217  : 		circular_buf_put2(type->in_buffer,aligned_buffer[i]);

	movsxd	rax, DWORD PTR i$1[rsp]
	mov	rcx, QWORD PTR aligned_buffer$[rsp]
	movzx	edx, BYTE PTR [rcx+rax]
	mov	rax, QWORD PTR type$[rsp]
	mov	rcx, QWORD PTR [rax+72]
	call	?circular_buf_put2@@YAHPEAU_circ_buf_@@E@Z ; circular_buf_put2
	jmp	SHORT $LN2@ttype_slav
$LN1@ttype_slav:

; 218  : }

	add	rsp, 72					; 00000048H
	ret	0
?ttype_slave_write@@YAXPEAU_vfs_node_@@PEA_KI@Z ENDP	; ttype_slave_write
_TEXT	ENDS
; Function compile flags: /Odtpy
; File e:\xeneva project\xeneva\aurora\aurora\fs\ttype.cpp
_TEXT	SEGMENT
i$1 = 32
aligned_buffer$ = 40
type$ = 48
file$ = 80
buffer$ = 88
length$ = 96
?ttype_slave_read@@YAXPEAU_vfs_node_@@PEA_KI@Z PROC	; ttype_slave_read

; 174  : void ttype_slave_read (vfs_node_t *file, uint64_t* buffer,uint32_t length) {

$LN6:
	mov	DWORD PTR [rsp+24], r8d
	mov	QWORD PTR [rsp+16], rdx
	mov	QWORD PTR [rsp+8], rcx
	sub	rsp, 72					; 00000048H

; 175  : 	x64_cli();

	call	x64_cli

; 176  : 	uint8_t* aligned_buffer = (uint8_t*)buffer;

	mov	rax, QWORD PTR buffer$[rsp]
	mov	QWORD PTR aligned_buffer$[rsp], rax

; 177  : 	/* get the ttype */
; 178  : 	ttype_t *type = (ttype_t*)file->device;

	mov	rax, QWORD PTR file$[rsp]
	mov	rax, QWORD PTR [rax+56]
	mov	QWORD PTR type$[rsp], rax

; 179  : 
; 180  : 	//! lets read everything that has been written 
; 181  : 	//! by child, be carefull we only read that much
; 182  : 	//! that have been written by child process
; 183  : 	for (int i = 0; i < length; i++) {

	mov	DWORD PTR i$1[rsp], 0
	jmp	SHORT $LN3@ttype_slav
$LN2@ttype_slav:
	mov	eax, DWORD PTR i$1[rsp]
	inc	eax
	mov	DWORD PTR i$1[rsp], eax
$LN3@ttype_slav:
	mov	eax, DWORD PTR length$[rsp]
	cmp	DWORD PTR i$1[rsp], eax
	jae	SHORT $LN1@ttype_slav

; 184  : 		circular_buf_get(type->in_buffer,&aligned_buffer[i]);

	movsxd	rax, DWORD PTR i$1[rsp]
	mov	rcx, QWORD PTR aligned_buffer$[rsp]
	add	rcx, rax
	mov	rax, rcx
	mov	rdx, rax
	mov	rax, QWORD PTR type$[rsp]
	mov	rcx, QWORD PTR [rax+72]
	call	?circular_buf_get@@YAHPEAU_circ_buf_@@PEAE@Z ; circular_buf_get

; 185  : 	}

	jmp	SHORT $LN2@ttype_slav
$LN1@ttype_slav:

; 186  : 
; 187  : 	//! resate the written count, so that child process
; 188  : 	//! can write its next data
; 189  : 	//type->written = 0;
; 190  : 
; 191  : 	//! check if child process is blocked
; 192  : 	//if (type->blocked_pid > 0) {
; 193  : 		//! yes, than simply unblock it
; 194  : 	/*	thread_t *dest = thread_iterate_ready_list(type->blocked_pid);
; 195  : 		if (dest == NULL)
; 196  : 			dest = thread_iterate_block_list(type->blocked_pid);
; 197  : 
; 198  : 		if (dest != NULL && dest->state == THREAD_STATE_BLOCKED)
; 199  : 			unblock_thread(dest);*/
; 200  : 	//}
; 201  : 
; 202  : 	
; 203  : }

	add	rsp, 72					; 00000048H
	ret	0
?ttype_slave_read@@YAXPEAU_vfs_node_@@PEA_KI@Z ENDP	; ttype_slave_read
_TEXT	ENDS
; Function compile flags: /Odtpy
; File e:\xeneva project\xeneva\aurora\aurora\fs\ttype.cpp
_TEXT	SEGMENT
aligned_buffer$ = 32
file$ = 64
buffer$ = 72
length$ = 80
?ttype_master_write@@YAXPEAU_vfs_node_@@PEA_KI@Z PROC	; ttype_master_write

; 118  : void ttype_master_write (vfs_node_t *file, uint64_t* buffer, uint32_t length) {

$LN3:
	mov	DWORD PTR [rsp+24], r8d
	mov	QWORD PTR [rsp+16], rdx
	mov	QWORD PTR [rsp+8], rcx
	sub	rsp, 56					; 00000038H

; 119  : 	x64_cli();

	call	x64_cli

; 120  : 
; 121  : 	uint8_t* aligned_buffer = (uint8_t*)buffer;

	mov	rax, QWORD PTR buffer$[rsp]
	mov	QWORD PTR aligned_buffer$[rsp], rax

; 122  : 	//! get the master node from the child process
; 123  : 	//vfs_node_t *node = get_current_thread()->fd[get_current_thread()->master_fd];
; 124  : 	//ttype_t *type = (ttype_t*)node->device;
; 125  : 
; 126  : 	//! first of all, get the registered terminal emulator
; 127  : 	//! id, we need to unblock it, if it is blocked by default
; 128  : 	/*thread_t *dest = thread_iterate_ready_list(type->pid);
; 129  : 	if (dest == NULL)
; 130  : 		dest = thread_iterate_block_list(type->pid);*/
; 131  : 
; 132  : 	//! check, if another data is already written to the
; 133  : 	//! buffer
; 134  : 	//if (type->written > 0)  {
; 135  : 		//! yes, the buffer is in use, let's wait for the
; 136  : 		//! buffer usage to be finished
; 137  : 		//type->blocked_pid = get_current_thread()->id;
; 138  : 
; 139  : 		//! unblock the terminal emulator if it is blocked cause
; 140  : 		//! it will get the ttype buffer usage to be finished
; 141  : 		//if (dest != NULL && dest->state == THREAD_STATE_BLOCKED)
; 142  : 		//	unblock_thread(dest);
; 143  : 
; 144  : 		////! block the current thread, till the buffer usage get over
; 145  : 		//block_thread(get_current_thread());
; 146  : 		//force_sched();
; 147  : 	//}
; 148  : 
; 149  : 
; 150  :      //! unblock the terminal emulator, cause - new text is available to 
; 151  : 	//! be processed
; 152  : 	//if (dest != NULL && dest->state == THREAD_STATE_BLOCKED)
; 153  : 	//	unblock_thread(dest);
; 154  : 
; 155  : 	////! so finally we now use the type buffer to store our text data
; 156  : 	//for (int i = 0; i < length; i++) {
; 157  : 	//	circular_buf_put(type->in_buffer,buffer[i]);
; 158  : 	//	//type->written++; //increament the written count, cause we only
; 159  : 	//	// read that much of text, that actually get written
; 160  : 	//}
; 161  : 
; 162  : 
; 163  : 	
; 164  : 
; 165  : }

	add	rsp, 56					; 00000038H
	ret	0
?ttype_master_write@@YAXPEAU_vfs_node_@@PEA_KI@Z ENDP	; ttype_master_write
_TEXT	ENDS
; Function compile flags: /Odtpy
; File e:\xeneva project\xeneva\aurora\aurora\fs\ttype.cpp
_TEXT	SEGMENT
tv64 = 32
node$ = 40
type$ = 48
aligned_buffer$ = 56
file$ = 80
buffer$ = 88
length$ = 96
?ttype_master_read@@YAXPEAU_vfs_node_@@PEA_KI@Z PROC	; ttype_master_read

; 101  : void ttype_master_read (vfs_node_t *file, uint64_t* buffer,uint32_t length) {

$LN3:
	mov	DWORD PTR [rsp+24], r8d
	mov	QWORD PTR [rsp+16], rdx
	mov	QWORD PTR [rsp+8], rcx
	sub	rsp, 72					; 00000048H

; 102  : 	//!Read it from out buffer
; 103  : 	vfs_node_t *node = get_current_thread()->fd[get_current_thread()->master_fd];

	call	get_current_thread
	mov	QWORD PTR tv64[rsp], rax
	call	get_current_thread
	movzx	eax, BYTE PTR [rax+764]
	mov	rcx, QWORD PTR tv64[rsp]
	mov	rax, QWORD PTR [rcx+rax*8+280]
	mov	QWORD PTR node$[rsp], rax

; 104  : 	ttype_t *type = (ttype_t*)node->device;

	mov	rax, QWORD PTR node$[rsp]
	mov	rax, QWORD PTR [rax+56]
	mov	QWORD PTR type$[rsp], rax

; 105  : 
; 106  : 	uint8_t* aligned_buffer = (uint8_t*)buffer;

	mov	rax, QWORD PTR buffer$[rsp]
	mov	QWORD PTR aligned_buffer$[rsp], rax

; 107  : 	/*for (int i = 0; i < 32; i++)
; 108  : 		buffer[i] = type->out_buffer[i];*/
; 109  : 
; 110  : }

	add	rsp, 72					; 00000048H
	ret	0
?ttype_master_read@@YAXPEAU_vfs_node_@@PEA_KI@Z ENDP	; ttype_master_read
_TEXT	ENDS
; Function compile flags: /Odtpy
; File e:\xeneva project\xeneva\aurora\aurora\fs\ttype.cpp
_TEXT	SEGMENT
tty$ = 48
?ttype_delete@@YAXPEAU_tele_type_@@@Z PROC		; ttype_delete

; 75   : void ttype_delete (ttype_t* tty) {

$LN8:
	mov	QWORD PTR [rsp+8], rcx
	sub	rsp, 40					; 00000028H

; 76   : 
; 77   : 	if (root == NULL)

	cmp	QWORD PTR ?root@@3PEAU_tele_type_@@EA, 0 ; root
	jne	SHORT $LN5@ttype_dele

; 78   : 		return;

	jmp	SHORT $LN6@ttype_dele
$LN5@ttype_dele:

; 79   : 
; 80   : 	if (tty == root) {

	mov	rax, QWORD PTR ?root@@3PEAU_tele_type_@@EA ; root
	cmp	QWORD PTR tty$[rsp], rax
	jne	SHORT $LN4@ttype_dele

; 81   : 		root = root->next;

	mov	rax, QWORD PTR ?root@@3PEAU_tele_type_@@EA ; root
	mov	rax, QWORD PTR [rax+88]
	mov	QWORD PTR ?root@@3PEAU_tele_type_@@EA, rax ; root

; 82   : 	} else {

	jmp	SHORT $LN3@ttype_dele
$LN4@ttype_dele:

; 83   : 		tty->prev->next = tty->next;

	mov	rax, QWORD PTR tty$[rsp]
	mov	rax, QWORD PTR [rax+96]
	mov	rcx, QWORD PTR tty$[rsp]
	mov	rcx, QWORD PTR [rcx+88]
	mov	QWORD PTR [rax+88], rcx
$LN3@ttype_dele:

; 84   : 	}
; 85   : 
; 86   : 	if (tty == last) {

	mov	rax, QWORD PTR ?last@@3PEAU_tele_type_@@EA ; last
	cmp	QWORD PTR tty$[rsp], rax
	jne	SHORT $LN2@ttype_dele

; 87   : 		last = tty->prev;

	mov	rax, QWORD PTR tty$[rsp]
	mov	rax, QWORD PTR [rax+96]
	mov	QWORD PTR ?last@@3PEAU_tele_type_@@EA, rax ; last

; 88   : 	} else {

	jmp	SHORT $LN1@ttype_dele
$LN2@ttype_dele:

; 89   : 		tty->next->prev = tty->prev;

	mov	rax, QWORD PTR tty$[rsp]
	mov	rax, QWORD PTR [rax+88]
	mov	rcx, QWORD PTR tty$[rsp]
	mov	rcx, QWORD PTR [rcx+96]
	mov	QWORD PTR [rax+96], rcx
$LN1@ttype_dele:

; 90   : 	}
; 91   : 
; 92   : 	free(tty);

	mov	rcx, QWORD PTR tty$[rsp]
	call	free
$LN6@ttype_dele:

; 93   : }

	add	rsp, 40					; 00000028H
	ret	0
?ttype_delete@@YAXPEAU_tele_type_@@@Z ENDP		; ttype_delete
_TEXT	ENDS
; Function compile flags: /Odtpy
; File e:\xeneva project\xeneva\aurora\aurora\fs\ttype.cpp
_TEXT	SEGMENT
tty$ = 8
?ttype_insert@@YAXPEAU_tele_type_@@@Z PROC		; ttype_insert

; 59   : void ttype_insert (ttype_t* tty ) {

	mov	QWORD PTR [rsp+8], rcx

; 60   : 	tty->next = NULL;

	mov	rax, QWORD PTR tty$[rsp]
	mov	QWORD PTR [rax+88], 0

; 61   : 	tty->prev = NULL;

	mov	rax, QWORD PTR tty$[rsp]
	mov	QWORD PTR [rax+96], 0

; 62   : 
; 63   : 	if (root == NULL) {

	cmp	QWORD PTR ?root@@3PEAU_tele_type_@@EA, 0 ; root
	jne	SHORT $LN2@ttype_inse

; 64   : 		last = tty;

	mov	rax, QWORD PTR tty$[rsp]
	mov	QWORD PTR ?last@@3PEAU_tele_type_@@EA, rax ; last

; 65   : 		root = tty;

	mov	rax, QWORD PTR tty$[rsp]
	mov	QWORD PTR ?root@@3PEAU_tele_type_@@EA, rax ; root

; 66   : 		//_debug_print_ ("**TTY ROOT WAS NULL \r\n");
; 67   : 	} else {

	jmp	SHORT $LN1@ttype_inse
$LN2@ttype_inse:

; 68   : 		last->next = tty;

	mov	rax, QWORD PTR ?last@@3PEAU_tele_type_@@EA ; last
	mov	rcx, QWORD PTR tty$[rsp]
	mov	QWORD PTR [rax+88], rcx

; 69   : 		tty->prev = last;

	mov	rax, QWORD PTR tty$[rsp]
	mov	rcx, QWORD PTR ?last@@3PEAU_tele_type_@@EA ; last
	mov	QWORD PTR [rax+96], rcx
$LN1@ttype_inse:

; 70   : 	}
; 71   : 	last = tty;

	mov	rax, QWORD PTR tty$[rsp]
	mov	QWORD PTR ?last@@3PEAU_tele_type_@@EA, rax ; last

; 72   : }

	ret	0
?ttype_insert@@YAXPEAU_tele_type_@@@Z ENDP		; ttype_insert
_TEXT	ENDS
; Function compile flags: /Odtpy
; File e:\xeneva project\xeneva\aurora\aurora\fs\ttype.cpp
_TEXT	SEGMENT
dest$ = 32
node$ = 40
task_id$ = 64
master_fd$ = 72
?ttype_dup_master@@YAXHH@Z PROC				; ttype_dup_master

; 367  : void ttype_dup_master (int task_id, int master_fd) {

$LN5:
	mov	DWORD PTR [rsp+16], edx
	mov	DWORD PTR [rsp+8], ecx
	sub	rsp, 56					; 00000038H

; 368  : 	x64_cli();

	call	x64_cli

; 369  : 	vfs_node_t *node = get_current_thread()->fd[master_fd];

	call	get_current_thread
	movsxd	rcx, DWORD PTR master_fd$[rsp]
	mov	rax, QWORD PTR [rax+rcx*8+280]
	mov	QWORD PTR node$[rsp], rax

; 370  : 	thread_t *dest = thread_iterate_ready_list(task_id);

	movzx	ecx, WORD PTR task_id$[rsp]
	call	?thread_iterate_ready_list@@YAPEAU_thread_@@G@Z ; thread_iterate_ready_list
	mov	QWORD PTR dest$[rsp], rax

; 371  : 	if (dest == NULL) {

	cmp	QWORD PTR dest$[rsp], 0
	jne	SHORT $LN2@ttype_dup_

; 372  : 		dest = thread_iterate_block_list(task_id);

	mov	ecx, DWORD PTR task_id$[rsp]
	call	?thread_iterate_block_list@@YAPEAU_thread_@@H@Z ; thread_iterate_block_list
	mov	QWORD PTR dest$[rsp], rax
$LN2@ttype_dup_:

; 373  : 	}
; 374  : 	if (dest != NULL) {

	cmp	QWORD PTR dest$[rsp], 0
	je	SHORT $LN1@ttype_dup_

; 375  : 		dest->fd[1] = node;

	mov	eax, 8
	imul	rax, 1
	mov	rcx, QWORD PTR dest$[rsp]
	mov	rdx, QWORD PTR node$[rsp]
	mov	QWORD PTR [rcx+rax+280], rdx

; 376  : 		dest->fd[2] = node;

	mov	eax, 8
	imul	rax, 2
	mov	rcx, QWORD PTR dest$[rsp]
	mov	rdx, QWORD PTR node$[rsp]
	mov	QWORD PTR [rcx+rax+280], rdx
$LN1@ttype_dup_:

; 377  : 	}
; 378  : 	dest->master_fd = 1;

	mov	rax, QWORD PTR dest$[rsp]
	mov	BYTE PTR [rax+764], 1

; 379  : }

	add	rsp, 56					; 00000038H
	ret	0
?ttype_dup_master@@YAXHH@Z ENDP				; ttype_dup_master
_TEXT	ENDS
; Function compile flags: /Odtpy
; File e:\xeneva project\xeneva\aurora\aurora\fs\ttype.cpp
_TEXT	SEGMENT
tty$1 = 0
id$ = 32
?get_ttype@@YAPEAU_tele_type_@@H@Z PROC			; get_ttype

; 220  : ttype_t * get_ttype (int id) {

$LN8:
	mov	DWORD PTR [rsp+8], ecx
	sub	rsp, 24

; 221  : 	if (root != NULL){

	cmp	QWORD PTR ?root@@3PEAU_tele_type_@@EA, 0 ; root
	je	SHORT $LN5@get_ttype

; 222  : 		for (ttype_t* tty = root; tty != NULL; tty = tty->next) {

	mov	rax, QWORD PTR ?root@@3PEAU_tele_type_@@EA ; root
	mov	QWORD PTR tty$1[rsp], rax
	jmp	SHORT $LN4@get_ttype
$LN3@get_ttype:
	mov	rax, QWORD PTR tty$1[rsp]
	mov	rax, QWORD PTR [rax+88]
	mov	QWORD PTR tty$1[rsp], rax
$LN4@get_ttype:
	cmp	QWORD PTR tty$1[rsp], 0
	je	SHORT $LN2@get_ttype

; 223  : 			if (tty->id == id) 

	mov	rax, QWORD PTR tty$1[rsp]
	movzx	eax, BYTE PTR [rax]
	cmp	eax, DWORD PTR id$[rsp]
	jne	SHORT $LN1@get_ttype

; 224  : 				return tty;

	mov	rax, QWORD PTR tty$1[rsp]
	jmp	SHORT $LN6@get_ttype
$LN1@get_ttype:

; 225  : 		}

	jmp	SHORT $LN3@get_ttype
$LN2@get_ttype:
$LN5@get_ttype:

; 226  : 	}
; 227  : 	return NULL;

	xor	eax, eax
$LN6@get_ttype:

; 228  : }

	add	rsp, 24
	ret	0
?get_ttype@@YAPEAU_tele_type_@@H@Z ENDP			; get_ttype
_TEXT	ENDS
; Function compile flags: /Odtpy
; File e:\xeneva project\xeneva\aurora\aurora\fs\ttype.cpp
_TEXT	SEGMENT
tty$ = 32
s_fd$ = 40
m_fd$ = 44
master$ = 48
inbuffer$ = 56
tv196 = 64
tv207 = 72
outbuffer$ = 80
slave$ = 88
master_fd$ = 112
slave_fd$ = 120
?ttype_create@@YAHPEAH0@Z PROC				; ttype_create

; 306  : int ttype_create (int* master_fd, int* slave_fd) {

$LN3:
	mov	QWORD PTR [rsp+16], rdx
	mov	QWORD PTR [rsp+8], rcx
	sub	rsp, 104				; 00000068H

; 307  : 	x64_cli();

	call	x64_cli

; 308  : 
; 309  : 	ttype_t *tty= (ttype_t*)malloc(sizeof(ttype_t)); 

	mov	ecx, 104				; 00000068H
	call	malloc
	mov	QWORD PTR tty$[rsp], rax

; 310  : 	_debug_print_ ("TTYPE Created -> %x \r\n", tty);

	mov	rdx, QWORD PTR tty$[rsp]
	lea	rcx, OFFSET FLAT:$SG3625
	call	_debug_print_

; 311  : 	void* inbuffer = malloc(512);

	mov	ecx, 512				; 00000200H
	call	malloc
	mov	QWORD PTR inbuffer$[rsp], rax

; 312  : 	memset(inbuffer, 0, 512);

	mov	r8d, 512				; 00000200H
	xor	edx, edx
	mov	rcx, QWORD PTR inbuffer$[rsp]
	call	memset

; 313  : 	void* outbuffer = malloc(512);

	mov	ecx, 512				; 00000200H
	call	malloc
	mov	QWORD PTR outbuffer$[rsp], rax

; 314  : 	memset(outbuffer, 0, 512);

	mov	r8d, 512				; 00000200H
	xor	edx, edx
	mov	rcx, QWORD PTR outbuffer$[rsp]
	call	memset

; 315  : 
; 316  : 	tty->in_buffer = circ_buf_init((uint8_t*)inbuffer,512);

	mov	edx, 512				; 00000200H
	mov	rcx, QWORD PTR inbuffer$[rsp]
	call	?circ_buf_init@@YAPEAU_circ_buf_@@PEAE_K@Z ; circ_buf_init
	mov	rcx, QWORD PTR tty$[rsp]
	mov	QWORD PTR [rcx+72], rax

; 317  : 	tty->out_buffer = circ_buf_init((uint8_t*)outbuffer,512);

	mov	edx, 512				; 00000200H
	mov	rcx, QWORD PTR outbuffer$[rsp]
	call	?circ_buf_init@@YAPEAU_circ_buf_@@PEAE_K@Z ; circ_buf_init
	mov	rcx, QWORD PTR tty$[rsp]
	mov	QWORD PTR [rcx+80], rax

; 318  : 	tty->id = slave_count;

	mov	rax, QWORD PTR tty$[rsp]
	movzx	ecx, BYTE PTR ?slave_count@@3HA
	mov	BYTE PTR [rax], cl

; 319  : 
; 320  : 
; 321  : 	tty->term.c_iflag = ICRNL | BRKINT;

	mov	rax, QWORD PTR tty$[rsp]
	mov	DWORD PTR [rax+12], 258			; 00000102H

; 322  : 	tty->term.c_oflag = ONLCR | OPOST;

	mov	rax, QWORD PTR tty$[rsp]
	mov	DWORD PTR [rax+16], 5

; 323  : 	tty->term.c_lflag = ECHO | ECHOE | ECHOK | ICANON | ISIG | IEXTEN;

	mov	rax, QWORD PTR tty$[rsp]
	mov	DWORD PTR [rax+24], 32827		; 0000803bH

; 324  : 	tty->term.c_cflag = CREAD | CS8;

	mov	rax, QWORD PTR tty$[rsp]
	mov	DWORD PTR [rax+20], 176			; 000000b0H

; 325  : 	tty->term.c_cc[VEOF] = 4;

	mov	eax, 1
	imul	rax, 4
	mov	rcx, QWORD PTR tty$[rsp]
	mov	BYTE PTR [rcx+rax+29], 4

; 326  : 	tty->term.c_cc[VEOL] = 0;

	mov	eax, 1
	imul	rax, 11
	mov	rcx, QWORD PTR tty$[rsp]
	mov	BYTE PTR [rcx+rax+29], 0

; 327  : 	tty->term.c_cc[VERASE] = 0x7f;

	mov	eax, 1
	imul	rax, 2
	mov	rcx, QWORD PTR tty$[rsp]
	mov	BYTE PTR [rcx+rax+29], 127		; 0000007fH

; 328  : 	tty->term.c_cc[VINTR] = 3;

	mov	eax, 1
	imul	rax, 0
	mov	rcx, QWORD PTR tty$[rsp]
	mov	BYTE PTR [rcx+rax+29], 3

; 329  : 	tty->term.c_cc[VKILL] = 21;

	mov	eax, 1
	imul	rax, 3
	mov	rcx, QWORD PTR tty$[rsp]
	mov	BYTE PTR [rcx+rax+29], 21

; 330  : 	tty->term.c_cc[VMIN] = 1;

	mov	eax, 1
	imul	rax, 6
	mov	rcx, QWORD PTR tty$[rsp]
	mov	BYTE PTR [rcx+rax+29], 1

; 331  : 	tty->term.c_cc[VQUIT] = 28;

	mov	eax, 1
	imul	rax, 1
	mov	rcx, QWORD PTR tty$[rsp]
	mov	BYTE PTR [rcx+rax+29], 28

; 332  : 	tty->term.c_cc[VSTART] = 17;

	mov	eax, 1
	imul	rax, 8
	mov	rcx, QWORD PTR tty$[rsp]
	mov	BYTE PTR [rcx+rax+29], 17

; 333  : 	tty->term.c_cc[VSTOP] = 19;

	mov	eax, 1
	imul	rax, 9
	mov	rcx, QWORD PTR tty$[rsp]
	mov	BYTE PTR [rcx+rax+29], 19

; 334  : 	tty->term.c_cc[VSUSP] = 26;

	mov	eax, 1
	imul	rax, 10
	mov	rcx, QWORD PTR tty$[rsp]
	mov	BYTE PTR [rcx+rax+29], 26

; 335  : 	tty->term.c_cc[VTIME] = 0;

	mov	eax, 1
	imul	rax, 5
	mov	rcx, QWORD PTR tty$[rsp]
	mov	BYTE PTR [rcx+rax+29], 0

; 336  : 	tty->term.c_cc[VLNEXT] = 22;

	mov	eax, 1
	imul	rax, 15
	mov	rcx, QWORD PTR tty$[rsp]
	mov	BYTE PTR [rcx+rax+29], 22

; 337  : 	tty->term.c_cc[VWERASE] = 23;

	mov	eax, 1
	imul	rax, 14
	mov	rcx, QWORD PTR tty$[rsp]
	mov	BYTE PTR [rcx+rax+29], 23

; 338  : 
; 339  : 	tty->size.ws_col = 25;

	mov	eax, 25
	mov	rcx, QWORD PTR tty$[rsp]
	mov	WORD PTR [rcx+4], ax

; 340  : 	tty->size.ws_row = 80;

	mov	eax, 80					; 00000050H
	mov	rcx, QWORD PTR tty$[rsp]
	mov	WORD PTR [rcx+2], ax

; 341  : 
; 342  : 	vfs_node_t * master = ttype_create_master(tty);

	mov	rcx, QWORD PTR tty$[rsp]
	call	?ttype_create_master@@YAPEAU_vfs_node_@@PEAU_tele_type_@@@Z ; ttype_create_master
	mov	QWORD PTR master$[rsp], rax

; 343  : 	vfs_node_t * slave = ttype_create_slave(tty);

	mov	rcx, QWORD PTR tty$[rsp]
	call	?ttype_create_slave@@YAPEAU_vfs_node_@@PEAU_tele_type_@@@Z ; ttype_create_slave
	mov	QWORD PTR slave$[rsp], rax

; 344  : 
; 345  : 	//! Allocate fd for master
; 346  : 	int m_fd = get_current_thread()->fd_current;

	call	get_current_thread
	mov	eax, DWORD PTR [rax+760]
	mov	DWORD PTR m_fd$[rsp], eax

; 347  : 	get_current_thread()->fd[m_fd] = master;

	call	get_current_thread
	movsxd	rcx, DWORD PTR m_fd$[rsp]
	mov	rdx, QWORD PTR master$[rsp]
	mov	QWORD PTR [rax+rcx*8+280], rdx

; 348  : 	get_current_thread()->fd_current++;

	call	get_current_thread
	add	rax, 760				; 000002f8H
	mov	QWORD PTR tv196[rsp], rax
	mov	rax, QWORD PTR tv196[rsp]
	mov	eax, DWORD PTR [rax]
	inc	eax
	mov	rcx, QWORD PTR tv196[rsp]
	mov	DWORD PTR [rcx], eax

; 349  : 
; 350  : 	//! Allocate fd for slave
; 351  : 	int s_fd = get_current_thread()->fd_current;

	call	get_current_thread
	mov	eax, DWORD PTR [rax+760]
	mov	DWORD PTR s_fd$[rsp], eax

; 352  : 	get_current_thread()->fd[s_fd] = slave;

	call	get_current_thread
	movsxd	rcx, DWORD PTR s_fd$[rsp]
	mov	rdx, QWORD PTR slave$[rsp]
	mov	QWORD PTR [rax+rcx*8+280], rdx

; 353  : 	get_current_thread()->fd_current++;

	call	get_current_thread
	add	rax, 760				; 000002f8H
	mov	QWORD PTR tv207[rsp], rax
	mov	rax, QWORD PTR tv207[rsp]
	mov	eax, DWORD PTR [rax]
	inc	eax
	mov	rcx, QWORD PTR tv207[rsp]
	mov	DWORD PTR [rcx], eax

; 354  : 
; 355  : 	get_current_thread()->master_fd = m_fd;

	call	get_current_thread
	movzx	ecx, BYTE PTR m_fd$[rsp]
	mov	BYTE PTR [rax+764], cl

; 356  : 	get_current_thread()->slave_fd = s_fd;

	call	get_current_thread
	movzx	ecx, BYTE PTR s_fd$[rsp]
	mov	BYTE PTR [rax+765], cl

; 357  : 
; 358  : 	get_current_thread()->fd[1] = master;

	call	get_current_thread
	mov	ecx, 8
	imul	rcx, 1
	mov	rdx, QWORD PTR master$[rsp]
	mov	QWORD PTR [rax+rcx+280], rdx

; 359  : 	get_current_thread()->fd[2] = master;

	call	get_current_thread
	mov	ecx, 8
	imul	rcx, 2
	mov	rdx, QWORD PTR master$[rsp]
	mov	QWORD PTR [rax+rcx+280], rdx

; 360  : 
; 361  : 	ttype_insert (tty);

	mov	rcx, QWORD PTR tty$[rsp]
	call	?ttype_insert@@YAXPEAU_tele_type_@@@Z	; ttype_insert

; 362  : 	*master_fd = m_fd;

	mov	rax, QWORD PTR master_fd$[rsp]
	mov	ecx, DWORD PTR m_fd$[rsp]
	mov	DWORD PTR [rax], ecx

; 363  : 	*slave_fd = s_fd;

	mov	rax, QWORD PTR slave_fd$[rsp]
	mov	ecx, DWORD PTR s_fd$[rsp]
	mov	DWORD PTR [rax], ecx

; 364  : 	return 0;

	xor	eax, eax

; 365  : }

	add	rsp, 104				; 00000068H
	ret	0
?ttype_create@@YAHPEAH0@Z ENDP				; ttype_create
_TEXT	ENDS
; Function compile flags: /Odtpy
; File e:\xeneva project\xeneva\aurora\aurora\fs\ttype.cpp
_TEXT	SEGMENT
node$ = 32
sname$ = 40
tty$ = 80
?ttype_create_slave@@YAPEAU_vfs_node_@@PEAU_tele_type_@@@Z PROC ; ttype_create_slave

; 272  : vfs_node_t* ttype_create_slave (ttype_t *tty) {

$LN3:
	mov	QWORD PTR [rsp+8], rcx
	sub	rsp, 72					; 00000048H

; 273  : 
; 274  : 	vfs_node_t *node = (vfs_node_t*)malloc(sizeof(vfs_node_t));

	mov	ecx, 104				; 00000068H
	call	malloc
	mov	QWORD PTR node$[rsp], rax

; 275  : 
; 276  : 	char sname[10];
; 277  : 	strcpy (sname, "/dev/");

	lea	rdx, OFFSET FLAT:$SG3616
	lea	rcx, QWORD PTR sname$[rsp]
	call	strcpy

; 278  : 	strcpy (sname+5, "ttys");

	lea	rax, QWORD PTR sname$[rsp+5]
	lea	rdx, OFFSET FLAT:$SG3617
	mov	rcx, rax
	call	strcpy

; 279  : 	sztoa (slave_count,sname+9,10);

	lea	rax, QWORD PTR sname$[rsp+9]
	movsxd	rcx, DWORD PTR ?slave_count@@3HA	; slave_count
	mov	r8d, 10
	mov	rdx, rax
	call	?sztoa@@YAPEAD_KPEADH@Z			; sztoa

; 280  : 	slave_count++;

	mov	eax, DWORD PTR ?slave_count@@3HA	; slave_count
	inc	eax
	mov	DWORD PTR ?slave_count@@3HA, eax	; slave_count

; 281  : 	strcpy(node->filename, sname+5);

	lea	rax, QWORD PTR sname$[rsp+5]
	mov	rcx, QWORD PTR node$[rsp]
	mov	rdx, rax
	call	strcpy

; 282  : 
; 283  : 	node->size = 512;

	mov	rax, QWORD PTR node$[rsp]
	mov	DWORD PTR [rax+32], 512			; 00000200H

; 284  : 	node->eof = 0;

	mov	rax, QWORD PTR node$[rsp]
	mov	BYTE PTR [rax+36], 0

; 285  : 	node->pos = 0;

	mov	rax, QWORD PTR node$[rsp]
	mov	DWORD PTR [rax+40], 0

; 286  : 	node->current = 0;

	mov	rax, QWORD PTR node$[rsp]
	mov	DWORD PTR [rax+44], 0

; 287  : 	node->flags = FS_FLAG_GENERAL | FS_FLAG_DEVICE;

	mov	rax, QWORD PTR node$[rsp]
	mov	BYTE PTR [rax+48], 12

; 288  : 	node->status = 0;

	mov	rax, QWORD PTR node$[rsp]
	mov	BYTE PTR [rax+49], 0

; 289  : 	node->open = 0;

	mov	rax, QWORD PTR node$[rsp]
	mov	QWORD PTR [rax+64], 0

; 290  : 	node->device = tty;

	mov	rax, QWORD PTR node$[rsp]
	mov	rcx, QWORD PTR tty$[rsp]
	mov	QWORD PTR [rax+56], rcx

; 291  : 	node->read = ttype_slave_read;

	mov	rax, QWORD PTR node$[rsp]
	lea	rcx, OFFSET FLAT:?ttype_slave_read@@YAXPEAU_vfs_node_@@PEA_KI@Z ; ttype_slave_read
	mov	QWORD PTR [rax+72], rcx

; 292  : 	node->write = ttype_slave_write;

	mov	rax, QWORD PTR node$[rsp]
	lea	rcx, OFFSET FLAT:?ttype_slave_write@@YAXPEAU_vfs_node_@@PEA_KI@Z ; ttype_slave_write
	mov	QWORD PTR [rax+80], rcx

; 293  : 	node->read_blk = 0;

	mov	rax, QWORD PTR node$[rsp]
	mov	QWORD PTR [rax+88], 0

; 294  : 	node->ioquery = tty_ioquery;

	mov	rax, QWORD PTR node$[rsp]
	lea	rcx, OFFSET FLAT:?tty_ioquery@@YAHPEAU_vfs_node_@@HPEAX@Z ; tty_ioquery
	mov	QWORD PTR [rax+96], rcx

; 295  : 
; 296  : 	vfs_mount(sname,node,0);

	xor	r8d, r8d
	mov	rdx, QWORD PTR node$[rsp]
	lea	rcx, QWORD PTR sname$[rsp]
	call	vfs_mount

; 297  : 	return node;

	mov	rax, QWORD PTR node$[rsp]

; 298  : }

	add	rsp, 72					; 00000048H
	ret	0
?ttype_create_slave@@YAPEAU_vfs_node_@@PEAU_tele_type_@@@Z ENDP ; ttype_create_slave
_TEXT	ENDS
; Function compile flags: /Odtpy
; File e:\xeneva project\xeneva\aurora\aurora\fs\ttype.cpp
_TEXT	SEGMENT
node$ = 32
mname$ = 40
tty$ = 80
?ttype_create_master@@YAPEAU_vfs_node_@@PEAU_tele_type_@@@Z PROC ; ttype_create_master

; 239  : vfs_node_t* ttype_create_master (ttype_t *tty) {

$LN3:
	mov	QWORD PTR [rsp+8], rcx
	sub	rsp, 72					; 00000048H

; 240  : 
; 241  : 	vfs_node_t *node = (vfs_node_t*)malloc(sizeof(vfs_node_t));

	mov	ecx, 104				; 00000068H
	call	malloc
	mov	QWORD PTR node$[rsp], rax

; 242  : 
; 243  : 	char mname[10];
; 244  : 	strcpy (mname, "/dev/");

	lea	rdx, OFFSET FLAT:$SG3607
	lea	rcx, QWORD PTR mname$[rsp]
	call	strcpy

; 245  : 	strcpy (mname+5, "ttym");

	lea	rax, QWORD PTR mname$[rsp+5]
	lea	rdx, OFFSET FLAT:$SG3608
	mov	rcx, rax
	call	strcpy

; 246  : 	sztoa (master_count,mname+9,10);

	lea	rax, QWORD PTR mname$[rsp+9]
	movsxd	rcx, DWORD PTR ?master_count@@3HA	; master_count
	mov	r8d, 10
	mov	rdx, rax
	call	?sztoa@@YAPEAD_KPEADH@Z			; sztoa

; 247  : 	master_count++;

	mov	eax, DWORD PTR ?master_count@@3HA	; master_count
	inc	eax
	mov	DWORD PTR ?master_count@@3HA, eax	; master_count

; 248  : 	strcpy(node->filename, mname+5);

	lea	rax, QWORD PTR mname$[rsp+5]
	mov	rcx, QWORD PTR node$[rsp]
	mov	rdx, rax
	call	strcpy

; 249  : 
; 250  : 	node->size = 512;

	mov	rax, QWORD PTR node$[rsp]
	mov	DWORD PTR [rax+32], 512			; 00000200H

; 251  : 	node->eof = 0;

	mov	rax, QWORD PTR node$[rsp]
	mov	BYTE PTR [rax+36], 0

; 252  : 	node->pos = 0;

	mov	rax, QWORD PTR node$[rsp]
	mov	DWORD PTR [rax+40], 0

; 253  : 	node->current = 0;

	mov	rax, QWORD PTR node$[rsp]
	mov	DWORD PTR [rax+44], 0

; 254  : 	node->flags = FS_FLAG_GENERAL | FS_FLAG_DEVICE;

	mov	rax, QWORD PTR node$[rsp]
	mov	BYTE PTR [rax+48], 12

; 255  : 	node->status = 0;

	mov	rax, QWORD PTR node$[rsp]
	mov	BYTE PTR [rax+49], 0

; 256  : 	node->open = 0;

	mov	rax, QWORD PTR node$[rsp]
	mov	QWORD PTR [rax+64], 0

; 257  : 	node->device = tty;

	mov	rax, QWORD PTR node$[rsp]
	mov	rcx, QWORD PTR tty$[rsp]
	mov	QWORD PTR [rax+56], rcx

; 258  : 	node->read = ttype_master_read;

	mov	rax, QWORD PTR node$[rsp]
	lea	rcx, OFFSET FLAT:?ttype_master_read@@YAXPEAU_vfs_node_@@PEA_KI@Z ; ttype_master_read
	mov	QWORD PTR [rax+72], rcx

; 259  : 	node->write = ttype_master_write;

	mov	rax, QWORD PTR node$[rsp]
	lea	rcx, OFFSET FLAT:?ttype_master_write@@YAXPEAU_vfs_node_@@PEA_KI@Z ; ttype_master_write
	mov	QWORD PTR [rax+80], rcx

; 260  : 	node->read_blk = 0;

	mov	rax, QWORD PTR node$[rsp]
	mov	QWORD PTR [rax+88], 0

; 261  : 	node->ioquery = tty_ioquery;

	mov	rax, QWORD PTR node$[rsp]
	lea	rcx, OFFSET FLAT:?tty_ioquery@@YAHPEAU_vfs_node_@@HPEAX@Z ; tty_ioquery
	mov	QWORD PTR [rax+96], rcx

; 262  : 
; 263  : 	vfs_mount(mname,node,0);

	xor	r8d, r8d
	mov	rdx, QWORD PTR node$[rsp]
	lea	rcx, QWORD PTR mname$[rsp]
	call	vfs_mount

; 264  : 	return node;

	mov	rax, QWORD PTR node$[rsp]

; 265  : }

	add	rsp, 72					; 00000048H
	ret	0
?ttype_create_master@@YAPEAU_vfs_node_@@PEAU_tele_type_@@@Z ENDP ; ttype_create_master
_TEXT	ENDS
; Function compile flags: /Odtpy
; File e:\xeneva project\xeneva\aurora\aurora\fs\ttype.cpp
_TEXT	SEGMENT
?ttype_init@@YAXXZ PROC					; ttype_init

; 383  : 	root = NULL;

	mov	QWORD PTR ?root@@3PEAU_tele_type_@@EA, 0 ; root

; 384  : 	last = NULL;

	mov	QWORD PTR ?last@@3PEAU_tele_type_@@EA, 0 ; last

; 385  : 	master_count = 1;

	mov	DWORD PTR ?master_count@@3HA, 1		; master_count

; 386  : 	slave_count = 1;

	mov	DWORD PTR ?slave_count@@3HA, 1		; slave_count

; 387  : }

	ret	0
?ttype_init@@YAXXZ ENDP					; ttype_init
_TEXT	ENDS
END
