; Listing generated by Microsoft (R) Optimizing Compiler Version 17.00.50727.1 

include listing.inc

INCLUDELIB LIBCMT
INCLUDELIB OLDNAMES

PUBLIC	?master_count@@3HA				; master_count
PUBLIC	?slave_count@@3HA				; slave_count
PUBLIC	?root@@3PEAU_tele_type_@@EA			; root
PUBLIC	?last@@3PEAU_tele_type_@@EA			; last
_BSS	SEGMENT
?root@@3PEAU_tele_type_@@EA DQ 01H DUP (?)		; root
?last@@3PEAU_tele_type_@@EA DQ 01H DUP (?)		; last
_BSS	ENDS
CONST	SEGMENT
$SG3356	DB	'ttym', 00H
	ORG $+3
$SG3358	DB	'/dev/', 00H
	ORG $+2
$SG3363	DB	'ttys', 00H
	ORG $+3
$SG3365	DB	'/dev/', 00H
CONST	ENDS
_DATA	SEGMENT
?master_count@@3HA DD 01H				; master_count
?slave_count@@3HA DD 01H				; slave_count
_DATA	ENDS
PUBLIC	?ttype_create@@YAXPEAH0@Z			; ttype_create
PUBLIC	?get_ttype@@YAPEAU_tele_type_@@H@Z		; get_ttype
PUBLIC	?ttype_dup_master@@YAXHH@Z			; ttype_dup_master
PUBLIC	?ttype_insert@@YAXPEAU_tele_type_@@@Z		; ttype_insert
PUBLIC	?ttype_delete@@YAXPEAU_tele_type_@@@Z		; ttype_delete
PUBLIC	?ttype_master_read@@YAXPEAU_vfs_node_@@PEAEI@Z	; ttype_master_read
PUBLIC	?ttype_master_write@@YAXPEAU_vfs_node_@@PEAEI@Z	; ttype_master_write
PUBLIC	?ttype_slave_read@@YAXPEAU_vfs_node_@@PEAEI@Z	; ttype_slave_read
PUBLIC	?ttype_slave_write@@YAXPEAU_vfs_node_@@PEAEI@Z	; ttype_slave_write
EXTRN	?strcpy@@YAPEADPEADPEBD@Z:PROC			; strcpy
EXTRN	?strlen@@YA_KPEBD@Z:PROC			; strlen
EXTRN	?memset@@YAXPEAXEI@Z:PROC			; memset
EXTRN	?vfs_mount@@YAXPEADPEAU_vfs_node_@@@Z:PROC	; vfs_mount
EXTRN	?circ_buf_init@@YAPEAU_circ_buf_@@PEAE_K@Z:PROC	; circ_buf_init
EXTRN	?circular_buf_put@@YAXPEAU_circ_buf_@@H@Z:PROC	; circular_buf_put
EXTRN	?circular_buf_get@@YAHPEAU_circ_buf_@@PEAE@Z:PROC ; circular_buf_get
EXTRN	?pmmngr_alloc@@YAPEAXXZ:PROC			; pmmngr_alloc
EXTRN	?pmmngr_free@@YAXPEAX@Z:PROC			; pmmngr_free
EXTRN	x64_cli:PROC
EXTRN	?sztoa@@YAPEAD_KPEADH@Z:PROC			; sztoa
EXTRN	?malloc@@YAPEAX_K@Z:PROC			; malloc
EXTRN	?block_thread@@YAXPEAU_thread_@@@Z:PROC		; block_thread
EXTRN	?unblock_thread@@YAXPEAU_thread_@@@Z:PROC	; unblock_thread
EXTRN	?get_current_thread@@YAPEAU_thread_@@XZ:PROC	; get_current_thread
EXTRN	?force_sched@@YAXXZ:PROC			; force_sched
EXTRN	?thread_iterate_ready_list@@YAPEAU_thread_@@G@Z:PROC ; thread_iterate_ready_list
EXTRN	?thread_iterate_block_list@@YAPEAU_thread_@@H@Z:PROC ; thread_iterate_block_list
pdata	SEGMENT
$pdata$?ttype_create@@YAXPEAH0@Z DD imagerel $LN6
	DD	imagerel $LN6+1263
	DD	imagerel $unwind$?ttype_create@@YAXPEAH0@Z
$pdata$?get_ttype@@YAPEAU_tele_type_@@H@Z DD imagerel $LN8
	DD	imagerel $LN8+78
	DD	imagerel $unwind$?get_ttype@@YAPEAU_tele_type_@@H@Z
$pdata$?ttype_dup_master@@YAXHH@Z DD imagerel $LN5
	DD	imagerel $LN5+156
	DD	imagerel $unwind$?ttype_dup_master@@YAXHH@Z
$pdata$?ttype_delete@@YAXPEAU_tele_type_@@@Z DD imagerel $LN8
	DD	imagerel $LN8+146
	DD	imagerel $unwind$?ttype_delete@@YAXPEAU_tele_type_@@@Z
$pdata$?ttype_master_read@@YAXPEAU_vfs_node_@@PEAEI@Z DD imagerel $LN3
	DD	imagerel $LN3+78
	DD	imagerel $unwind$?ttype_master_read@@YAXPEAU_vfs_node_@@PEAEI@Z
$pdata$?ttype_master_write@@YAXPEAU_vfs_node_@@PEAEI@Z DD imagerel $LN10
	DD	imagerel $LN10+331
	DD	imagerel $unwind$?ttype_master_write@@YAXPEAU_vfs_node_@@PEAEI@Z
$pdata$?ttype_slave_read@@YAXPEAU_vfs_node_@@PEAEI@Z DD imagerel $LN9
	DD	imagerel $LN9+260
	DD	imagerel $unwind$?ttype_slave_read@@YAXPEAU_vfs_node_@@PEAEI@Z
$pdata$?ttype_slave_write@@YAXPEAU_vfs_node_@@PEAEI@Z DD imagerel $LN3
	DD	imagerel $LN3+78
	DD	imagerel $unwind$?ttype_slave_write@@YAXPEAU_vfs_node_@@PEAEI@Z
pdata	ENDS
xdata	SEGMENT
$unwind$?ttype_create@@YAXPEAH0@Z DD 021101H
	DD	0170111H
$unwind$?get_ttype@@YAPEAU_tele_type_@@H@Z DD 010801H
	DD	02208H
$unwind$?ttype_dup_master@@YAXHH@Z DD 010c01H
	DD	0620cH
$unwind$?ttype_delete@@YAXPEAU_tele_type_@@@Z DD 010901H
	DD	04209H
$unwind$?ttype_master_read@@YAXPEAU_vfs_node_@@PEAEI@Z DD 011301H
	DD	08213H
$unwind$?ttype_master_write@@YAXPEAU_vfs_node_@@PEAEI@Z DD 011301H
	DD	0a213H
$unwind$?ttype_slave_read@@YAXPEAU_vfs_node_@@PEAEI@Z DD 011301H
	DD	0a213H
$unwind$?ttype_slave_write@@YAXPEAU_vfs_node_@@PEAEI@Z DD 011301H
	DD	08213H
xdata	ENDS
; Function compile flags: /Odtpy
; File e:\xeneva project\xeneva\aurora\aurora\fs\ttype.cpp
_TEXT	SEGMENT
tv64 = 32
node$ = 40
type$ = 48
file$ = 80
buffer$ = 88
length$ = 96
?ttype_slave_write@@YAXPEAU_vfs_node_@@PEAEI@Z PROC	; ttype_slave_write

; 202  : void ttype_slave_write (vfs_node_t *file, uint8_t* buffer, uint32_t length) {

$LN3:
	mov	DWORD PTR [rsp+24], r8d
	mov	QWORD PTR [rsp+16], rdx
	mov	QWORD PTR [rsp+8], rcx
	sub	rsp, 72					; 00000048H

; 203  : 	vfs_node_t *node = get_current_thread()->fd[get_current_thread()->slave_fd];

	call	?get_current_thread@@YAPEAU_thread_@@XZ	; get_current_thread
	mov	QWORD PTR tv64[rsp], rax
	call	?get_current_thread@@YAPEAU_thread_@@XZ	; get_current_thread
	movzx	eax, BYTE PTR [rax+757]
	mov	rcx, QWORD PTR tv64[rsp]
	mov	rax, QWORD PTR [rcx+rax*8+272]
	mov	QWORD PTR node$[rsp], rax

; 204  : 	ttype_t *type = (ttype_t*)node->device;

	mov	rax, QWORD PTR node$[rsp]
	mov	rax, QWORD PTR [rax+56]
	mov	QWORD PTR type$[rsp], rax

; 205  : 	/*for (int i = 0; i < 32; i++)
; 206  : 		type->out_buffer[i] = buffer[i];*/
; 207  : }

	add	rsp, 72					; 00000048H
	ret	0
?ttype_slave_write@@YAXPEAU_vfs_node_@@PEAEI@Z ENDP	; ttype_slave_write
_TEXT	ENDS
; Function compile flags: /Odtpy
; File e:\xeneva project\xeneva\aurora\aurora\fs\ttype.cpp
_TEXT	SEGMENT
i$1 = 32
type$ = 40
dest$2 = 48
tv64 = 56
node$ = 64
file$ = 96
buffer$ = 104
length$ = 112
?ttype_slave_read@@YAXPEAU_vfs_node_@@PEAEI@Z PROC	; ttype_slave_read

; 170  : void ttype_slave_read (vfs_node_t *file, uint8_t* buffer,uint32_t length) {

$LN9:
	mov	DWORD PTR [rsp+24], r8d
	mov	QWORD PTR [rsp+16], rdx
	mov	QWORD PTR [rsp+8], rcx
	sub	rsp, 88					; 00000058H

; 171  : 	x64_cli();

	call	x64_cli

; 172  : 
; 173  : 	/* get the ttype */
; 174  : 	vfs_node_t *node = get_current_thread()->fd[get_current_thread()->slave_fd];

	call	?get_current_thread@@YAPEAU_thread_@@XZ	; get_current_thread
	mov	QWORD PTR tv64[rsp], rax
	call	?get_current_thread@@YAPEAU_thread_@@XZ	; get_current_thread
	movzx	eax, BYTE PTR [rax+757]
	mov	rcx, QWORD PTR tv64[rsp]
	mov	rax, QWORD PTR [rcx+rax*8+272]
	mov	QWORD PTR node$[rsp], rax

; 175  : 	ttype_t *type = (ttype_t*)node->device;

	mov	rax, QWORD PTR node$[rsp]
	mov	rax, QWORD PTR [rax+56]
	mov	QWORD PTR type$[rsp], rax

; 176  : 
; 177  : 	//! lets read everything that has been written 
; 178  : 	//! by child, be carefull we only read that much
; 179  : 	//! that have been written by child process
; 180  : 	for (int i = 0; i < type->written; i++) {

	mov	DWORD PTR i$1[rsp], 0
	jmp	SHORT $LN6@ttype_slav
$LN5@ttype_slav:
	mov	eax, DWORD PTR i$1[rsp]
	inc	eax
	mov	DWORD PTR i$1[rsp], eax
$LN6@ttype_slav:
	mov	rax, QWORD PTR type$[rsp]
	mov	eax, DWORD PTR [rax+92]
	cmp	DWORD PTR i$1[rsp], eax
	jae	SHORT $LN4@ttype_slav

; 181  : 		circular_buf_get(type->in_buffer,&buffer[i]);

	movsxd	rax, DWORD PTR i$1[rsp]
	mov	rcx, QWORD PTR buffer$[rsp]
	add	rcx, rax
	mov	rax, rcx
	mov	rdx, rax
	mov	rax, QWORD PTR type$[rsp]
	mov	rcx, QWORD PTR [rax+72]
	call	?circular_buf_get@@YAHPEAU_circ_buf_@@PEAE@Z ; circular_buf_get

; 182  : 	}

	jmp	SHORT $LN5@ttype_slav
$LN4@ttype_slav:

; 183  : 
; 184  : 	//! resate the written count, so that child process
; 185  : 	//! can write its next data
; 186  : 	type->written = 0;

	mov	rax, QWORD PTR type$[rsp]
	mov	DWORD PTR [rax+92], 0

; 187  : 
; 188  : 	//! check if child process is blocked
; 189  : 	if (type->blocked_pid > 0) {

	mov	rax, QWORD PTR type$[rsp]
	movzx	eax, WORD PTR [rax+90]
	test	eax, eax
	jle	SHORT $LN3@ttype_slav

; 190  : 		//! yes, than simply unblock it
; 191  : 		thread_t *dest = thread_iterate_ready_list(type->blocked_pid);

	mov	rax, QWORD PTR type$[rsp]
	movzx	ecx, WORD PTR [rax+90]
	call	?thread_iterate_ready_list@@YAPEAU_thread_@@G@Z ; thread_iterate_ready_list
	mov	QWORD PTR dest$2[rsp], rax

; 192  : 		if (dest == NULL)

	cmp	QWORD PTR dest$2[rsp], 0
	jne	SHORT $LN2@ttype_slav

; 193  : 			dest = thread_iterate_block_list(type->blocked_pid);

	mov	rax, QWORD PTR type$[rsp]
	movzx	eax, WORD PTR [rax+90]
	mov	ecx, eax
	call	?thread_iterate_block_list@@YAPEAU_thread_@@H@Z ; thread_iterate_block_list
	mov	QWORD PTR dest$2[rsp], rax
$LN2@ttype_slav:

; 194  : 
; 195  : 		if (dest != NULL && dest->state == THREAD_STATE_BLOCKED)

	cmp	QWORD PTR dest$2[rsp], 0
	je	SHORT $LN1@ttype_slav
	mov	rax, QWORD PTR dest$2[rsp]
	movzx	eax, BYTE PTR [rax+232]
	cmp	eax, 3
	jne	SHORT $LN1@ttype_slav

; 196  : 			unblock_thread(dest);

	mov	rcx, QWORD PTR dest$2[rsp]
	call	?unblock_thread@@YAXPEAU_thread_@@@Z	; unblock_thread
$LN1@ttype_slav:
$LN3@ttype_slav:

; 197  : 	}
; 198  : 
; 199  : 	
; 200  : }

	add	rsp, 88					; 00000058H
	ret	0
?ttype_slave_read@@YAXPEAU_vfs_node_@@PEAEI@Z ENDP	; ttype_slave_read
_TEXT	ENDS
; Function compile flags: /Odtpy
; File e:\xeneva project\xeneva\aurora\aurora\fs\ttype.cpp
_TEXT	SEGMENT
i$1 = 32
dest$ = 40
type$ = 48
tv64 = 56
node$ = 64
file$ = 96
buffer$ = 104
length$ = 112
?ttype_master_write@@YAXPEAU_vfs_node_@@PEAEI@Z PROC	; ttype_master_write

; 115  : void ttype_master_write (vfs_node_t *file, uint8_t* buffer, uint32_t length) {

$LN10:
	mov	DWORD PTR [rsp+24], r8d
	mov	QWORD PTR [rsp+16], rdx
	mov	QWORD PTR [rsp+8], rcx
	sub	rsp, 88					; 00000058H

; 116  : 	x64_cli();

	call	x64_cli

; 117  : 
; 118  : 	//! get the master node from the child process
; 119  : 	vfs_node_t *node = get_current_thread()->fd[get_current_thread()->master_fd];

	call	?get_current_thread@@YAPEAU_thread_@@XZ	; get_current_thread
	mov	QWORD PTR tv64[rsp], rax
	call	?get_current_thread@@YAPEAU_thread_@@XZ	; get_current_thread
	movzx	eax, BYTE PTR [rax+756]
	mov	rcx, QWORD PTR tv64[rsp]
	mov	rax, QWORD PTR [rcx+rax*8+272]
	mov	QWORD PTR node$[rsp], rax

; 120  : 	ttype_t *type = (ttype_t*)node->device;

	mov	rax, QWORD PTR node$[rsp]
	mov	rax, QWORD PTR [rax+56]
	mov	QWORD PTR type$[rsp], rax

; 121  : 
; 122  : 	//! first of all, get the registered terminal emulator
; 123  : 	//! id, we need to unblock it, if it is blocked by default
; 124  : 	thread_t *dest = thread_iterate_ready_list(type->pid);

	mov	rax, QWORD PTR type$[rsp]
	movzx	ecx, WORD PTR [rax+96]
	call	?thread_iterate_ready_list@@YAPEAU_thread_@@G@Z ; thread_iterate_ready_list
	mov	QWORD PTR dest$[rsp], rax

; 125  : 	if (dest == NULL)

	cmp	QWORD PTR dest$[rsp], 0
	jne	SHORT $LN7@ttype_mast

; 126  : 		dest = thread_iterate_block_list(type->pid);

	mov	rax, QWORD PTR type$[rsp]
	movzx	eax, WORD PTR [rax+96]
	mov	ecx, eax
	call	?thread_iterate_block_list@@YAPEAU_thread_@@H@Z ; thread_iterate_block_list
	mov	QWORD PTR dest$[rsp], rax
$LN7@ttype_mast:

; 127  : 
; 128  : 	//! check, if another data is already written to the
; 129  : 	//! buffer
; 130  : 	if (type->written > 0)  {

	mov	rax, QWORD PTR type$[rsp]
	cmp	DWORD PTR [rax+92], 0
	jbe	SHORT $LN6@ttype_mast

; 131  : 		//! yes, the buffer is in use, let's wait for the
; 132  : 		//! buffer usage to be finished
; 133  : 		type->blocked_pid = get_current_thread()->id;

	call	?get_current_thread@@YAPEAU_thread_@@XZ	; get_current_thread
	mov	rcx, QWORD PTR type$[rsp]
	movzx	eax, WORD PTR [rax+234]
	mov	WORD PTR [rcx+90], ax

; 134  : 
; 135  : 		//! unblock the terminal emulator if it is blocked cause
; 136  : 		//! it will get the ttype buffer usage to be finished
; 137  : 		if (dest != NULL && dest->state == THREAD_STATE_BLOCKED)

	cmp	QWORD PTR dest$[rsp], 0
	je	SHORT $LN5@ttype_mast
	mov	rax, QWORD PTR dest$[rsp]
	movzx	eax, BYTE PTR [rax+232]
	cmp	eax, 3
	jne	SHORT $LN5@ttype_mast

; 138  : 			unblock_thread(dest);

	mov	rcx, QWORD PTR dest$[rsp]
	call	?unblock_thread@@YAXPEAU_thread_@@@Z	; unblock_thread
$LN5@ttype_mast:

; 139  : 
; 140  : 		//! block the current thread, till the buffer usage get over
; 141  : 		block_thread(get_current_thread());

	call	?get_current_thread@@YAPEAU_thread_@@XZ	; get_current_thread
	mov	rcx, rax
	call	?block_thread@@YAXPEAU_thread_@@@Z	; block_thread

; 142  : 		force_sched();

	call	?force_sched@@YAXXZ			; force_sched
$LN6@ttype_mast:

; 143  : 	}
; 144  : 
; 145  : 
; 146  :      //! unblock the terminal emulator, cause - new text is available to 
; 147  : 	//! be processed
; 148  : 	if (dest != NULL && dest->state == THREAD_STATE_BLOCKED)

	cmp	QWORD PTR dest$[rsp], 0
	je	SHORT $LN4@ttype_mast
	mov	rax, QWORD PTR dest$[rsp]
	movzx	eax, BYTE PTR [rax+232]
	cmp	eax, 3
	jne	SHORT $LN4@ttype_mast

; 149  : 		unblock_thread(dest);

	mov	rcx, QWORD PTR dest$[rsp]
	call	?unblock_thread@@YAXPEAU_thread_@@@Z	; unblock_thread
$LN4@ttype_mast:

; 150  : 
; 151  : 	//! so finally we now use the type buffer to store our text data
; 152  : 	for (int i = 0; i < length; i++) {

	mov	DWORD PTR i$1[rsp], 0
	jmp	SHORT $LN3@ttype_mast
$LN2@ttype_mast:
	mov	eax, DWORD PTR i$1[rsp]
	inc	eax
	mov	DWORD PTR i$1[rsp], eax
$LN3@ttype_mast:
	mov	eax, DWORD PTR length$[rsp]
	cmp	DWORD PTR i$1[rsp], eax
	jae	SHORT $LN1@ttype_mast

; 153  : 		circular_buf_put(type->in_buffer,buffer[i]);

	movsxd	rax, DWORD PTR i$1[rsp]
	mov	rcx, QWORD PTR buffer$[rsp]
	movzx	eax, BYTE PTR [rcx+rax]
	mov	edx, eax
	mov	rax, QWORD PTR type$[rsp]
	mov	rcx, QWORD PTR [rax+72]
	call	?circular_buf_put@@YAXPEAU_circ_buf_@@H@Z ; circular_buf_put

; 154  : 		type->written++; //increament the written count, cause we only

	mov	rax, QWORD PTR type$[rsp]
	mov	eax, DWORD PTR [rax+92]
	inc	eax
	mov	rcx, QWORD PTR type$[rsp]
	mov	DWORD PTR [rcx+92], eax

; 155  : 		// read that much of text, that actually get written
; 156  : 	}

	jmp	SHORT $LN2@ttype_mast
$LN1@ttype_mast:

; 157  : 
; 158  : 
; 159  : 	
; 160  : 
; 161  : }

	add	rsp, 88					; 00000058H
	ret	0
?ttype_master_write@@YAXPEAU_vfs_node_@@PEAEI@Z ENDP	; ttype_master_write
_TEXT	ENDS
; Function compile flags: /Odtpy
; File e:\xeneva project\xeneva\aurora\aurora\fs\ttype.cpp
_TEXT	SEGMENT
tv64 = 32
node$ = 40
type$ = 48
file$ = 80
buffer$ = 88
length$ = 96
?ttype_master_read@@YAXPEAU_vfs_node_@@PEAEI@Z PROC	; ttype_master_read

; 100  : void ttype_master_read (vfs_node_t *file, uint8_t* buffer,uint32_t length) {

$LN3:
	mov	DWORD PTR [rsp+24], r8d
	mov	QWORD PTR [rsp+16], rdx
	mov	QWORD PTR [rsp+8], rcx
	sub	rsp, 72					; 00000048H

; 101  : 	//!Read it from out buffer
; 102  : 	vfs_node_t *node = get_current_thread()->fd[get_current_thread()->master_fd];

	call	?get_current_thread@@YAPEAU_thread_@@XZ	; get_current_thread
	mov	QWORD PTR tv64[rsp], rax
	call	?get_current_thread@@YAPEAU_thread_@@XZ	; get_current_thread
	movzx	eax, BYTE PTR [rax+756]
	mov	rcx, QWORD PTR tv64[rsp]
	mov	rax, QWORD PTR [rcx+rax*8+272]
	mov	QWORD PTR node$[rsp], rax

; 103  : 	ttype_t *type = (ttype_t*)node->device;

	mov	rax, QWORD PTR node$[rsp]
	mov	rax, QWORD PTR [rax+56]
	mov	QWORD PTR type$[rsp], rax

; 104  : 	/*for (int i = 0; i < 32; i++)
; 105  : 		buffer[i] = type->out_buffer[i];*/
; 106  : 
; 107  : }

	add	rsp, 72					; 00000048H
	ret	0
?ttype_master_read@@YAXPEAU_vfs_node_@@PEAEI@Z ENDP	; ttype_master_read
_TEXT	ENDS
; Function compile flags: /Odtpy
; File e:\xeneva project\xeneva\aurora\aurora\fs\ttype.cpp
_TEXT	SEGMENT
tty$ = 48
?ttype_delete@@YAXPEAU_tele_type_@@@Z PROC		; ttype_delete

; 74   : void ttype_delete (ttype_t* tty) {

$LN8:
	mov	QWORD PTR [rsp+8], rcx
	sub	rsp, 40					; 00000028H

; 75   : 
; 76   : 	if (root == NULL)

	cmp	QWORD PTR ?root@@3PEAU_tele_type_@@EA, 0 ; root
	jne	SHORT $LN5@ttype_dele

; 77   : 		return;

	jmp	SHORT $LN6@ttype_dele
$LN5@ttype_dele:

; 78   : 
; 79   : 	if (tty == root) {

	mov	rax, QWORD PTR ?root@@3PEAU_tele_type_@@EA ; root
	cmp	QWORD PTR tty$[rsp], rax
	jne	SHORT $LN4@ttype_dele

; 80   : 		root = root->next;

	mov	rax, QWORD PTR ?root@@3PEAU_tele_type_@@EA ; root
	mov	rax, QWORD PTR [rax+104]
	mov	QWORD PTR ?root@@3PEAU_tele_type_@@EA, rax ; root

; 81   : 	} else {

	jmp	SHORT $LN3@ttype_dele
$LN4@ttype_dele:

; 82   : 		tty->prev->next = tty->next;

	mov	rax, QWORD PTR tty$[rsp]
	mov	rax, QWORD PTR [rax+112]
	mov	rcx, QWORD PTR tty$[rsp]
	mov	rcx, QWORD PTR [rcx+104]
	mov	QWORD PTR [rax+104], rcx
$LN3@ttype_dele:

; 83   : 	}
; 84   : 
; 85   : 	if (tty == last) {

	mov	rax, QWORD PTR ?last@@3PEAU_tele_type_@@EA ; last
	cmp	QWORD PTR tty$[rsp], rax
	jne	SHORT $LN2@ttype_dele

; 86   : 		last = tty->prev;

	mov	rax, QWORD PTR tty$[rsp]
	mov	rax, QWORD PTR [rax+112]
	mov	QWORD PTR ?last@@3PEAU_tele_type_@@EA, rax ; last

; 87   : 	} else {

	jmp	SHORT $LN1@ttype_dele
$LN2@ttype_dele:

; 88   : 		tty->next->prev = tty->prev;

	mov	rax, QWORD PTR tty$[rsp]
	mov	rax, QWORD PTR [rax+104]
	mov	rcx, QWORD PTR tty$[rsp]
	mov	rcx, QWORD PTR [rcx+112]
	mov	QWORD PTR [rax+112], rcx
$LN1@ttype_dele:

; 89   : 	}
; 90   : 
; 91   : 	pmmngr_free (tty);

	mov	rcx, QWORD PTR tty$[rsp]
	call	?pmmngr_free@@YAXPEAX@Z			; pmmngr_free
$LN6@ttype_dele:

; 92   : }

	add	rsp, 40					; 00000028H
	ret	0
?ttype_delete@@YAXPEAU_tele_type_@@@Z ENDP		; ttype_delete
_TEXT	ENDS
; Function compile flags: /Odtpy
; File e:\xeneva project\xeneva\aurora\aurora\fs\ttype.cpp
_TEXT	SEGMENT
tty$ = 8
?ttype_insert@@YAXPEAU_tele_type_@@@Z PROC		; ttype_insert

; 59   : void ttype_insert (ttype_t* tty ) {

	mov	QWORD PTR [rsp+8], rcx

; 60   : 	tty->next = NULL;

	mov	rax, QWORD PTR tty$[rsp]
	mov	QWORD PTR [rax+104], 0

; 61   : 	tty->prev = NULL;

	mov	rax, QWORD PTR tty$[rsp]
	mov	QWORD PTR [rax+112], 0

; 62   : 
; 63   : 	if (root == NULL) {

	cmp	QWORD PTR ?root@@3PEAU_tele_type_@@EA, 0 ; root
	jne	SHORT $LN2@ttype_inse

; 64   : 		last = tty;

	mov	rax, QWORD PTR tty$[rsp]
	mov	QWORD PTR ?last@@3PEAU_tele_type_@@EA, rax ; last

; 65   : 		root = tty;

	mov	rax, QWORD PTR tty$[rsp]
	mov	QWORD PTR ?root@@3PEAU_tele_type_@@EA, rax ; root

; 66   : 	} else {

	jmp	SHORT $LN1@ttype_inse
$LN2@ttype_inse:

; 67   : 		last->next = tty;

	mov	rax, QWORD PTR ?last@@3PEAU_tele_type_@@EA ; last
	mov	rcx, QWORD PTR tty$[rsp]
	mov	QWORD PTR [rax+104], rcx

; 68   : 		tty->prev = last;

	mov	rax, QWORD PTR tty$[rsp]
	mov	rcx, QWORD PTR ?last@@3PEAU_tele_type_@@EA ; last
	mov	QWORD PTR [rax+112], rcx
$LN1@ttype_inse:

; 69   : 	}
; 70   : 	last = tty;

	mov	rax, QWORD PTR tty$[rsp]
	mov	QWORD PTR ?last@@3PEAU_tele_type_@@EA, rax ; last

; 71   : }

	ret	0
?ttype_insert@@YAXPEAU_tele_type_@@@Z ENDP		; ttype_insert
_TEXT	ENDS
; Function compile flags: /Odtpy
; File e:\xeneva project\xeneva\aurora\aurora\fs\ttype.cpp
_TEXT	SEGMENT
dest$ = 32
node$ = 40
task_id$ = 64
master_fd$ = 72
?ttype_dup_master@@YAXHH@Z PROC				; ttype_dup_master

; 323  : void ttype_dup_master (int task_id, int master_fd) {

$LN5:
	mov	DWORD PTR [rsp+16], edx
	mov	DWORD PTR [rsp+8], ecx
	sub	rsp, 56					; 00000038H

; 324  : 	x64_cli();

	call	x64_cli

; 325  : 	vfs_node_t *node = get_current_thread()->fd[master_fd];

	call	?get_current_thread@@YAPEAU_thread_@@XZ	; get_current_thread
	movsxd	rcx, DWORD PTR master_fd$[rsp]
	mov	rax, QWORD PTR [rax+rcx*8+272]
	mov	QWORD PTR node$[rsp], rax

; 326  : 	thread_t *dest = thread_iterate_ready_list(task_id);

	movzx	ecx, WORD PTR task_id$[rsp]
	call	?thread_iterate_ready_list@@YAPEAU_thread_@@G@Z ; thread_iterate_ready_list
	mov	QWORD PTR dest$[rsp], rax

; 327  : 	if (dest == NULL) {

	cmp	QWORD PTR dest$[rsp], 0
	jne	SHORT $LN2@ttype_dup_

; 328  : 		dest = thread_iterate_block_list(task_id);

	mov	ecx, DWORD PTR task_id$[rsp]
	call	?thread_iterate_block_list@@YAPEAU_thread_@@H@Z ; thread_iterate_block_list
	mov	QWORD PTR dest$[rsp], rax
$LN2@ttype_dup_:

; 329  : 	}
; 330  : 	if (dest != NULL) {

	cmp	QWORD PTR dest$[rsp], 0
	je	SHORT $LN1@ttype_dup_

; 331  : 		dest->fd[1] = node;

	mov	eax, 8
	imul	rax, 1
	mov	rcx, QWORD PTR dest$[rsp]
	mov	rdx, QWORD PTR node$[rsp]
	mov	QWORD PTR [rcx+rax+272], rdx

; 332  : 		dest->fd[2] = node;

	mov	eax, 8
	imul	rax, 2
	mov	rcx, QWORD PTR dest$[rsp]
	mov	rdx, QWORD PTR node$[rsp]
	mov	QWORD PTR [rcx+rax+272], rdx
$LN1@ttype_dup_:

; 333  : 	}
; 334  : 	dest->master_fd = 1;

	mov	rax, QWORD PTR dest$[rsp]
	mov	BYTE PTR [rax+756], 1

; 335  : }

	add	rsp, 56					; 00000038H
	ret	0
?ttype_dup_master@@YAXHH@Z ENDP				; ttype_dup_master
_TEXT	ENDS
; Function compile flags: /Odtpy
; File e:\xeneva project\xeneva\aurora\aurora\fs\ttype.cpp
_TEXT	SEGMENT
tty$1 = 0
id$ = 32
?get_ttype@@YAPEAU_tele_type_@@H@Z PROC			; get_ttype

; 209  : ttype_t * get_ttype (int id) {

$LN8:
	mov	DWORD PTR [rsp+8], ecx
	sub	rsp, 24

; 210  : 	if (root != NULL){

	cmp	QWORD PTR ?root@@3PEAU_tele_type_@@EA, 0 ; root
	je	SHORT $LN5@get_ttype

; 211  : 		for (ttype_t* tty = root; tty != NULL; tty = tty->next) {

	mov	rax, QWORD PTR ?root@@3PEAU_tele_type_@@EA ; root
	mov	QWORD PTR tty$1[rsp], rax
	jmp	SHORT $LN4@get_ttype
$LN3@get_ttype:
	mov	rax, QWORD PTR tty$1[rsp]
	mov	rax, QWORD PTR [rax+104]
	mov	QWORD PTR tty$1[rsp], rax
$LN4@get_ttype:
	cmp	QWORD PTR tty$1[rsp], 0
	je	SHORT $LN2@get_ttype

; 212  : 			if (tty->id == id) 

	mov	rax, QWORD PTR tty$1[rsp]
	movzx	eax, BYTE PTR [rax]
	cmp	eax, DWORD PTR id$[rsp]
	jne	SHORT $LN1@get_ttype

; 213  : 				return tty;

	mov	rax, QWORD PTR tty$1[rsp]
	jmp	SHORT $LN6@get_ttype
$LN1@get_ttype:

; 214  : 		}

	jmp	SHORT $LN3@get_ttype
$LN2@get_ttype:
$LN5@get_ttype:

; 215  : 	}
; 216  : 	return NULL;

	xor	eax, eax
$LN6@get_ttype:

; 217  : }

	add	rsp, 24
	ret	0
?get_ttype@@YAPEAU_tele_type_@@H@Z ENDP			; get_ttype
_TEXT	ENDS
; Function compile flags: /Odtpy
; File e:\xeneva project\xeneva\aurora\aurora\fs\ttype.cpp
_TEXT	SEGMENT
mn$ = 32
i$1 = 40
sn$ = 48
tty$ = 56
m_value$ = 64
s_fd$ = 68
s_value$ = 72
m_fd$ = 76
master_name$ = 80
slave_name$ = 96
sname$ = 112
mname$ = 128
outbuffer$ = 144
tv235 = 152
tv224 = 160
inbuffer$ = 168
master_fd$ = 192
slave_fd$ = 200
?ttype_create@@YAXPEAH0@Z PROC				; ttype_create

; 219  : void ttype_create (int* master_fd, int* slave_fd) {

$LN6:
	mov	QWORD PTR [rsp+16], rdx
	mov	QWORD PTR [rsp+8], rcx
	sub	rsp, 184				; 000000b8H

; 220  : 	ttype_t *tty= (ttype_t*)pmmngr_alloc();

	call	?pmmngr_alloc@@YAPEAXXZ			; pmmngr_alloc
	mov	QWORD PTR tty$[rsp], rax

; 221  : 	memset (tty, 0, 4096);

	mov	r8d, 4096				; 00001000H
	xor	edx, edx
	mov	rcx, QWORD PTR tty$[rsp]
	call	?memset@@YAXPEAXEI@Z			; memset

; 222  : 
; 223  : 	uint8_t* inbuffer = (uint8_t*)pmmngr_alloc();

	call	?pmmngr_alloc@@YAPEAXXZ			; pmmngr_alloc
	mov	QWORD PTR inbuffer$[rsp], rax

; 224  : 	memset(inbuffer, 0, 4096);

	mov	r8d, 4096				; 00001000H
	xor	edx, edx
	mov	rcx, QWORD PTR inbuffer$[rsp]
	call	?memset@@YAXPEAXEI@Z			; memset

; 225  : 	uint8_t* outbuffer = (uint8_t*)pmmngr_alloc();

	call	?pmmngr_alloc@@YAPEAXXZ			; pmmngr_alloc
	mov	QWORD PTR outbuffer$[rsp], rax

; 226  : 	memset(outbuffer, 0, 4096);

	mov	r8d, 4096				; 00001000H
	xor	edx, edx
	mov	rcx, QWORD PTR outbuffer$[rsp]
	call	?memset@@YAXPEAXEI@Z			; memset

; 227  : 
; 228  : 	tty->in_buffer = circ_buf_init(inbuffer,4095);

	mov	edx, 4095				; 00000fffH
	mov	rcx, QWORD PTR inbuffer$[rsp]
	call	?circ_buf_init@@YAPEAU_circ_buf_@@PEAE_K@Z ; circ_buf_init
	mov	rcx, QWORD PTR tty$[rsp]
	mov	QWORD PTR [rcx+72], rax

; 229  : 	tty->out_buffer = circ_buf_init(outbuffer, 4095);

	mov	edx, 4095				; 00000fffH
	mov	rcx, QWORD PTR outbuffer$[rsp]
	call	?circ_buf_init@@YAPEAU_circ_buf_@@PEAE_K@Z ; circ_buf_init
	mov	rcx, QWORD PTR tty$[rsp]
	mov	QWORD PTR [rcx+80], rax

; 230  : 
; 231  : 	tty->id = slave_count;

	mov	rax, QWORD PTR tty$[rsp]
	movzx	ecx, BYTE PTR ?slave_count@@3HA
	mov	BYTE PTR [rax], cl

; 232  : 
; 233  : 	//! tty->pid -- stores the current terminal emulator id
; 234  : 	tty->pid = get_current_thread()->id;

	call	?get_current_thread@@YAPEAU_thread_@@XZ	; get_current_thread
	mov	rcx, QWORD PTR tty$[rsp]
	movzx	eax, WORD PTR [rax+234]
	mov	WORD PTR [rcx+96], ax

; 235  : 	tty->written = 0;

	mov	rax, QWORD PTR tty$[rsp]
	mov	DWORD PTR [rax+92], 0

; 236  : 
; 237  : 	///! Create the namings
; 238  : 	char m_value[2];
; 239  : 	char s_value[2];
; 240  : 
; 241  : 	sztoa(master_count, m_value,10);

	movsxd	rax, DWORD PTR ?master_count@@3HA	; master_count
	mov	r8d, 10
	lea	rdx, QWORD PTR m_value$[rsp]
	mov	rcx, rax
	call	?sztoa@@YAPEAD_KPEADH@Z			; sztoa

; 242  : 	sztoa(slave_count, s_value,10);

	movsxd	rax, DWORD PTR ?slave_count@@3HA	; slave_count
	mov	r8d, 10
	lea	rdx, QWORD PTR s_value$[rsp]
	mov	rcx, rax
	call	?sztoa@@YAPEAD_KPEADH@Z			; sztoa

; 243  : 
; 244  : 	char master_name[10];
; 245  : 	strcpy(master_name, "ttym");

	lea	rdx, OFFSET FLAT:$SG3356
	lea	rcx, QWORD PTR master_name$[rsp]
	call	?strcpy@@YAPEADPEADPEBD@Z		; strcpy

; 246  : 	strcpy (master_name + strlen(master_name)-1, m_value);

	lea	rcx, QWORD PTR master_name$[rsp]
	call	?strlen@@YA_KPEBD@Z			; strlen
	lea	rax, QWORD PTR master_name$[rsp+rax-1]
	lea	rdx, QWORD PTR m_value$[rsp]
	mov	rcx, rax
	call	?strcpy@@YAPEADPEADPEBD@Z		; strcpy

; 247  : 	
; 248  : 	char mname[10];
; 249  : 	strcpy (mname, "/dev/");

	lea	rdx, OFFSET FLAT:$SG3358
	lea	rcx, QWORD PTR mname$[rsp]
	call	?strcpy@@YAPEADPEADPEBD@Z		; strcpy

; 250  : 	strcpy (mname + strlen(mname)-1, master_name);

	lea	rcx, QWORD PTR mname$[rsp]
	call	?strlen@@YA_KPEBD@Z			; strlen
	lea	rax, QWORD PTR mname$[rsp+rax-1]
	lea	rdx, QWORD PTR master_name$[rsp]
	mov	rcx, rax
	call	?strcpy@@YAPEADPEADPEBD@Z		; strcpy

; 251  : 	
; 252  : 
; 253  : 	///! Master node
; 254  : 	vfs_node_t *mn = (vfs_node_t*)malloc(sizeof(vfs_node_t));

	mov	ecx, 104				; 00000068H
	call	?malloc@@YAPEAX_K@Z			; malloc
	mov	QWORD PTR mn$[rsp], rax

; 255  : 	strcpy(mn->filename, master_name);

	mov	rax, QWORD PTR mn$[rsp]
	lea	rdx, QWORD PTR master_name$[rsp]
	mov	rcx, rax
	call	?strcpy@@YAPEADPEADPEBD@Z		; strcpy

; 256  : 	mn->size = 0;

	mov	rax, QWORD PTR mn$[rsp]
	mov	DWORD PTR [rax+32], 0

; 257  : 	mn->eof = 0;

	mov	rax, QWORD PTR mn$[rsp]
	mov	DWORD PTR [rax+36], 0

; 258  : 	mn->pos = 0;

	mov	rax, QWORD PTR mn$[rsp]
	mov	DWORD PTR [rax+40], 0

; 259  : 	mn->current = 0;

	mov	rax, QWORD PTR mn$[rsp]
	mov	DWORD PTR [rax+44], 0

; 260  : 	mn->flags = FS_FLAG_GENERAL;

	mov	rax, QWORD PTR mn$[rsp]
	mov	DWORD PTR [rax+48], 2

; 261  : 	mn->status = 0;

	mov	rax, QWORD PTR mn$[rsp]
	mov	DWORD PTR [rax+52], 0

; 262  : 	mn->open = 0;

	mov	rax, QWORD PTR mn$[rsp]
	mov	QWORD PTR [rax+64], 0

; 263  : 	mn->device = tty;

	mov	rax, QWORD PTR mn$[rsp]
	mov	rcx, QWORD PTR tty$[rsp]
	mov	QWORD PTR [rax+56], rcx

; 264  : 	mn->read = ttype_master_read;

	mov	rax, QWORD PTR mn$[rsp]
	lea	rcx, OFFSET FLAT:?ttype_master_read@@YAXPEAU_vfs_node_@@PEAEI@Z ; ttype_master_read
	mov	QWORD PTR [rax+72], rcx

; 265  : 	mn->write = ttype_master_write;

	mov	rax, QWORD PTR mn$[rsp]
	lea	rcx, OFFSET FLAT:?ttype_master_write@@YAXPEAU_vfs_node_@@PEAEI@Z ; ttype_master_write
	mov	QWORD PTR [rax+80], rcx

; 266  : 	mn->read_blk = 0;

	mov	rax, QWORD PTR mn$[rsp]
	mov	QWORD PTR [rax+88], 0

; 267  : 	mn->ioquery = 0;

	mov	rax, QWORD PTR mn$[rsp]
	mov	QWORD PTR [rax+96], 0

; 268  : 	vfs_mount (mname, mn);

	mov	rdx, QWORD PTR mn$[rsp]
	lea	rcx, QWORD PTR mname$[rsp]
	call	?vfs_mount@@YAXPEADPEAU_vfs_node_@@@Z	; vfs_mount

; 269  : 
; 270  : 	char slave_name[10];
; 271  : 	strcpy(slave_name, "ttys");

	lea	rdx, OFFSET FLAT:$SG3363
	lea	rcx, QWORD PTR slave_name$[rsp]
	call	?strcpy@@YAPEADPEADPEBD@Z		; strcpy

; 272  : 	strcpy (slave_name + strlen(slave_name)-1,s_value);

	lea	rcx, QWORD PTR slave_name$[rsp]
	call	?strlen@@YA_KPEBD@Z			; strlen
	lea	rax, QWORD PTR slave_name$[rsp+rax-1]
	lea	rdx, QWORD PTR s_value$[rsp]
	mov	rcx, rax
	call	?strcpy@@YAPEADPEADPEBD@Z		; strcpy

; 273  : 
; 274  : 	char sname[10];
; 275  : 	strcpy(sname, "/dev/");

	lea	rdx, OFFSET FLAT:$SG3365
	lea	rcx, QWORD PTR sname$[rsp]
	call	?strcpy@@YAPEADPEADPEBD@Z		; strcpy

; 276  : 	strcpy (sname + strlen(sname)-1, slave_name);

	lea	rcx, QWORD PTR sname$[rsp]
	call	?strlen@@YA_KPEBD@Z			; strlen
	lea	rax, QWORD PTR sname$[rsp+rax-1]
	lea	rdx, QWORD PTR slave_name$[rsp]
	mov	rcx, rax
	call	?strcpy@@YAPEADPEADPEBD@Z		; strcpy

; 277  : 
; 278  : 	vfs_node_t *sn = (vfs_node_t*)malloc(sizeof(vfs_node_t));

	mov	ecx, 104				; 00000068H
	call	?malloc@@YAPEAX_K@Z			; malloc
	mov	QWORD PTR sn$[rsp], rax

; 279  : 	strcpy(sn->filename, slave_name);

	mov	rax, QWORD PTR sn$[rsp]
	lea	rdx, QWORD PTR slave_name$[rsp]
	mov	rcx, rax
	call	?strcpy@@YAPEADPEADPEBD@Z		; strcpy

; 280  : 	sn->size = 0;

	mov	rax, QWORD PTR sn$[rsp]
	mov	DWORD PTR [rax+32], 0

; 281  : 	sn->eof = 0;

	mov	rax, QWORD PTR sn$[rsp]
	mov	DWORD PTR [rax+36], 0

; 282  : 	sn->pos = 0;

	mov	rax, QWORD PTR sn$[rsp]
	mov	DWORD PTR [rax+40], 0

; 283  : 	sn->current = 0;

	mov	rax, QWORD PTR sn$[rsp]
	mov	DWORD PTR [rax+44], 0

; 284  : 	sn->flags = FS_FLAG_GENERAL;

	mov	rax, QWORD PTR sn$[rsp]
	mov	DWORD PTR [rax+48], 2

; 285  : 	sn->status = 0;

	mov	rax, QWORD PTR sn$[rsp]
	mov	DWORD PTR [rax+52], 0

; 286  : 	sn->open = 0;

	mov	rax, QWORD PTR sn$[rsp]
	mov	QWORD PTR [rax+64], 0

; 287  : 	sn->device = tty;

	mov	rax, QWORD PTR sn$[rsp]
	mov	rcx, QWORD PTR tty$[rsp]
	mov	QWORD PTR [rax+56], rcx

; 288  : 	sn->read = ttype_slave_read;

	mov	rax, QWORD PTR sn$[rsp]
	lea	rcx, OFFSET FLAT:?ttype_slave_read@@YAXPEAU_vfs_node_@@PEAEI@Z ; ttype_slave_read
	mov	QWORD PTR [rax+72], rcx

; 289  : 	sn->write = ttype_slave_write;

	mov	rax, QWORD PTR sn$[rsp]
	lea	rcx, OFFSET FLAT:?ttype_slave_write@@YAXPEAU_vfs_node_@@PEAEI@Z ; ttype_slave_write
	mov	QWORD PTR [rax+80], rcx

; 290  : 	sn->read_blk = 0;

	mov	rax, QWORD PTR sn$[rsp]
	mov	QWORD PTR [rax+88], 0

; 291  : 	sn->ioquery = 0;

	mov	rax, QWORD PTR sn$[rsp]
	mov	QWORD PTR [rax+96], 0

; 292  : 	vfs_mount (sname, sn);

	mov	rdx, QWORD PTR sn$[rsp]
	lea	rcx, QWORD PTR sname$[rsp]
	call	?vfs_mount@@YAXPEADPEAU_vfs_node_@@@Z	; vfs_mount

; 293  : 
; 294  : 	for (int i = 0; i < 32; i++) {

	mov	DWORD PTR i$1[rsp], 0
	jmp	SHORT $LN3@ttype_crea
$LN2@ttype_crea:
	mov	eax, DWORD PTR i$1[rsp]
	inc	eax
	mov	DWORD PTR i$1[rsp], eax
$LN3@ttype_crea:
	cmp	DWORD PTR i$1[rsp], 32			; 00000020H
	jge	SHORT $LN1@ttype_crea

; 295  : 		tty->m_path[i] = mname[i];

	movsxd	rax, DWORD PTR i$1[rsp]
	movsxd	rcx, DWORD PTR i$1[rsp]
	mov	rdx, QWORD PTR tty$[rsp]
	movzx	eax, BYTE PTR mname$[rsp+rax]
	mov	BYTE PTR [rdx+rcx+1], al

; 296  : 		tty->s_path[i] = sname[i];

	movsxd	rax, DWORD PTR i$1[rsp]
	movsxd	rcx, DWORD PTR i$1[rsp]
	mov	rdx, QWORD PTR tty$[rsp]
	movzx	eax, BYTE PTR sname$[rsp+rax]
	mov	BYTE PTR [rdx+rcx+33], al

; 297  : 	}

	jmp	SHORT $LN2@ttype_crea
$LN1@ttype_crea:

; 298  : 		
; 299  : 
; 300  : 	//! Allocate fd for master
; 301  : 	int m_fd = get_current_thread()->fd_current;

	call	?get_current_thread@@YAPEAU_thread_@@XZ	; get_current_thread
	mov	eax, DWORD PTR [rax+752]
	mov	DWORD PTR m_fd$[rsp], eax

; 302  : 	get_current_thread()->fd[m_fd] = mn;

	call	?get_current_thread@@YAPEAU_thread_@@XZ	; get_current_thread
	movsxd	rcx, DWORD PTR m_fd$[rsp]
	mov	rdx, QWORD PTR mn$[rsp]
	mov	QWORD PTR [rax+rcx*8+272], rdx

; 303  : 	get_current_thread()->fd_current++;

	call	?get_current_thread@@YAPEAU_thread_@@XZ	; get_current_thread
	add	rax, 752				; 000002f0H
	mov	QWORD PTR tv224[rsp], rax
	mov	rax, QWORD PTR tv224[rsp]
	mov	eax, DWORD PTR [rax]
	inc	eax
	mov	rcx, QWORD PTR tv224[rsp]
	mov	DWORD PTR [rcx], eax

; 304  : 
; 305  : 	//! Allocate fd for slave
; 306  : 	int s_fd = get_current_thread()->fd_current;

	call	?get_current_thread@@YAPEAU_thread_@@XZ	; get_current_thread
	mov	eax, DWORD PTR [rax+752]
	mov	DWORD PTR s_fd$[rsp], eax

; 307  : 	get_current_thread()->fd[s_fd] = sn;

	call	?get_current_thread@@YAPEAU_thread_@@XZ	; get_current_thread
	movsxd	rcx, DWORD PTR s_fd$[rsp]
	mov	rdx, QWORD PTR sn$[rsp]
	mov	QWORD PTR [rax+rcx*8+272], rdx

; 308  : 	get_current_thread()->fd_current++;

	call	?get_current_thread@@YAPEAU_thread_@@XZ	; get_current_thread
	add	rax, 752				; 000002f0H
	mov	QWORD PTR tv235[rsp], rax
	mov	rax, QWORD PTR tv235[rsp]
	mov	eax, DWORD PTR [rax]
	inc	eax
	mov	rcx, QWORD PTR tv235[rsp]
	mov	DWORD PTR [rcx], eax

; 309  : 
; 310  : 	get_current_thread()->master_fd = m_fd;

	call	?get_current_thread@@YAPEAU_thread_@@XZ	; get_current_thread
	movzx	ecx, BYTE PTR m_fd$[rsp]
	mov	BYTE PTR [rax+756], cl

; 311  : 	get_current_thread()->slave_fd = s_fd;

	call	?get_current_thread@@YAPEAU_thread_@@XZ	; get_current_thread
	movzx	ecx, BYTE PTR s_fd$[rsp]
	mov	BYTE PTR [rax+757], cl

; 312  : 
; 313  : 	get_current_thread()->fd[1] = mn;

	call	?get_current_thread@@YAPEAU_thread_@@XZ	; get_current_thread
	mov	ecx, 8
	imul	rcx, 1
	mov	rdx, QWORD PTR mn$[rsp]
	mov	QWORD PTR [rax+rcx+272], rdx

; 314  : 	get_current_thread()->fd[2] = mn;

	call	?get_current_thread@@YAPEAU_thread_@@XZ	; get_current_thread
	mov	ecx, 8
	imul	rcx, 2
	mov	rdx, QWORD PTR mn$[rsp]
	mov	QWORD PTR [rax+rcx+272], rdx

; 315  : 
; 316  : 	ttype_insert (tty);

	mov	rcx, QWORD PTR tty$[rsp]
	call	?ttype_insert@@YAXPEAU_tele_type_@@@Z	; ttype_insert

; 317  : 	master_count++;

	mov	eax, DWORD PTR ?master_count@@3HA	; master_count
	inc	eax
	mov	DWORD PTR ?master_count@@3HA, eax	; master_count

; 318  : 	slave_count++;

	mov	eax, DWORD PTR ?slave_count@@3HA	; slave_count
	inc	eax
	mov	DWORD PTR ?slave_count@@3HA, eax	; slave_count

; 319  : 	*master_fd = m_fd;

	mov	rax, QWORD PTR master_fd$[rsp]
	mov	ecx, DWORD PTR m_fd$[rsp]
	mov	DWORD PTR [rax], ecx

; 320  : 	*slave_fd = s_fd;

	mov	rax, QWORD PTR slave_fd$[rsp]
	mov	ecx, DWORD PTR s_fd$[rsp]
	mov	DWORD PTR [rax], ecx

; 321  : }

	add	rsp, 184				; 000000b8H
	ret	0
?ttype_create@@YAXPEAH0@Z ENDP				; ttype_create
_TEXT	ENDS
END
