; Listing generated by Microsoft (R) Optimizing Compiler Version 17.00.50727.1 

include listing.inc

INCLUDELIB LIBCMT
INCLUDELIB OLDNAMES

PUBLIC	?root_cr3@@3PEA_KEA				; root_cr3
_BSS	SEGMENT
?root_cr3@@3PEA_KEA DQ 01H DUP (?)			; root_cr3
_BSS	ENDS
PUBLIC	?pml4_index@@YA_K_K@Z				; pml4_index
PUBLIC	?pdp_index@@YA_K_K@Z				; pdp_index
PUBLIC	?pd_index@@YA_K_K@Z				; pd_index
PUBLIC	?pt_index@@YA_K_K@Z				; pt_index
PUBLIC	?p_index@@YA_K_K@Z				; p_index
PUBLIC	?vmmngr_x86_64_init@@YAXXZ			; vmmngr_x86_64_init
PUBLIC	?map_page@@YA_N_K0E@Z				; map_page
PUBLIC	?map_page_ex@@YA_NPEA_K_K1E@Z			; map_page_ex
PUBLIC	?unmap_page_ex@@YAXPEA_K_K_N@Z			; unmap_page_ex
PUBLIC	?create_user_address_space@@YAPEA_KXZ		; create_user_address_space
PUBLIC	?unmap_page@@YAX_K@Z				; unmap_page
PUBLIC	?get_physical_address@@YAPEA_K_K@Z		; get_physical_address
PUBLIC	?get_free_page@@YAPEA_K_K_N@Z			; get_free_page
PUBLIC	?vmmngr_get_kernel_pml4@@YAPEA_KXZ		; vmmngr_get_kernel_pml4
PUBLIC	?vmmngr_free_pages@@YAX_K_N0@Z			; vmmngr_free_pages
EXTRN	?pmmngr_alloc@@YAPEAXXZ:PROC			; pmmngr_alloc
EXTRN	?pmmngr_free@@YAXPEAX@Z:PROC			; pmmngr_free
EXTRN	?pmmngr_move_higher_half@@YAXXZ:PROC		; pmmngr_move_higher_half
EXTRN	?p2v@@YA_K_K@Z:PROC				; p2v
EXTRN	x64_mfence:PROC
EXTRN	x64_read_cr3:PROC
EXTRN	x64_write_cr3:PROC
EXTRN	flush_tlb:PROC
EXTRN	?memset@@YAXPEAXEI@Z:PROC			; memset
pdata	SEGMENT
$pdata$?vmmngr_x86_64_init@@YAXXZ DD imagerel $LN12
	DD	imagerel $LN12+379
	DD	imagerel $unwind$?vmmngr_x86_64_init@@YAXXZ
$pdata$?map_page@@YA_N_K0E@Z DD imagerel $LN7
	DD	imagerel $LN7+619
	DD	imagerel $unwind$?map_page@@YA_N_K0E@Z
$pdata$?map_page_ex@@YA_NPEA_K_K1E@Z DD imagerel $LN9
	DD	imagerel $LN9+639
	DD	imagerel $unwind$?map_page_ex@@YA_NPEA_K_K1E@Z
$pdata$?unmap_page_ex@@YAXPEA_K_K_N@Z DD imagerel $LN5
	DD	imagerel $LN5+246
	DD	imagerel $unwind$?unmap_page_ex@@YAXPEA_K_K_N@Z
$pdata$?create_user_address_space@@YAPEA_KXZ DD imagerel $LN9
	DD	imagerel $LN9+321
	DD	imagerel $unwind$?create_user_address_space@@YAPEA_KXZ
$pdata$?unmap_page@@YAX_K@Z DD imagerel $LN5
	DD	imagerel $LN5+227
	DD	imagerel $unwind$?unmap_page@@YAX_K@Z
$pdata$?get_physical_address@@YAPEA_K_K@Z DD imagerel $LN4
	DD	imagerel $LN4+171
	DD	imagerel $unwind$?get_physical_address@@YAPEA_K_K@Z
$pdata$?get_free_page@@YAPEA_K_K_N@Z DD imagerel $LN11
	DD	imagerel $LN11+378
	DD	imagerel $unwind$?get_free_page@@YAPEA_K_K_N@Z
$pdata$?vmmngr_free_pages@@YAX_K_N0@Z DD imagerel $LN8
	DD	imagerel $LN8+340
	DD	imagerel $unwind$?vmmngr_free_pages@@YAX_K_N0@Z
$pdata$?clear@@YAXPEAX@Z DD imagerel ?clear@@YAXPEAX@Z
	DD	imagerel ?clear@@YAXPEAX@Z+74
	DD	imagerel $unwind$?clear@@YAXPEAX@Z
pdata	ENDS
xdata	SEGMENT
$unwind$?vmmngr_x86_64_init@@YAXXZ DD 010401H
	DD	0c204H
$unwind$?map_page@@YA_N_K0E@Z DD 011301H
	DD	0e213H
$unwind$?map_page_ex@@YA_NPEA_K_K1E@Z DD 011801H
	DD	0e218H
$unwind$?unmap_page_ex@@YAXPEA_K_K_N@Z DD 011301H
	DD	0a213H
$unwind$?create_user_address_space@@YAPEA_KXZ DD 010401H
	DD	08204H
$unwind$?unmap_page@@YAX_K@Z DD 010901H
	DD	0a209H
$unwind$?get_physical_address@@YAPEA_K_K@Z DD 010901H
	DD	0a209H
$unwind$?get_free_page@@YAPEA_K_K_N@Z DD 010d01H
	DD	0c20dH
$unwind$?vmmngr_free_pages@@YAX_K_N0@Z DD 011201H
	DD	0c212H
$unwind$?clear@@YAXPEAX@Z DD 010901H
	DD	02209H
xdata	ENDS
; Function compile flags: /Odtpy
; File e:\xeneva project\xeneva\aurora\aurora\arch\x86_64\vmmngr.cpp
_TEXT	SEGMENT
n$1 = 0
t$ = 8
addr$ = 32
?clear@@YAXPEAX@Z PROC					; clear

; 75   : static void clear(void* addr){

	mov	QWORD PTR [rsp+8], rcx
	sub	rsp, 24

; 76   : 	uint64_t* t = (uint64_t*)addr;

	mov	rax, QWORD PTR addr$[rsp]
	mov	QWORD PTR t$[rsp], rax

; 77   : 	for (size_t n = 0; n < 4096 / sizeof(uint64_t); ++n){

	mov	QWORD PTR n$1[rsp], 0
	jmp	SHORT $LN3@clear
$LN2@clear:
	mov	rax, QWORD PTR n$1[rsp]
	inc	rax
	mov	QWORD PTR n$1[rsp], rax
$LN3@clear:
	cmp	QWORD PTR n$1[rsp], 512			; 00000200H
	jae	SHORT $LN1@clear

; 78   : 		t[n] = 0;

	mov	rax, QWORD PTR t$[rsp]
	mov	rcx, QWORD PTR n$1[rsp]
	mov	QWORD PTR [rax+rcx*8], 0

; 79   : 	}

	jmp	SHORT $LN2@clear
$LN1@clear:

; 80   : }

	add	rsp, 24
	ret	0
?clear@@YAXPEAX@Z ENDP					; clear
_TEXT	ENDS
; Function compile flags: /Odtpy
; File e:\xeneva project\xeneva\aurora\aurora\arch\x86_64\vmmngr.cpp
_TEXT	SEGMENT
i$1 = 32
i1$ = 36
pt$2 = 40
page$3 = 48
tv68 = 56
pml4_$4 = 64
pdpt$5 = 72
pd$6 = 80
virt_addr$ = 112
free_physical$ = 120
s$ = 128
?vmmngr_free_pages@@YAX_K_N0@Z PROC			; vmmngr_free_pages

; 224  : void vmmngr_free_pages(uint64_t virt_addr, bool free_physical, size_t s){

$LN8:
	mov	QWORD PTR [rsp+24], r8
	mov	BYTE PTR [rsp+16], dl
	mov	QWORD PTR [rsp+8], rcx
	sub	rsp, 104				; 00000068H

; 225  : 	
; 226  : 	const long i1 = pml4_index(virt_addr);

	mov	rcx, QWORD PTR virt_addr$[rsp]
	call	?pml4_index@@YA_K_K@Z			; pml4_index
	mov	DWORD PTR i1$[rsp], eax

; 227  : 
; 228  : 	for (int i = 0; i < s /  4096; i++) {

	mov	DWORD PTR i$1[rsp], 0
	jmp	SHORT $LN5@vmmngr_fre
$LN4@vmmngr_fre:
	mov	eax, DWORD PTR i$1[rsp]
	inc	eax
	mov	DWORD PTR i$1[rsp], eax
$LN5@vmmngr_fre:
	movsxd	rax, DWORD PTR i$1[rsp]
	mov	QWORD PTR tv68[rsp], rax
	xor	edx, edx
	mov	rax, QWORD PTR s$[rsp]
	mov	ecx, 4096				; 00001000H
	div	rcx
	mov	rcx, QWORD PTR tv68[rsp]
	cmp	rcx, rax
	jae	$LN3@vmmngr_fre

; 229  : 		uint64_t *pml4_ = (uint64_t*)x64_read_cr3();

	call	x64_read_cr3
	mov	QWORD PTR pml4_$4[rsp], rax

; 230  : 		uint64_t *pdpt = (uint64_t*)(pml4_[pml4_index(virt_addr)] & ~(4096 - 1));

	mov	rcx, QWORD PTR virt_addr$[rsp]
	call	?pml4_index@@YA_K_K@Z			; pml4_index
	mov	rcx, QWORD PTR pml4_$4[rsp]
	mov	rax, QWORD PTR [rcx+rax*8]
	and	rax, -4096				; fffffffffffff000H
	mov	QWORD PTR pdpt$5[rsp], rax

; 231  : 		uint64_t *pd = (uint64_t*)(pdpt[pdp_index(virt_addr)] & ~(4096 - 1));

	mov	rcx, QWORD PTR virt_addr$[rsp]
	call	?pdp_index@@YA_K_K@Z			; pdp_index
	mov	rcx, QWORD PTR pdpt$5[rsp]
	mov	rax, QWORD PTR [rcx+rax*8]
	and	rax, -4096				; fffffffffffff000H
	mov	QWORD PTR pd$6[rsp], rax

; 232  : 		uint64_t *pt = (uint64_t*)(pd[pd_index(virt_addr)] & ~(4096 - 1));

	mov	rcx, QWORD PTR virt_addr$[rsp]
	call	?pd_index@@YA_K_K@Z			; pd_index
	mov	rcx, QWORD PTR pd$6[rsp]
	mov	rax, QWORD PTR [rcx+rax*8]
	and	rax, -4096				; fffffffffffff000H
	mov	QWORD PTR pt$2[rsp], rax

; 233  : 		uint64_t *page = (uint64_t*)(pt[pt_index(virt_addr)] & ~(4096 - 1));

	mov	rcx, QWORD PTR virt_addr$[rsp]
	call	?pt_index@@YA_K_K@Z			; pt_index
	mov	rcx, QWORD PTR pt$2[rsp]
	mov	rax, QWORD PTR [rcx+rax*8]
	and	rax, -4096				; fffffffffffff000H
	mov	QWORD PTR page$3[rsp], rax

; 234  : 
; 235  : 		if ((pt[pt_index(virt_addr)] & PAGING_PRESENT) != 0) {

	mov	rcx, QWORD PTR virt_addr$[rsp]
	call	?pt_index@@YA_K_K@Z			; pt_index
	mov	rcx, QWORD PTR pt$2[rsp]
	mov	rax, QWORD PTR [rcx+rax*8]
	and	rax, 1
	test	rax, rax
	je	SHORT $LN2@vmmngr_fre

; 236  : 			pt[pt_index(virt_addr)] = 0;

	mov	rcx, QWORD PTR virt_addr$[rsp]
	call	?pt_index@@YA_K_K@Z			; pt_index
	mov	rcx, QWORD PTR pt$2[rsp]
	mov	QWORD PTR [rcx+rax*8], 0
$LN2@vmmngr_fre:

; 237  : 		}
; 238  : 
; 239  : 		if (free_physical && page != 0) 

	movzx	eax, BYTE PTR free_physical$[rsp]
	test	eax, eax
	je	SHORT $LN1@vmmngr_fre
	cmp	QWORD PTR page$3[rsp], 0
	je	SHORT $LN1@vmmngr_fre

; 240  : 			pmmngr_free(page);

	mov	rcx, QWORD PTR page$3[rsp]
	call	?pmmngr_free@@YAXPEAX@Z			; pmmngr_free
$LN1@vmmngr_fre:

; 241  : 
; 242  : 		virt_addr = virt_addr + i * 4096;

	mov	eax, DWORD PTR i$1[rsp]
	imul	eax, 4096				; 00001000H
	cdqe
	mov	rcx, QWORD PTR virt_addr$[rsp]
	add	rcx, rax
	mov	rax, rcx
	mov	QWORD PTR virt_addr$[rsp], rax

; 243  : 	}

	jmp	$LN4@vmmngr_fre
$LN3@vmmngr_fre:

; 244  : 
; 245  : }

	add	rsp, 104				; 00000068H
	ret	0
?vmmngr_free_pages@@YAX_K_N0@Z ENDP			; vmmngr_free_pages
_TEXT	ENDS
; Function compile flags: /Odtpy
; File e:\xeneva project\xeneva\aurora\aurora\arch\x86_64\vmmngr.cpp
_TEXT	SEGMENT
?vmmngr_get_kernel_pml4@@YAPEA_KXZ PROC			; vmmngr_get_kernel_pml4

; 390  : 	return root_cr3;

	mov	rax, QWORD PTR ?root_cr3@@3PEA_KEA	; root_cr3

; 391  : }

	ret	0
?vmmngr_get_kernel_pml4@@YAPEA_KXZ ENDP			; vmmngr_get_kernel_pml4
_TEXT	ENDS
; Function compile flags: /Odtpy
; File e:\xeneva project\xeneva\aurora\aurora\arch\x86_64\vmmngr.cpp
_TEXT	SEGMENT
start$ = 32
pml4$ = 40
pdpt$1 = 48
pd$2 = 56
pt$3 = 64
page$ = 72
end$ = 80
s$ = 112
user$ = 120
?get_free_page@@YAPEA_K_K_N@Z PROC			; get_free_page

; 354  : uint64_t* get_free_page (size_t s, bool user) {

$LN11:
	mov	BYTE PTR [rsp+16], dl
	mov	QWORD PTR [rsp+8], rcx
	sub	rsp, 104				; 00000068H

; 355  : 	uint64_t* page = 0;

	mov	QWORD PTR page$[rsp], 0

; 356  : 	uint64_t start = 0;

	mov	QWORD PTR start$[rsp], 0

; 357  : 	if (user)

	movzx	eax, BYTE PTR user$[rsp]
	test	eax, eax
	je	SHORT $LN8@get_free_p

; 358  : 		start = USER_BASE_ADDRESS;

	mov	rax, 2199023255552			; 0000020000000000H
	mov	QWORD PTR start$[rsp], rax

; 359  : 	else

	jmp	SHORT $LN7@get_free_p
$LN8@get_free_p:

; 360  : 		start = KERNEL_BASE_ADDRESS;

	mov	rax, -35184372088832			; ffffe00000000000H
	mov	QWORD PTR start$[rsp], rax
$LN7@get_free_p:

; 361  : 
; 362  : 	uint64_t* end = 0;

	mov	QWORD PTR end$[rsp], 0

; 363  : 	uint64_t *pml4 = (uint64_t*)p2v(x64_read_cr3());

	call	x64_read_cr3
	mov	rcx, rax
	call	?p2v@@YA_K_K@Z				; p2v
	mov	QWORD PTR pml4$[rsp], rax
$LN6@get_free_p:

; 364  : 	
; 365  : 	/* Walk through every page tables */
; 366  : 	for (;;) {
; 367  : 		if (!(pml4[pml4_index(start)] & PAGING_PRESENT))

	mov	rcx, QWORD PTR start$[rsp]
	call	?pml4_index@@YA_K_K@Z			; pml4_index
	mov	rcx, QWORD PTR pml4$[rsp]
	mov	rax, QWORD PTR [rcx+rax*8]
	and	rax, 1
	test	rax, rax
	jne	SHORT $LN4@get_free_p

; 368  : 			return (uint64_t*)start;

	mov	rax, QWORD PTR start$[rsp]
	jmp	$LN9@get_free_p
$LN4@get_free_p:

; 369  : 
; 370  : 		uint64_t *pdpt = (uint64_t*)(p2v(pml4[pml4_index(start)]) & ~(4096 - 1));

	mov	rcx, QWORD PTR start$[rsp]
	call	?pml4_index@@YA_K_K@Z			; pml4_index
	mov	rcx, QWORD PTR pml4$[rsp]
	mov	rcx, QWORD PTR [rcx+rax*8]
	call	?p2v@@YA_K_K@Z				; p2v
	and	rax, -4096				; fffffffffffff000H
	mov	QWORD PTR pdpt$1[rsp], rax

; 371  : 		if (!(pdpt[pdp_index(start)] & PAGING_PRESENT))

	mov	rcx, QWORD PTR start$[rsp]
	call	?pdp_index@@YA_K_K@Z			; pdp_index
	mov	rcx, QWORD PTR pdpt$1[rsp]
	mov	rax, QWORD PTR [rcx+rax*8]
	and	rax, 1
	test	rax, rax
	jne	SHORT $LN3@get_free_p

; 372  : 			return (uint64_t*)start;

	mov	rax, QWORD PTR start$[rsp]
	jmp	$LN9@get_free_p
$LN3@get_free_p:

; 373  : 
; 374  : 		uint64_t *pd = (uint64_t*)(p2v(pdpt[pdp_index(start)]) & ~(4096 - 1));

	mov	rcx, QWORD PTR start$[rsp]
	call	?pdp_index@@YA_K_K@Z			; pdp_index
	mov	rcx, QWORD PTR pdpt$1[rsp]
	mov	rcx, QWORD PTR [rcx+rax*8]
	call	?p2v@@YA_K_K@Z				; p2v
	and	rax, -4096				; fffffffffffff000H
	mov	QWORD PTR pd$2[rsp], rax

; 375  : 		if (!(pd[pd_index(start)] & PAGING_PRESENT))

	mov	rcx, QWORD PTR start$[rsp]
	call	?pd_index@@YA_K_K@Z			; pd_index
	mov	rcx, QWORD PTR pd$2[rsp]
	mov	rax, QWORD PTR [rcx+rax*8]
	and	rax, 1
	test	rax, rax
	jne	SHORT $LN2@get_free_p

; 376  : 			return (uint64_t*)start;

	mov	rax, QWORD PTR start$[rsp]
	jmp	SHORT $LN9@get_free_p
$LN2@get_free_p:

; 377  : 
; 378  : 		uint64_t *pt = (uint64_t*)(p2v(pd[pd_index(start)]) & ~(4096 - 1));

	mov	rcx, QWORD PTR start$[rsp]
	call	?pd_index@@YA_K_K@Z			; pd_index
	mov	rcx, QWORD PTR pd$2[rsp]
	mov	rcx, QWORD PTR [rcx+rax*8]
	call	?p2v@@YA_K_K@Z				; p2v
	and	rax, -4096				; fffffffffffff000H
	mov	QWORD PTR pt$3[rsp], rax

; 379  : 
; 380  : 		if (!(pt[pt_index(start)] & PAGING_PRESENT))

	mov	rcx, QWORD PTR start$[rsp]
	call	?pt_index@@YA_K_K@Z			; pt_index
	mov	rcx, QWORD PTR pt$3[rsp]
	mov	rax, QWORD PTR [rcx+rax*8]
	and	rax, 1
	test	rax, rax
	jne	SHORT $LN1@get_free_p

; 381  : 			return (uint64_t*)start;

	mov	rax, QWORD PTR start$[rsp]
	jmp	SHORT $LN9@get_free_p
$LN1@get_free_p:

; 382  : 		
; 383  : 		start += 4096;

	mov	rax, QWORD PTR start$[rsp]
	add	rax, 4096				; 00001000H
	mov	QWORD PTR start$[rsp], rax

; 384  : 	}

	jmp	$LN6@get_free_p

; 385  : 	return 0;

	xor	eax, eax
$LN9@get_free_p:

; 386  : }

	add	rsp, 104				; 00000068H
	ret	0
?get_free_page@@YAPEA_K_K_N@Z ENDP			; get_free_page
_TEXT	ENDS
; Function compile flags: /Odtpy
; File e:\xeneva project\xeneva\aurora\aurora\arch\x86_64\vmmngr.cpp
_TEXT	SEGMENT
i1$ = 32
page$ = 40
pml4$ = 48
pdpt$ = 56
pd$ = 64
pt$ = 72
virt_addr$ = 96
?get_physical_address@@YAPEA_K_K@Z PROC			; get_physical_address

; 249  : uint64_t* get_physical_address (uint64_t virt_addr) {

$LN4:
	mov	QWORD PTR [rsp+8], rcx
	sub	rsp, 88					; 00000058H

; 250  : 	const long i1 = pml4_index(virt_addr);

	mov	rcx, QWORD PTR virt_addr$[rsp]
	call	?pml4_index@@YA_K_K@Z			; pml4_index
	mov	DWORD PTR i1$[rsp], eax

; 251  : 
; 252  : 	uint64_t *pml4 = (uint64_t*)x64_read_cr3();

	call	x64_read_cr3
	mov	QWORD PTR pml4$[rsp], rax

; 253  : 	uint64_t *pdpt = (uint64_t*)(pml4[pml4_index(virt_addr)] & ~(4096 - 1));

	mov	rcx, QWORD PTR virt_addr$[rsp]
	call	?pml4_index@@YA_K_K@Z			; pml4_index
	mov	rcx, QWORD PTR pml4$[rsp]
	mov	rax, QWORD PTR [rcx+rax*8]
	and	rax, -4096				; fffffffffffff000H
	mov	QWORD PTR pdpt$[rsp], rax

; 254  : 	uint64_t *pd = (uint64_t*)(pdpt[pdp_index(virt_addr)] & ~(4096 - 1));

	mov	rcx, QWORD PTR virt_addr$[rsp]
	call	?pdp_index@@YA_K_K@Z			; pdp_index
	mov	rcx, QWORD PTR pdpt$[rsp]
	mov	rax, QWORD PTR [rcx+rax*8]
	and	rax, -4096				; fffffffffffff000H
	mov	QWORD PTR pd$[rsp], rax

; 255  : 	uint64_t *pt = (uint64_t*)(pd[pd_index(virt_addr)] & ~(4096 - 1));

	mov	rcx, QWORD PTR virt_addr$[rsp]
	call	?pd_index@@YA_K_K@Z			; pd_index
	mov	rcx, QWORD PTR pd$[rsp]
	mov	rax, QWORD PTR [rcx+rax*8]
	and	rax, -4096				; fffffffffffff000H
	mov	QWORD PTR pt$[rsp], rax

; 256  : 	uint64_t *page = (uint64_t*)(pt[pt_index(virt_addr)] & ~(4096 - 1));

	mov	rcx, QWORD PTR virt_addr$[rsp]
	call	?pt_index@@YA_K_K@Z			; pt_index
	mov	rcx, QWORD PTR pt$[rsp]
	mov	rax, QWORD PTR [rcx+rax*8]
	and	rax, -4096				; fffffffffffff000H
	mov	QWORD PTR page$[rsp], rax

; 257  : 
; 258  : 	if (page != NULL)

	cmp	QWORD PTR page$[rsp], 0
	je	SHORT $LN1@get_physic

; 259  : 		return page;

	mov	rax, QWORD PTR page$[rsp]
$LN1@get_physic:

; 260  : }

	add	rsp, 88					; 00000058H
	ret	0
?get_physical_address@@YAPEA_K_K@Z ENDP			; get_physical_address
_TEXT	ENDS
; Function compile flags: /Odtpy
; File e:\xeneva project\xeneva\aurora\aurora\arch\x86_64\vmmngr.cpp
_TEXT	SEGMENT
i1$ = 32
pt$ = 40
page$ = 48
pml4_$ = 56
pdpt$ = 64
pd$ = 72
virt_addr$ = 96
?unmap_page@@YAX_K@Z PROC				; unmap_page

; 185  : void unmap_page(uint64_t virt_addr){

$LN5:
	mov	QWORD PTR [rsp+8], rcx
	sub	rsp, 88					; 00000058H

; 186  : 	
; 187  : 	const long i1 = pml4_index(virt_addr);

	mov	rcx, QWORD PTR virt_addr$[rsp]
	call	?pml4_index@@YA_K_K@Z			; pml4_index
	mov	DWORD PTR i1$[rsp], eax

; 188  : 
; 189  : 	uint64_t *pml4_ = (uint64_t*)x64_read_cr3();

	call	x64_read_cr3
	mov	QWORD PTR pml4_$[rsp], rax

; 190  : 	uint64_t *pdpt = (uint64_t*)(pml4_[pml4_index(virt_addr)] & ~(4096 - 1));

	mov	rcx, QWORD PTR virt_addr$[rsp]
	call	?pml4_index@@YA_K_K@Z			; pml4_index
	mov	rcx, QWORD PTR pml4_$[rsp]
	mov	rax, QWORD PTR [rcx+rax*8]
	and	rax, -4096				; fffffffffffff000H
	mov	QWORD PTR pdpt$[rsp], rax

; 191  : 	uint64_t *pd = (uint64_t*)(pdpt[pdp_index(virt_addr)] & ~(4096 - 1));

	mov	rcx, QWORD PTR virt_addr$[rsp]
	call	?pdp_index@@YA_K_K@Z			; pdp_index
	mov	rcx, QWORD PTR pdpt$[rsp]
	mov	rax, QWORD PTR [rcx+rax*8]
	and	rax, -4096				; fffffffffffff000H
	mov	QWORD PTR pd$[rsp], rax

; 192  : 	uint64_t *pt = (uint64_t*)(pd[pd_index(virt_addr)] & ~(4096 - 1));

	mov	rcx, QWORD PTR virt_addr$[rsp]
	call	?pd_index@@YA_K_K@Z			; pd_index
	mov	rcx, QWORD PTR pd$[rsp]
	mov	rax, QWORD PTR [rcx+rax*8]
	and	rax, -4096				; fffffffffffff000H
	mov	QWORD PTR pt$[rsp], rax

; 193  : 	uint64_t *page = (uint64_t*)(pt[pt_index(virt_addr)] & ~(4096 - 1));

	mov	rcx, QWORD PTR virt_addr$[rsp]
	call	?pt_index@@YA_K_K@Z			; pt_index
	mov	rcx, QWORD PTR pt$[rsp]
	mov	rax, QWORD PTR [rcx+rax*8]
	and	rax, -4096				; fffffffffffff000H
	mov	QWORD PTR page$[rsp], rax

; 194  : 	
; 195  : 	if ((pt[pt_index(virt_addr)] & PAGING_PRESENT) != 0) {

	mov	rcx, QWORD PTR virt_addr$[rsp]
	call	?pt_index@@YA_K_K@Z			; pt_index
	mov	rcx, QWORD PTR pt$[rsp]
	mov	rax, QWORD PTR [rcx+rax*8]
	and	rax, 1
	test	rax, rax
	je	SHORT $LN2@unmap_page

; 196  : 		
; 197  : 		pt[pt_index(virt_addr)] = 0;

	mov	rcx, QWORD PTR virt_addr$[rsp]
	call	?pt_index@@YA_K_K@Z			; pt_index
	mov	rcx, QWORD PTR pt$[rsp]
	mov	QWORD PTR [rcx+rax*8], 0
$LN2@unmap_page:

; 198  : 	}
; 199  : 	if (page != 0)

	cmp	QWORD PTR page$[rsp], 0
	je	SHORT $LN1@unmap_page

; 200  : 		pmmngr_free(page);

	mov	rcx, QWORD PTR page$[rsp]
	call	?pmmngr_free@@YAXPEAX@Z			; pmmngr_free
$LN1@unmap_page:

; 201  : }

	add	rsp, 88					; 00000058H
	ret	0
?unmap_page@@YAX_K@Z ENDP				; unmap_page
_TEXT	ENDS
; Function compile flags: /Odtpy
; File e:\xeneva project\xeneva\aurora\aurora\arch\x86_64\vmmngr.cpp
_TEXT	SEGMENT
i$1 = 32
new_cr3$ = 40
cr3$ = 48
?create_user_address_space@@YAPEA_KXZ PROC		; create_user_address_space

; 324  : uint64_t *create_user_address_space (){

$LN9:
	sub	rsp, 72					; 00000048H

; 325  : 	
; 326  : 	uint64_t *cr3 = (uint64_t*)root_cr3; //x64_read_cr3();

	mov	rax, QWORD PTR ?root_cr3@@3PEA_KEA	; root_cr3
	mov	QWORD PTR cr3$[rsp], rax

; 327  : 	uint64_t *new_cr3 = (uint64_t*)p2v((size_t)pmmngr_alloc());

	call	?pmmngr_alloc@@YAPEAXXZ			; pmmngr_alloc
	mov	rcx, rax
	call	?p2v@@YA_K_K@Z				; p2v
	mov	QWORD PTR new_cr3$[rsp], rax

; 328  : 	memset(new_cr3,0,4096);

	mov	r8d, 4096				; 00001000H
	xor	edx, edx
	mov	rcx, QWORD PTR new_cr3$[rsp]
	call	?memset@@YAXPEAXEI@Z			; memset

; 329  : 
; 330  : 	//! For now, copy the 4 GiB identity mapping from old pml4
; 331  : 	//! but later, we should avoid this by mapping only those physical
; 332  : 	//! addresses that are needed, like physical addresses allocated for 
; 333  : 	//! paging tables creations and memory mapped I/O which are not
; 334  : 	//! virtually allocated in higher half sections
; 335  : 	new_cr3[0] = cr3[0];

	mov	eax, 8
	imul	rax, 0
	mov	ecx, 8
	imul	rcx, 0
	mov	rdx, QWORD PTR new_cr3$[rsp]
	mov	r8, QWORD PTR cr3$[rsp]
	mov	rax, QWORD PTR [r8+rax]
	mov	QWORD PTR [rdx+rcx], rax

; 336  : 	new_cr3[1] = cr3[1];

	mov	eax, 8
	imul	rax, 1
	mov	ecx, 8
	imul	rcx, 1
	mov	rdx, QWORD PTR new_cr3$[rsp]
	mov	r8, QWORD PTR cr3$[rsp]
	mov	rax, QWORD PTR [r8+rax]
	mov	QWORD PTR [rdx+rcx], rax

; 337  : 	new_cr3[2] = cr3[2];

	mov	eax, 8
	imul	rax, 2
	mov	ecx, 8
	imul	rcx, 2
	mov	rdx, QWORD PTR new_cr3$[rsp]
	mov	r8, QWORD PTR cr3$[rsp]
	mov	rax, QWORD PTR [r8+rax]
	mov	QWORD PTR [rdx+rcx], rax

; 338  : 	new_cr3[3] = cr3[3];

	mov	eax, 8
	imul	rax, 3
	mov	ecx, 8
	imul	rcx, 3
	mov	rdx, QWORD PTR new_cr3$[rsp]
	mov	r8, QWORD PTR cr3$[rsp]
	mov	rax, QWORD PTR [r8+rax]
	mov	QWORD PTR [rdx+rcx], rax

; 339  : 
; 340  : 	//! Copy Kernel's Higher Half section
; 341  : 	for (int i = 0; i < 512; i++) {

	mov	DWORD PTR i$1[rsp], 0
	jmp	SHORT $LN6@create_use
$LN5@create_use:
	mov	eax, DWORD PTR i$1[rsp]
	inc	eax
	mov	DWORD PTR i$1[rsp], eax
$LN6@create_use:
	cmp	DWORD PTR i$1[rsp], 512			; 00000200H
	jge	SHORT $LN4@create_use

; 342  : 		if (i < 256)

	cmp	DWORD PTR i$1[rsp], 256			; 00000100H
	jge	SHORT $LN3@create_use

; 343  : 			continue;

	jmp	SHORT $LN5@create_use
$LN3@create_use:

; 344  : 		if ((cr3[i] & PAGING_PRESENT))

	movsxd	rax, DWORD PTR i$1[rsp]
	mov	rcx, QWORD PTR cr3$[rsp]
	mov	rax, QWORD PTR [rcx+rax*8]
	and	rax, 1
	test	rax, rax
	je	SHORT $LN2@create_use

; 345  : 			new_cr3[i] = cr3[i];

	movsxd	rax, DWORD PTR i$1[rsp]
	movsxd	rcx, DWORD PTR i$1[rsp]
	mov	rdx, QWORD PTR new_cr3$[rsp]
	mov	r8, QWORD PTR cr3$[rsp]
	mov	rax, QWORD PTR [r8+rax*8]
	mov	QWORD PTR [rdx+rcx*8], rax

; 346  : 		else

	jmp	SHORT $LN1@create_use
$LN2@create_use:

; 347  : 			new_cr3[i] = 0;

	movsxd	rax, DWORD PTR i$1[rsp]
	mov	rcx, QWORD PTR new_cr3$[rsp]
	mov	QWORD PTR [rcx+rax*8], 0
$LN1@create_use:

; 348  : 	}

	jmp	SHORT $LN5@create_use
$LN4@create_use:

; 349  : 
; 350  : 	return new_cr3;

	mov	rax, QWORD PTR new_cr3$[rsp]

; 351  : }

	add	rsp, 72					; 00000048H
	ret	0
?create_user_address_space@@YAPEA_KXZ ENDP		; create_user_address_space
_TEXT	ENDS
; Function compile flags: /Odtpy
; File e:\xeneva project\xeneva\aurora\aurora\arch\x86_64\vmmngr.cpp
_TEXT	SEGMENT
i1$ = 32
pt$ = 40
page$ = 48
pml4_$ = 56
pdpt$ = 64
pd$ = 72
cr3$ = 96
virt_addr$ = 104
free_physical$ = 112
?unmap_page_ex@@YAXPEA_K_K_N@Z PROC			; unmap_page_ex

; 204  : void unmap_page_ex(uint64_t* cr3, uint64_t virt_addr, bool free_physical){

$LN5:
	mov	BYTE PTR [rsp+24], r8b
	mov	QWORD PTR [rsp+16], rdx
	mov	QWORD PTR [rsp+8], rcx
	sub	rsp, 88					; 00000058H

; 205  : 	
; 206  : 	const long i1 = pml4_index(virt_addr);

	mov	rcx, QWORD PTR virt_addr$[rsp]
	call	?pml4_index@@YA_K_K@Z			; pml4_index
	mov	DWORD PTR i1$[rsp], eax

; 207  : 
; 208  : 	uint64_t *pml4_ = cr3;

	mov	rax, QWORD PTR cr3$[rsp]
	mov	QWORD PTR pml4_$[rsp], rax

; 209  : 	uint64_t *pdpt = (uint64_t*)(pml4_[pml4_index(virt_addr)] & ~(4096 - 1));

	mov	rcx, QWORD PTR virt_addr$[rsp]
	call	?pml4_index@@YA_K_K@Z			; pml4_index
	mov	rcx, QWORD PTR pml4_$[rsp]
	mov	rax, QWORD PTR [rcx+rax*8]
	and	rax, -4096				; fffffffffffff000H
	mov	QWORD PTR pdpt$[rsp], rax

; 210  : 	uint64_t *pd = (uint64_t*)(pdpt[pdp_index(virt_addr)] & ~(4096 - 1));

	mov	rcx, QWORD PTR virt_addr$[rsp]
	call	?pdp_index@@YA_K_K@Z			; pdp_index
	mov	rcx, QWORD PTR pdpt$[rsp]
	mov	rax, QWORD PTR [rcx+rax*8]
	and	rax, -4096				; fffffffffffff000H
	mov	QWORD PTR pd$[rsp], rax

; 211  : 	uint64_t *pt = (uint64_t*)(pd[pd_index(virt_addr)] & ~(4096 - 1));

	mov	rcx, QWORD PTR virt_addr$[rsp]
	call	?pd_index@@YA_K_K@Z			; pd_index
	mov	rcx, QWORD PTR pd$[rsp]
	mov	rax, QWORD PTR [rcx+rax*8]
	and	rax, -4096				; fffffffffffff000H
	mov	QWORD PTR pt$[rsp], rax

; 212  : 	uint64_t *page = (uint64_t*)(pt[pt_index(virt_addr)] & ~(4096 - 1));

	mov	rcx, QWORD PTR virt_addr$[rsp]
	call	?pt_index@@YA_K_K@Z			; pt_index
	mov	rcx, QWORD PTR pt$[rsp]
	mov	rax, QWORD PTR [rcx+rax*8]
	and	rax, -4096				; fffffffffffff000H
	mov	QWORD PTR page$[rsp], rax

; 213  : 
; 214  : 	if ((pt[pt_index(virt_addr)] & PAGING_PRESENT) != 0) {

	mov	rcx, QWORD PTR virt_addr$[rsp]
	call	?pt_index@@YA_K_K@Z			; pt_index
	mov	rcx, QWORD PTR pt$[rsp]
	mov	rax, QWORD PTR [rcx+rax*8]
	and	rax, 1
	test	rax, rax
	je	SHORT $LN2@unmap_page

; 215  : 		pt[pt_index(virt_addr)] = 0;

	mov	rcx, QWORD PTR virt_addr$[rsp]
	call	?pt_index@@YA_K_K@Z			; pt_index
	mov	rcx, QWORD PTR pt$[rsp]
	mov	QWORD PTR [rcx+rax*8], 0
$LN2@unmap_page:

; 216  : 	}
; 217  : 
; 218  : 	if (free_physical && page != 0) 

	movzx	eax, BYTE PTR free_physical$[rsp]
	test	eax, eax
	je	SHORT $LN1@unmap_page
	cmp	QWORD PTR page$[rsp], 0
	je	SHORT $LN1@unmap_page

; 219  : 		pmmngr_free(page);

	mov	rcx, QWORD PTR page$[rsp]
	call	?pmmngr_free@@YAXPEAX@Z			; pmmngr_free
$LN1@unmap_page:

; 220  : 
; 221  : }

	add	rsp, 88					; 00000058H
	ret	0
?unmap_page_ex@@YAXPEA_K_K_N@Z ENDP			; unmap_page_ex
_TEXT	ENDS
; Function compile flags: /Odtpy
; File e:\xeneva project\xeneva\aurora\aurora\arch\x86_64\vmmngr.cpp
_TEXT	SEGMENT
i2$ = 32
i4$ = 36
i3$ = 40
flags$ = 48
i1$ = 56
page$1 = 64
page$2 = 72
page$3 = 80
pml2$ = 88
pml3$ = 96
pml1$ = 104
pml4i$ = 128
physical_address$ = 136
virtual_address$ = 144
attrib$ = 152
?map_page_ex@@YA_NPEA_K_K1E@Z PROC			; map_page_ex

; 264  : bool map_page_ex (uint64_t *pml4i,uint64_t physical_address, uint64_t virtual_address, uint8_t attrib){

$LN9:
	mov	BYTE PTR [rsp+32], r9b
	mov	QWORD PTR [rsp+24], r8
	mov	QWORD PTR [rsp+16], rdx
	mov	QWORD PTR [rsp+8], rcx
	sub	rsp, 120				; 00000078H

; 265  : 
; 266  : 
; 267  : 	size_t flags = 0;

	mov	QWORD PTR flags$[rsp], 0

; 268  : 	if (attrib == PAGING_USER)

	movzx	eax, BYTE PTR attrib$[rsp]
	cmp	eax, 4
	jne	SHORT $LN6@map_page_e

; 269  : 		flags  = PAGING_PRESENT | PAGING_WRITABLE | PAGING_USER;

	mov	QWORD PTR flags$[rsp], 7

; 270  : 	else

	jmp	SHORT $LN5@map_page_e
$LN6@map_page_e:

; 271  : 		flags = PAGING_PRESENT | PAGING_WRITABLE;

	mov	QWORD PTR flags$[rsp], 3
$LN5@map_page_e:

; 272  : 
; 273  : 	const long i4 = (virtual_address >> 39) & 0x1FF;

	mov	rax, QWORD PTR virtual_address$[rsp]
	shr	rax, 39					; 00000027H
	and	rax, 511				; 000001ffH
	mov	DWORD PTR i4$[rsp], eax

; 274  : 	const long i3 = (virtual_address >> 30) & 0x1FF;

	mov	rax, QWORD PTR virtual_address$[rsp]
	shr	rax, 30
	and	rax, 511				; 000001ffH
	mov	DWORD PTR i3$[rsp], eax

; 275  : 	const long i2 = (virtual_address >> 21) & 0x1FF;

	mov	rax, QWORD PTR virtual_address$[rsp]
	shr	rax, 21
	and	rax, 511				; 000001ffH
	mov	DWORD PTR i2$[rsp], eax

; 276  : 	const long i1 = (virtual_address >> 12) & 0x1FF;

	mov	rax, QWORD PTR virtual_address$[rsp]
	shr	rax, 12
	and	rax, 511				; 000001ffH
	mov	DWORD PTR i1$[rsp], eax

; 277  : 
; 278  : 	if (!(pml4i[i4] & PAGING_PRESENT)){

	movsxd	rax, DWORD PTR i4$[rsp]
	mov	rcx, QWORD PTR pml4i$[rsp]
	mov	rax, QWORD PTR [rcx+rax*8]
	and	rax, 1
	test	rax, rax
	jne	SHORT $LN4@map_page_e

; 279  : 		const uint64_t page = (uint64_t)pmmngr_alloc();

	call	?pmmngr_alloc@@YAPEAXXZ			; pmmngr_alloc
	mov	QWORD PTR page$1[rsp], rax

; 280  : 		pml4i[i4] = page | flags;

	mov	rax, QWORD PTR flags$[rsp]
	mov	rcx, QWORD PTR page$1[rsp]
	or	rcx, rax
	mov	rax, rcx
	movsxd	rcx, DWORD PTR i4$[rsp]
	mov	rdx, QWORD PTR pml4i$[rsp]
	mov	QWORD PTR [rdx+rcx*8], rax

; 281  : 		clear((void*)p2v(page));

	mov	rcx, QWORD PTR page$1[rsp]
	call	?p2v@@YA_K_K@Z				; p2v
	mov	rcx, rax
	call	?clear@@YAXPEAX@Z			; clear

; 282  : 		flush_tlb((void*)page);

	mov	rcx, QWORD PTR page$1[rsp]
	call	flush_tlb

; 283  : 		x64_mfence();

	call	x64_mfence
$LN4@map_page_e:

; 284  : 	}
; 285  : 	uint64_t* pml3 = (uint64_t*)(p2v(pml4i[i4]) & ~(4096 - 1));

	movsxd	rax, DWORD PTR i4$[rsp]
	mov	rcx, QWORD PTR pml4i$[rsp]
	mov	rcx, QWORD PTR [rcx+rax*8]
	call	?p2v@@YA_K_K@Z				; p2v
	and	rax, -4096				; fffffffffffff000H
	mov	QWORD PTR pml3$[rsp], rax

; 286  : 
; 287  : 	if (!(pml3[i3] & PAGING_PRESENT)){

	movsxd	rax, DWORD PTR i3$[rsp]
	mov	rcx, QWORD PTR pml3$[rsp]
	mov	rax, QWORD PTR [rcx+rax*8]
	and	rax, 1
	test	rax, rax
	jne	SHORT $LN3@map_page_e

; 288  : 		const uint64_t page = (uint64_t)pmmngr_alloc();

	call	?pmmngr_alloc@@YAPEAXXZ			; pmmngr_alloc
	mov	QWORD PTR page$3[rsp], rax

; 289  : 		pml3[i3] = page | flags;

	mov	rax, QWORD PTR flags$[rsp]
	mov	rcx, QWORD PTR page$3[rsp]
	or	rcx, rax
	mov	rax, rcx
	movsxd	rcx, DWORD PTR i3$[rsp]
	mov	rdx, QWORD PTR pml3$[rsp]
	mov	QWORD PTR [rdx+rcx*8], rax

; 290  : 		clear((void*)p2v(page));

	mov	rcx, QWORD PTR page$3[rsp]
	call	?p2v@@YA_K_K@Z				; p2v
	mov	rcx, rax
	call	?clear@@YAXPEAX@Z			; clear

; 291  : 		flush_tlb((void*)page);

	mov	rcx, QWORD PTR page$3[rsp]
	call	flush_tlb

; 292  : 		x64_mfence();

	call	x64_mfence
$LN3@map_page_e:

; 293  : 		
; 294  : 	}
; 295  : 
; 296  : 	uint64_t* pml2 = (uint64_t*)(p2v(pml3[i3]) & ~(4096 - 1));

	movsxd	rax, DWORD PTR i3$[rsp]
	mov	rcx, QWORD PTR pml3$[rsp]
	mov	rcx, QWORD PTR [rcx+rax*8]
	call	?p2v@@YA_K_K@Z				; p2v
	and	rax, -4096				; fffffffffffff000H
	mov	QWORD PTR pml2$[rsp], rax

; 297  : 	if (!(pml2[i2] & PAGING_PRESENT)){

	movsxd	rax, DWORD PTR i2$[rsp]
	mov	rcx, QWORD PTR pml2$[rsp]
	mov	rax, QWORD PTR [rcx+rax*8]
	and	rax, 1
	test	rax, rax
	jne	SHORT $LN2@map_page_e

; 298  : 
; 299  : 		const uint64_t page = (uint64_t)pmmngr_alloc();

	call	?pmmngr_alloc@@YAPEAXXZ			; pmmngr_alloc
	mov	QWORD PTR page$2[rsp], rax

; 300  : 		pml2[i2] = page | flags;

	mov	rax, QWORD PTR flags$[rsp]
	mov	rcx, QWORD PTR page$2[rsp]
	or	rcx, rax
	mov	rax, rcx
	movsxd	rcx, DWORD PTR i2$[rsp]
	mov	rdx, QWORD PTR pml2$[rsp]
	mov	QWORD PTR [rdx+rcx*8], rax

; 301  : 		clear((void*)p2v(page));

	mov	rcx, QWORD PTR page$2[rsp]
	call	?p2v@@YA_K_K@Z				; p2v
	mov	rcx, rax
	call	?clear@@YAXPEAX@Z			; clear

; 302  : 		flush_tlb((void*)page);

	mov	rcx, QWORD PTR page$2[rsp]
	call	flush_tlb

; 303  : 		x64_mfence();

	call	x64_mfence
$LN2@map_page_e:

; 304  : 		
; 305  : 	}
; 306  : 
; 307  : 	uint64_t* pml1 = (uint64_t*)(p2v(pml2[i2]) & ~(4096 - 1));

	movsxd	rax, DWORD PTR i2$[rsp]
	mov	rcx, QWORD PTR pml2$[rsp]
	mov	rcx, QWORD PTR [rcx+rax*8]
	call	?p2v@@YA_K_K@Z				; p2v
	and	rax, -4096				; fffffffffffff000H
	mov	QWORD PTR pml1$[rsp], rax

; 308  : 
; 309  : 	if (pml1[i1] & PAGING_PRESENT){

	movsxd	rax, DWORD PTR i1$[rsp]
	mov	rcx, QWORD PTR pml1$[rsp]
	mov	rax, QWORD PTR [rcx+rax*8]
	and	rax, 1
	test	rax, rax
	je	SHORT $LN1@map_page_e

; 310  : 		pmmngr_free((void*)physical_address);

	mov	rcx, QWORD PTR physical_address$[rsp]
	call	?pmmngr_free@@YAXPEAX@Z			; pmmngr_free

; 311  : 		return false;

	xor	al, al
	jmp	SHORT $LN7@map_page_e
$LN1@map_page_e:

; 312  : 	}
; 313  : 
; 314  : 	pml1[i1] = physical_address | flags;

	mov	rax, QWORD PTR flags$[rsp]
	mov	rcx, QWORD PTR physical_address$[rsp]
	or	rcx, rax
	mov	rax, rcx
	movsxd	rcx, DWORD PTR i1$[rsp]
	mov	rdx, QWORD PTR pml1$[rsp]
	mov	QWORD PTR [rdx+rcx*8], rax

; 315  : 	flush_tlb ((void*)virtual_address);

	mov	rcx, QWORD PTR virtual_address$[rsp]
	call	flush_tlb

; 316  : 	x64_mfence ();

	call	x64_mfence

; 317  : 	return true;

	mov	al, 1
$LN7@map_page_e:

; 318  : }

	add	rsp, 120				; 00000078H
	ret	0
?map_page_ex@@YA_NPEA_K_K1E@Z ENDP			; map_page_ex
_TEXT	ENDS
; Function compile flags: /Odtpy
; File e:\xeneva project\xeneva\aurora\aurora\arch\x86_64\vmmngr.cpp
_TEXT	SEGMENT
i2$ = 32
i4$ = 36
i3$ = 40
i1$ = 44
flags$ = 48
page$1 = 56
pml3$ = 64
page$2 = 72
page$3 = 80
pml2$ = 88
pml4i$ = 96
pml1$ = 104
physical_address$ = 128
virtual_address$ = 136
attrib$ = 144
?map_page@@YA_N_K0E@Z PROC				; map_page

; 126  : bool map_page (uint64_t physical_address, uint64_t virtual_address, uint8_t attrib){

$LN7:
	mov	BYTE PTR [rsp+24], r8b
	mov	QWORD PTR [rsp+16], rdx
	mov	QWORD PTR [rsp+8], rcx
	sub	rsp, 120				; 00000078H

; 127  : 	size_t flags = PAGING_WRITABLE | PAGING_PRESENT | attrib;

	movzx	eax, BYTE PTR attrib$[rsp]
	or	eax, 3
	cdqe
	mov	QWORD PTR flags$[rsp], rax

; 128  : 	
; 129  : 	const long i4 = (virtual_address >> 39) & 0x1FF;

	mov	rax, QWORD PTR virtual_address$[rsp]
	shr	rax, 39					; 00000027H
	and	rax, 511				; 000001ffH
	mov	DWORD PTR i4$[rsp], eax

; 130  : 	const long i3 = (virtual_address >> 30) & 0x1FF;

	mov	rax, QWORD PTR virtual_address$[rsp]
	shr	rax, 30
	and	rax, 511				; 000001ffH
	mov	DWORD PTR i3$[rsp], eax

; 131  : 	const long i2 = (virtual_address >> 21) & 0x1FF;

	mov	rax, QWORD PTR virtual_address$[rsp]
	shr	rax, 21
	and	rax, 511				; 000001ffH
	mov	DWORD PTR i2$[rsp], eax

; 132  : 	const long i1 = (virtual_address >> 12) & 0x1FF;

	mov	rax, QWORD PTR virtual_address$[rsp]
	shr	rax, 12
	and	rax, 511				; 000001ffH
	mov	DWORD PTR i1$[rsp], eax

; 133  : 
; 134  : 	uint64_t *pml4i = (uint64_t*)p2v(x64_read_cr3());

	call	x64_read_cr3
	mov	rcx, rax
	call	?p2v@@YA_K_K@Z				; p2v
	mov	QWORD PTR pml4i$[rsp], rax

; 135  : 
; 136  : 	if (!(pml4i[i4] & PAGING_PRESENT))

	movsxd	rax, DWORD PTR i4$[rsp]
	mov	rcx, QWORD PTR pml4i$[rsp]
	mov	rax, QWORD PTR [rcx+rax*8]
	and	rax, 1
	test	rax, rax
	jne	SHORT $LN4@map_page

; 137  : 	{
; 138  : 		
; 139  : 		const uint64_t page = (uint64_t)pmmngr_alloc();

	call	?pmmngr_alloc@@YAPEAXXZ			; pmmngr_alloc
	mov	QWORD PTR page$1[rsp], rax

; 140  : 		pml4i[i4] = page | flags;

	mov	rax, QWORD PTR flags$[rsp]
	mov	rcx, QWORD PTR page$1[rsp]
	or	rcx, rax
	mov	rax, rcx
	movsxd	rcx, DWORD PTR i4$[rsp]
	mov	rdx, QWORD PTR pml4i$[rsp]
	mov	QWORD PTR [rdx+rcx*8], rax

; 141  : 		clear((void*)p2v(page));

	mov	rcx, QWORD PTR page$1[rsp]
	call	?p2v@@YA_K_K@Z				; p2v
	mov	rcx, rax
	call	?clear@@YAXPEAX@Z			; clear

; 142  : 		flush_tlb((void*)page);

	mov	rcx, QWORD PTR page$1[rsp]
	call	flush_tlb

; 143  : 		x64_mfence();

	call	x64_mfence
$LN4@map_page:

; 144  : 	}
; 145  : 	uint64_t* pml3 = (uint64_t*)(p2v(pml4i[i4]) & ~(4096 - 1));

	movsxd	rax, DWORD PTR i4$[rsp]
	mov	rcx, QWORD PTR pml4i$[rsp]
	mov	rcx, QWORD PTR [rcx+rax*8]
	call	?p2v@@YA_K_K@Z				; p2v
	and	rax, -4096				; fffffffffffff000H
	mov	QWORD PTR pml3$[rsp], rax

; 146  : 	
; 147  : 	if (!(pml3[i3] & PAGING_PRESENT))

	movsxd	rax, DWORD PTR i3$[rsp]
	mov	rcx, QWORD PTR pml3$[rsp]
	mov	rax, QWORD PTR [rcx+rax*8]
	and	rax, 1
	test	rax, rax
	jne	SHORT $LN3@map_page

; 148  : 	{
; 149  : 		
; 150  : 		const uint64_t page = (uint64_t)pmmngr_alloc();

	call	?pmmngr_alloc@@YAPEAXXZ			; pmmngr_alloc
	mov	QWORD PTR page$3[rsp], rax

; 151  : 		pml3[i3] = page | flags;

	mov	rax, QWORD PTR flags$[rsp]
	mov	rcx, QWORD PTR page$3[rsp]
	or	rcx, rax
	mov	rax, rcx
	movsxd	rcx, DWORD PTR i3$[rsp]
	mov	rdx, QWORD PTR pml3$[rsp]
	mov	QWORD PTR [rdx+rcx*8], rax

; 152  : 		clear((void*)p2v(page));

	mov	rcx, QWORD PTR page$3[rsp]
	call	?p2v@@YA_K_K@Z				; p2v
	mov	rcx, rax
	call	?clear@@YAXPEAX@Z			; clear

; 153  : 		flush_tlb((void*)page);

	mov	rcx, QWORD PTR page$3[rsp]
	call	flush_tlb

; 154  : 		x64_mfence();

	call	x64_mfence
$LN3@map_page:

; 155  : 		
; 156  : 	}
; 157  :     
; 158  : 	
; 159  : 	uint64_t* pml2 = (uint64_t*)(p2v(pml3[i3]) & ~(4096 - 1));

	movsxd	rax, DWORD PTR i3$[rsp]
	mov	rcx, QWORD PTR pml3$[rsp]
	mov	rcx, QWORD PTR [rcx+rax*8]
	call	?p2v@@YA_K_K@Z				; p2v
	and	rax, -4096				; fffffffffffff000H
	mov	QWORD PTR pml2$[rsp], rax

; 160  : 	
; 161  : 	if (!(pml2[i2] & PAGING_PRESENT))

	movsxd	rax, DWORD PTR i2$[rsp]
	mov	rcx, QWORD PTR pml2$[rsp]
	mov	rax, QWORD PTR [rcx+rax*8]
	and	rax, 1
	test	rax, rax
	jne	SHORT $LN2@map_page

; 162  : 	{
; 163  : 		const uint64_t page = (uint64_t)pmmngr_alloc();

	call	?pmmngr_alloc@@YAPEAXXZ			; pmmngr_alloc
	mov	QWORD PTR page$2[rsp], rax

; 164  : 		pml2[i2] = page | flags;

	mov	rax, QWORD PTR flags$[rsp]
	mov	rcx, QWORD PTR page$2[rsp]
	or	rcx, rax
	mov	rax, rcx
	movsxd	rcx, DWORD PTR i2$[rsp]
	mov	rdx, QWORD PTR pml2$[rsp]
	mov	QWORD PTR [rdx+rcx*8], rax

; 165  : 		clear((void*)p2v(page));

	mov	rcx, QWORD PTR page$2[rsp]
	call	?p2v@@YA_K_K@Z				; p2v
	mov	rcx, rax
	call	?clear@@YAXPEAX@Z			; clear

; 166  : 		flush_tlb((void*)page);

	mov	rcx, QWORD PTR page$2[rsp]
	call	flush_tlb

; 167  : 		x64_mfence();

	call	x64_mfence
$LN2@map_page:

; 168  : 		
; 169  : 	}
; 170  : 	
; 171  : 	uint64_t* pml1 = (uint64_t*)(p2v(pml2[i2]) & ~(4096 - 1));

	movsxd	rax, DWORD PTR i2$[rsp]
	mov	rcx, QWORD PTR pml2$[rsp]
	mov	rcx, QWORD PTR [rcx+rax*8]
	call	?p2v@@YA_K_K@Z				; p2v
	and	rax, -4096				; fffffffffffff000H
	mov	QWORD PTR pml1$[rsp], rax

; 172  : 	if (pml1[i1] & PAGING_PRESENT)

	movsxd	rax, DWORD PTR i1$[rsp]
	mov	rcx, QWORD PTR pml1$[rsp]
	mov	rax, QWORD PTR [rcx+rax*8]
	and	rax, 1
	test	rax, rax
	je	SHORT $LN1@map_page

; 173  : 	{
; 174  : 		pmmngr_free((void*)physical_address);

	mov	rcx, QWORD PTR physical_address$[rsp]
	call	?pmmngr_free@@YAXPEAX@Z			; pmmngr_free

; 175  : 		return false;

	xor	al, al
	jmp	SHORT $LN5@map_page
$LN1@map_page:

; 176  : 	}
; 177  : 
; 178  : 	pml1[i1] = physical_address | flags;

	mov	rax, QWORD PTR flags$[rsp]
	mov	rcx, QWORD PTR physical_address$[rsp]
	or	rcx, rax
	mov	rax, rcx
	movsxd	rcx, DWORD PTR i1$[rsp]
	mov	rdx, QWORD PTR pml1$[rsp]
	mov	QWORD PTR [rdx+rcx*8], rax

; 179  : 	flush_tlb ((void*)virtual_address);

	mov	rcx, QWORD PTR virtual_address$[rsp]
	call	flush_tlb

; 180  : 	x64_mfence ();

	call	x64_mfence

; 181  : 	return true;

	mov	al, 1
$LN5@map_page:

; 182  : }

	add	rsp, 120				; 00000078H
	ret	0
?map_page@@YA_N_K0E@Z ENDP				; map_page
_TEXT	ENDS
; Function compile flags: /Odtpy
; File e:\xeneva project\xeneva\aurora\aurora\arch\x86_64\vmmngr.cpp
_TEXT	SEGMENT
i$1 = 32
new_cr3$ = 40
i$2 = 48
pdpt$ = 56
cr3$ = 64
tv95 = 72
tv140 = 80
?vmmngr_x86_64_init@@YAXXZ PROC				; vmmngr_x86_64_init

; 86   : void vmmngr_x86_64_init () {

$LN12:
	sub	rsp, 104				; 00000068H

; 87   : 
; 88   : 	uint64_t *cr3 = (uint64_t*)x64_read_cr3();

	call	x64_read_cr3
	mov	QWORD PTR cr3$[rsp], rax

; 89   : 	uint64_t *new_cr3 = (uint64_t*)pmmngr_alloc();    

	call	?pmmngr_alloc@@YAPEAXXZ			; pmmngr_alloc
	mov	QWORD PTR new_cr3$[rsp], rax

; 90   : 
; 91   : 	memset (new_cr3, 0, 4096);

	mov	r8d, 4096				; 00001000H
	xor	edx, edx
	mov	rcx, QWORD PTR new_cr3$[rsp]
	call	?memset@@YAXPEAXEI@Z			; memset

; 92   : 
; 93   : 	//! Copy all higher half mappings to new mapping
; 94   : 	for (int i = 0; i < 512; ++i) {

	mov	DWORD PTR i$1[rsp], 0
	jmp	SHORT $LN9@vmmngr_x86
$LN8@vmmngr_x86:
	mov	eax, DWORD PTR i$1[rsp]
	inc	eax
	mov	DWORD PTR i$1[rsp], eax
$LN9@vmmngr_x86:
	cmp	DWORD PTR i$1[rsp], 512			; 00000200H
	jge	SHORT $LN7@vmmngr_x86

; 95   : 		if (i == 511)

	cmp	DWORD PTR i$1[rsp], 511			; 000001ffH
	jne	SHORT $LN6@vmmngr_x86

; 96   : 			continue;

	jmp	SHORT $LN8@vmmngr_x86
$LN6@vmmngr_x86:

; 97   : 
; 98   : 		if (cr3[i] & PAGING_PRESENT) {

	movsxd	rax, DWORD PTR i$1[rsp]
	mov	rcx, QWORD PTR cr3$[rsp]
	mov	rax, QWORD PTR [rcx+rax*8]
	and	rax, 1
	test	rax, rax
	je	SHORT $LN5@vmmngr_x86

; 99   : 			new_cr3[i] = cr3[i];

	movsxd	rax, DWORD PTR i$1[rsp]
	movsxd	rcx, DWORD PTR i$1[rsp]
	mov	rdx, QWORD PTR new_cr3$[rsp]
	mov	r8, QWORD PTR cr3$[rsp]
	mov	rax, QWORD PTR [r8+rax*8]
	mov	QWORD PTR [rdx+rcx*8], rax

; 100  : 		}else {

	jmp	SHORT $LN4@vmmngr_x86
$LN5@vmmngr_x86:

; 101  : 			new_cr3[i] = 0;

	movsxd	rax, DWORD PTR i$1[rsp]
	mov	rcx, QWORD PTR new_cr3$[rsp]
	mov	QWORD PTR [rcx+rax*8], 0
$LN4@vmmngr_x86:

; 102  : 		}
; 103  : 		
; 104  : 	}

	jmp	SHORT $LN8@vmmngr_x86
$LN7@vmmngr_x86:

; 105  : 
; 106  : 	uint64_t* pdpt = (uint64_t*)pmmngr_alloc();

	call	?pmmngr_alloc@@YAPEAXXZ			; pmmngr_alloc
	mov	QWORD PTR pdpt$[rsp], rax

; 107  : 	memset(pdpt, 0, 4096);

	mov	r8d, 4096				; 00001000H
	xor	edx, edx
	mov	rcx, QWORD PTR pdpt$[rsp]
	call	?memset@@YAXPEAXEI@Z			; memset

; 108  : 
; 109  : 	new_cr3[pml4_index(PHYSICAL_MEMORY_BASE)] = (uint64_t)pdpt | PAGING_PRESENT | PAGING_WRITABLE;

	mov	rax, QWORD PTR pdpt$[rsp]
	or	rax, 1
	or	rax, 2
	mov	QWORD PTR tv95[rsp], rax
	mov	rcx, -140737488355328			; ffff800000000000H
	call	?pml4_index@@YA_K_K@Z			; pml4_index
	mov	rcx, QWORD PTR new_cr3$[rsp]
	mov	rdx, QWORD PTR tv95[rsp]
	mov	QWORD PTR [rcx+rax*8], rdx

; 110  : 
; 111  : 	for (size_t i = 0; i < 512; i++)

	mov	QWORD PTR i$2[rsp], 0
	jmp	SHORT $LN3@vmmngr_x86
$LN2@vmmngr_x86:
	mov	rax, QWORD PTR i$2[rsp]
	inc	rax
	mov	QWORD PTR i$2[rsp], rax
$LN3@vmmngr_x86:
	cmp	QWORD PTR i$2[rsp], 512			; 00000200H
	jae	SHORT $LN1@vmmngr_x86

; 112  : 		pdpt[pdp_index(PHYSICAL_MEMORY_BASE) + i] = i * 512 * 512 * 4096 | 0x80 | PAGING_PRESENT | PAGING_WRITABLE;

	mov	rax, QWORD PTR i$2[rsp]
	imul	rax, 512				; 00000200H
	imul	rax, 512				; 00000200H
	imul	rax, 4096				; 00001000H
	bts	rax, 7
	or	rax, 1
	or	rax, 2
	mov	QWORD PTR tv140[rsp], rax
	mov	rcx, -140737488355328			; ffff800000000000H
	call	?pdp_index@@YA_K_K@Z			; pdp_index
	add	rax, QWORD PTR i$2[rsp]
	mov	rcx, QWORD PTR pdpt$[rsp]
	mov	rdx, QWORD PTR tv140[rsp]
	mov	QWORD PTR [rcx+rax*8], rdx
	jmp	SHORT $LN2@vmmngr_x86
$LN1@vmmngr_x86:

; 113  : 
; 114  : 	//! Store the kernel's address space
; 115  : 	root_cr3 = new_cr3;

	mov	rax, QWORD PTR new_cr3$[rsp]
	mov	QWORD PTR ?root_cr3@@3PEA_KEA, rax	; root_cr3

; 116  : 
; 117  : 	//! Switch to new mapping!!!
; 118  : 	x64_write_cr3 ((size_t)new_cr3);

	mov	rcx, QWORD PTR new_cr3$[rsp]
	call	x64_write_cr3

; 119  : 
; 120  : 	pmmngr_move_higher_half();

	call	?pmmngr_move_higher_half@@YAXXZ		; pmmngr_move_higher_half

; 121  : 
; 122  : }

	add	rsp, 104				; 00000068H
	ret	0
?vmmngr_x86_64_init@@YAXXZ ENDP				; vmmngr_x86_64_init
_TEXT	ENDS
; Function compile flags: /Odtpy
; File e:\xeneva project\xeneva\aurora\aurora\arch\x86_64\vmmngr.cpp
_TEXT	SEGMENT
addr$ = 8
?p_index@@YA_K_K@Z PROC					; p_index

; 69   : size_t p_index (uint64_t addr){

	mov	QWORD PTR [rsp+8], rcx

; 70   : 	return (addr & 0x7ff);

	mov	rax, QWORD PTR addr$[rsp]
	and	rax, 2047				; 000007ffH

; 71   : }

	ret	0
?p_index@@YA_K_K@Z ENDP					; p_index
_TEXT	ENDS
; Function compile flags: /Odtpy
; File e:\xeneva project\xeneva\aurora\aurora\arch\x86_64\vmmngr.cpp
_TEXT	SEGMENT
addr$ = 8
?pt_index@@YA_K_K@Z PROC				; pt_index

; 65   : size_t pt_index (uint64_t addr){

	mov	QWORD PTR [rsp+8], rcx

; 66   : 	return (addr >> 12) & 0x1ff;

	mov	rax, QWORD PTR addr$[rsp]
	shr	rax, 12
	and	rax, 511				; 000001ffH

; 67   : }

	ret	0
?pt_index@@YA_K_K@Z ENDP				; pt_index
_TEXT	ENDS
; Function compile flags: /Odtpy
; File e:\xeneva project\xeneva\aurora\aurora\arch\x86_64\vmmngr.cpp
_TEXT	SEGMENT
addr$ = 8
?pd_index@@YA_K_K@Z PROC				; pd_index

; 61   : size_t pd_index (uint64_t addr){

	mov	QWORD PTR [rsp+8], rcx

; 62   : 	return (addr >> 21) & 0x1ff;

	mov	rax, QWORD PTR addr$[rsp]
	shr	rax, 21
	and	rax, 511				; 000001ffH

; 63   : }

	ret	0
?pd_index@@YA_K_K@Z ENDP				; pd_index
_TEXT	ENDS
; Function compile flags: /Odtpy
; File e:\xeneva project\xeneva\aurora\aurora\arch\x86_64\vmmngr.cpp
_TEXT	SEGMENT
addr$ = 8
?pdp_index@@YA_K_K@Z PROC				; pdp_index

; 57   : size_t pdp_index (uint64_t addr){

	mov	QWORD PTR [rsp+8], rcx

; 58   : 	return (addr >> 30) & 0x1ff;

	mov	rax, QWORD PTR addr$[rsp]
	shr	rax, 30
	and	rax, 511				; 000001ffH

; 59   : }

	ret	0
?pdp_index@@YA_K_K@Z ENDP				; pdp_index
_TEXT	ENDS
; Function compile flags: /Odtpy
; File e:\xeneva project\xeneva\aurora\aurora\arch\x86_64\vmmngr.cpp
_TEXT	SEGMENT
addr$ = 8
?pml4_index@@YA_K_K@Z PROC				; pml4_index

; 53   : size_t  pml4_index (uint64_t addr){

	mov	QWORD PTR [rsp+8], rcx

; 54   : 	return (addr >> 39) & 0x1ff;

	mov	rax, QWORD PTR addr$[rsp]
	shr	rax, 39					; 00000027H
	and	rax, 511				; 000001ffH

; 55   : }

	ret	0
?pml4_index@@YA_K_K@Z ENDP				; pml4_index
_TEXT	ENDS
END
